ARM GAS  C:\Users\begre\AppData\Local\Temp\ccwT0kAZ.s 			page 1


   1              		.cpu cortex-m3
   2              		.arch armv7-m
   3              		.fpu softvfp
   4              		.eabi_attribute 20, 1
   5              		.eabi_attribute 21, 1
   6              		.eabi_attribute 23, 3
   7              		.eabi_attribute 24, 1
   8              		.eabi_attribute 25, 1
   9              		.eabi_attribute 26, 1
  10              		.eabi_attribute 30, 1
  11              		.eabi_attribute 34, 1
  12              		.eabi_attribute 18, 4
  13              		.file	"stm32f1xx_hal_rcc.c"
  14              		.text
  15              	.Ltext0:
  16              		.cfi_sections	.debug_frame
  17              		.section	.text.RCC_Delay,"ax",%progbits
  18              		.align	1
  19              		.syntax unified
  20              		.thumb
  21              		.thumb_func
  23              	RCC_Delay:
  24              	.LVL0:
  25              	.LFB78:
  26              		.file 1 "Drivers/STM32F1xx_HAL_Driver/Src/stm32f1xx_hal_rcc.c"
   1:Drivers/STM32F1xx_HAL_Driver/Src/stm32f1xx_hal_rcc.c **** /**
   2:Drivers/STM32F1xx_HAL_Driver/Src/stm32f1xx_hal_rcc.c ****   ******************************************************************************
   3:Drivers/STM32F1xx_HAL_Driver/Src/stm32f1xx_hal_rcc.c ****   * @file    stm32f1xx_hal_rcc.c
   4:Drivers/STM32F1xx_HAL_Driver/Src/stm32f1xx_hal_rcc.c ****   * @author  MCD Application Team
   5:Drivers/STM32F1xx_HAL_Driver/Src/stm32f1xx_hal_rcc.c ****   * @brief   RCC HAL module driver.
   6:Drivers/STM32F1xx_HAL_Driver/Src/stm32f1xx_hal_rcc.c ****   *          This file provides firmware functions to manage the following
   7:Drivers/STM32F1xx_HAL_Driver/Src/stm32f1xx_hal_rcc.c ****   *          functionalities of the Reset and Clock Control (RCC) peripheral:
   8:Drivers/STM32F1xx_HAL_Driver/Src/stm32f1xx_hal_rcc.c ****   *           + Initialization and de-initialization functions
   9:Drivers/STM32F1xx_HAL_Driver/Src/stm32f1xx_hal_rcc.c ****   *           + Peripheral Control functions
  10:Drivers/STM32F1xx_HAL_Driver/Src/stm32f1xx_hal_rcc.c ****   *
  11:Drivers/STM32F1xx_HAL_Driver/Src/stm32f1xx_hal_rcc.c ****   @verbatim
  12:Drivers/STM32F1xx_HAL_Driver/Src/stm32f1xx_hal_rcc.c ****   ==============================================================================
  13:Drivers/STM32F1xx_HAL_Driver/Src/stm32f1xx_hal_rcc.c ****                       ##### RCC specific features #####
  14:Drivers/STM32F1xx_HAL_Driver/Src/stm32f1xx_hal_rcc.c ****   ==============================================================================
  15:Drivers/STM32F1xx_HAL_Driver/Src/stm32f1xx_hal_rcc.c ****     [..]
  16:Drivers/STM32F1xx_HAL_Driver/Src/stm32f1xx_hal_rcc.c ****       After reset the device is running from Internal High Speed oscillator
  17:Drivers/STM32F1xx_HAL_Driver/Src/stm32f1xx_hal_rcc.c ****       (HSI 8MHz) with Flash 0 wait state, Flash prefetch buffer is enabled,
  18:Drivers/STM32F1xx_HAL_Driver/Src/stm32f1xx_hal_rcc.c ****       and all peripherals are off except internal SRAM, Flash and JTAG.
  19:Drivers/STM32F1xx_HAL_Driver/Src/stm32f1xx_hal_rcc.c ****       (+) There is no prescaler on High speed (AHB) and Low speed (APB) buses;
  20:Drivers/STM32F1xx_HAL_Driver/Src/stm32f1xx_hal_rcc.c ****           all peripherals mapped on these buses are running at HSI speed.
  21:Drivers/STM32F1xx_HAL_Driver/Src/stm32f1xx_hal_rcc.c ****       (+) The clock for all peripherals is switched off, except the SRAM and FLASH.
  22:Drivers/STM32F1xx_HAL_Driver/Src/stm32f1xx_hal_rcc.c ****       (+) All GPIOs are in input floating state, except the JTAG pins which
  23:Drivers/STM32F1xx_HAL_Driver/Src/stm32f1xx_hal_rcc.c ****           are assigned to be used for debug purpose.
  24:Drivers/STM32F1xx_HAL_Driver/Src/stm32f1xx_hal_rcc.c ****     [..] Once the device started from reset, the user application has to:
  25:Drivers/STM32F1xx_HAL_Driver/Src/stm32f1xx_hal_rcc.c ****       (+) Configure the clock source to be used to drive the System clock
  26:Drivers/STM32F1xx_HAL_Driver/Src/stm32f1xx_hal_rcc.c ****           (if the application needs higher frequency/performance)
  27:Drivers/STM32F1xx_HAL_Driver/Src/stm32f1xx_hal_rcc.c ****       (+) Configure the System clock frequency and Flash settings
  28:Drivers/STM32F1xx_HAL_Driver/Src/stm32f1xx_hal_rcc.c ****       (+) Configure the AHB and APB buses prescalers
  29:Drivers/STM32F1xx_HAL_Driver/Src/stm32f1xx_hal_rcc.c ****       (+) Enable the clock for the peripheral(s) to be used
  30:Drivers/STM32F1xx_HAL_Driver/Src/stm32f1xx_hal_rcc.c ****       (+) Configure the clock source(s) for peripherals whose clocks are not
  31:Drivers/STM32F1xx_HAL_Driver/Src/stm32f1xx_hal_rcc.c ****           derived from the System clock (I2S, RTC, ADC, USB OTG FS)
  32:Drivers/STM32F1xx_HAL_Driver/Src/stm32f1xx_hal_rcc.c **** 
ARM GAS  C:\Users\begre\AppData\Local\Temp\ccwT0kAZ.s 			page 2


  33:Drivers/STM32F1xx_HAL_Driver/Src/stm32f1xx_hal_rcc.c ****                       ##### RCC Limitations #####
  34:Drivers/STM32F1xx_HAL_Driver/Src/stm32f1xx_hal_rcc.c ****   ==============================================================================
  35:Drivers/STM32F1xx_HAL_Driver/Src/stm32f1xx_hal_rcc.c ****     [..]
  36:Drivers/STM32F1xx_HAL_Driver/Src/stm32f1xx_hal_rcc.c ****       A delay between an RCC peripheral clock enable and the effective peripheral
  37:Drivers/STM32F1xx_HAL_Driver/Src/stm32f1xx_hal_rcc.c ****       enabling should be taken into account in order to manage the peripheral read/write
  38:Drivers/STM32F1xx_HAL_Driver/Src/stm32f1xx_hal_rcc.c ****       from/to registers.
  39:Drivers/STM32F1xx_HAL_Driver/Src/stm32f1xx_hal_rcc.c ****       (+) This delay depends on the peripheral mapping.
  40:Drivers/STM32F1xx_HAL_Driver/Src/stm32f1xx_hal_rcc.c ****         (++) AHB & APB peripherals, 1 dummy read is necessary
  41:Drivers/STM32F1xx_HAL_Driver/Src/stm32f1xx_hal_rcc.c **** 
  42:Drivers/STM32F1xx_HAL_Driver/Src/stm32f1xx_hal_rcc.c ****     [..]
  43:Drivers/STM32F1xx_HAL_Driver/Src/stm32f1xx_hal_rcc.c ****       Workarounds:
  44:Drivers/STM32F1xx_HAL_Driver/Src/stm32f1xx_hal_rcc.c ****       (#) For AHB & APB peripherals, a dummy read to the peripheral register has been
  45:Drivers/STM32F1xx_HAL_Driver/Src/stm32f1xx_hal_rcc.c ****           inserted in each __HAL_RCC_PPP_CLK_ENABLE() macro.
  46:Drivers/STM32F1xx_HAL_Driver/Src/stm32f1xx_hal_rcc.c **** 
  47:Drivers/STM32F1xx_HAL_Driver/Src/stm32f1xx_hal_rcc.c ****   @endverbatim
  48:Drivers/STM32F1xx_HAL_Driver/Src/stm32f1xx_hal_rcc.c ****   ******************************************************************************
  49:Drivers/STM32F1xx_HAL_Driver/Src/stm32f1xx_hal_rcc.c ****   * @attention
  50:Drivers/STM32F1xx_HAL_Driver/Src/stm32f1xx_hal_rcc.c ****   *
  51:Drivers/STM32F1xx_HAL_Driver/Src/stm32f1xx_hal_rcc.c ****   * Copyright (c) 2016 STMicroelectronics.
  52:Drivers/STM32F1xx_HAL_Driver/Src/stm32f1xx_hal_rcc.c ****   * All rights reserved.
  53:Drivers/STM32F1xx_HAL_Driver/Src/stm32f1xx_hal_rcc.c ****   *
  54:Drivers/STM32F1xx_HAL_Driver/Src/stm32f1xx_hal_rcc.c ****   * This software is licensed under terms that can be found in the LICENSE file in
  55:Drivers/STM32F1xx_HAL_Driver/Src/stm32f1xx_hal_rcc.c ****   * the root directory of this software component.
  56:Drivers/STM32F1xx_HAL_Driver/Src/stm32f1xx_hal_rcc.c ****   * If no LICENSE file comes with this software, it is provided AS-IS.
  57:Drivers/STM32F1xx_HAL_Driver/Src/stm32f1xx_hal_rcc.c ****   ******************************************************************************
  58:Drivers/STM32F1xx_HAL_Driver/Src/stm32f1xx_hal_rcc.c ****   */
  59:Drivers/STM32F1xx_HAL_Driver/Src/stm32f1xx_hal_rcc.c **** 
  60:Drivers/STM32F1xx_HAL_Driver/Src/stm32f1xx_hal_rcc.c **** /* Includes ------------------------------------------------------------------*/
  61:Drivers/STM32F1xx_HAL_Driver/Src/stm32f1xx_hal_rcc.c **** #include "stm32f1xx_hal.h"
  62:Drivers/STM32F1xx_HAL_Driver/Src/stm32f1xx_hal_rcc.c **** 
  63:Drivers/STM32F1xx_HAL_Driver/Src/stm32f1xx_hal_rcc.c **** /** @addtogroup STM32F1xx_HAL_Driver
  64:Drivers/STM32F1xx_HAL_Driver/Src/stm32f1xx_hal_rcc.c ****   * @{
  65:Drivers/STM32F1xx_HAL_Driver/Src/stm32f1xx_hal_rcc.c ****   */
  66:Drivers/STM32F1xx_HAL_Driver/Src/stm32f1xx_hal_rcc.c **** 
  67:Drivers/STM32F1xx_HAL_Driver/Src/stm32f1xx_hal_rcc.c **** /** @defgroup RCC RCC
  68:Drivers/STM32F1xx_HAL_Driver/Src/stm32f1xx_hal_rcc.c **** * @brief RCC HAL module driver
  69:Drivers/STM32F1xx_HAL_Driver/Src/stm32f1xx_hal_rcc.c ****   * @{
  70:Drivers/STM32F1xx_HAL_Driver/Src/stm32f1xx_hal_rcc.c ****   */
  71:Drivers/STM32F1xx_HAL_Driver/Src/stm32f1xx_hal_rcc.c **** 
  72:Drivers/STM32F1xx_HAL_Driver/Src/stm32f1xx_hal_rcc.c **** #ifdef HAL_RCC_MODULE_ENABLED
  73:Drivers/STM32F1xx_HAL_Driver/Src/stm32f1xx_hal_rcc.c **** 
  74:Drivers/STM32F1xx_HAL_Driver/Src/stm32f1xx_hal_rcc.c **** /* Private typedef -----------------------------------------------------------*/
  75:Drivers/STM32F1xx_HAL_Driver/Src/stm32f1xx_hal_rcc.c **** /* Private define ------------------------------------------------------------*/
  76:Drivers/STM32F1xx_HAL_Driver/Src/stm32f1xx_hal_rcc.c **** /** @defgroup RCC_Private_Constants RCC Private Constants
  77:Drivers/STM32F1xx_HAL_Driver/Src/stm32f1xx_hal_rcc.c ****  * @{
  78:Drivers/STM32F1xx_HAL_Driver/Src/stm32f1xx_hal_rcc.c ****  */
  79:Drivers/STM32F1xx_HAL_Driver/Src/stm32f1xx_hal_rcc.c **** /**
  80:Drivers/STM32F1xx_HAL_Driver/Src/stm32f1xx_hal_rcc.c ****   * @}
  81:Drivers/STM32F1xx_HAL_Driver/Src/stm32f1xx_hal_rcc.c ****   */
  82:Drivers/STM32F1xx_HAL_Driver/Src/stm32f1xx_hal_rcc.c **** /* Private macro -------------------------------------------------------------*/
  83:Drivers/STM32F1xx_HAL_Driver/Src/stm32f1xx_hal_rcc.c **** /** @defgroup RCC_Private_Macros RCC Private Macros
  84:Drivers/STM32F1xx_HAL_Driver/Src/stm32f1xx_hal_rcc.c ****   * @{
  85:Drivers/STM32F1xx_HAL_Driver/Src/stm32f1xx_hal_rcc.c ****   */
  86:Drivers/STM32F1xx_HAL_Driver/Src/stm32f1xx_hal_rcc.c **** 
  87:Drivers/STM32F1xx_HAL_Driver/Src/stm32f1xx_hal_rcc.c **** #define MCO1_CLK_ENABLE()     __HAL_RCC_GPIOA_CLK_ENABLE()
  88:Drivers/STM32F1xx_HAL_Driver/Src/stm32f1xx_hal_rcc.c **** #define MCO1_GPIO_PORT        GPIOA
  89:Drivers/STM32F1xx_HAL_Driver/Src/stm32f1xx_hal_rcc.c **** #define MCO1_PIN              GPIO_PIN_8
ARM GAS  C:\Users\begre\AppData\Local\Temp\ccwT0kAZ.s 			page 3


  90:Drivers/STM32F1xx_HAL_Driver/Src/stm32f1xx_hal_rcc.c **** 
  91:Drivers/STM32F1xx_HAL_Driver/Src/stm32f1xx_hal_rcc.c **** /**
  92:Drivers/STM32F1xx_HAL_Driver/Src/stm32f1xx_hal_rcc.c ****   * @}
  93:Drivers/STM32F1xx_HAL_Driver/Src/stm32f1xx_hal_rcc.c ****   */
  94:Drivers/STM32F1xx_HAL_Driver/Src/stm32f1xx_hal_rcc.c **** 
  95:Drivers/STM32F1xx_HAL_Driver/Src/stm32f1xx_hal_rcc.c **** /* Private variables ---------------------------------------------------------*/
  96:Drivers/STM32F1xx_HAL_Driver/Src/stm32f1xx_hal_rcc.c **** /** @defgroup RCC_Private_Variables RCC Private Variables
  97:Drivers/STM32F1xx_HAL_Driver/Src/stm32f1xx_hal_rcc.c ****   * @{
  98:Drivers/STM32F1xx_HAL_Driver/Src/stm32f1xx_hal_rcc.c ****   */
  99:Drivers/STM32F1xx_HAL_Driver/Src/stm32f1xx_hal_rcc.c **** /**
 100:Drivers/STM32F1xx_HAL_Driver/Src/stm32f1xx_hal_rcc.c ****   * @}
 101:Drivers/STM32F1xx_HAL_Driver/Src/stm32f1xx_hal_rcc.c ****   */
 102:Drivers/STM32F1xx_HAL_Driver/Src/stm32f1xx_hal_rcc.c **** 
 103:Drivers/STM32F1xx_HAL_Driver/Src/stm32f1xx_hal_rcc.c **** /* Private function prototypes -----------------------------------------------*/
 104:Drivers/STM32F1xx_HAL_Driver/Src/stm32f1xx_hal_rcc.c **** static void RCC_Delay(uint32_t mdelay);
 105:Drivers/STM32F1xx_HAL_Driver/Src/stm32f1xx_hal_rcc.c **** 
 106:Drivers/STM32F1xx_HAL_Driver/Src/stm32f1xx_hal_rcc.c **** /* Exported functions --------------------------------------------------------*/
 107:Drivers/STM32F1xx_HAL_Driver/Src/stm32f1xx_hal_rcc.c **** 
 108:Drivers/STM32F1xx_HAL_Driver/Src/stm32f1xx_hal_rcc.c **** /** @defgroup RCC_Exported_Functions RCC Exported Functions
 109:Drivers/STM32F1xx_HAL_Driver/Src/stm32f1xx_hal_rcc.c ****   * @{
 110:Drivers/STM32F1xx_HAL_Driver/Src/stm32f1xx_hal_rcc.c ****   */
 111:Drivers/STM32F1xx_HAL_Driver/Src/stm32f1xx_hal_rcc.c **** 
 112:Drivers/STM32F1xx_HAL_Driver/Src/stm32f1xx_hal_rcc.c **** /** @defgroup RCC_Exported_Functions_Group1 Initialization and de-initialization functions
 113:Drivers/STM32F1xx_HAL_Driver/Src/stm32f1xx_hal_rcc.c ****   *  @brief    Initialization and Configuration functions
 114:Drivers/STM32F1xx_HAL_Driver/Src/stm32f1xx_hal_rcc.c ****   *
 115:Drivers/STM32F1xx_HAL_Driver/Src/stm32f1xx_hal_rcc.c ****   @verbatim
 116:Drivers/STM32F1xx_HAL_Driver/Src/stm32f1xx_hal_rcc.c ****   ===============================================================================
 117:Drivers/STM32F1xx_HAL_Driver/Src/stm32f1xx_hal_rcc.c ****            ##### Initialization and de-initialization functions #####
 118:Drivers/STM32F1xx_HAL_Driver/Src/stm32f1xx_hal_rcc.c ****   ===============================================================================
 119:Drivers/STM32F1xx_HAL_Driver/Src/stm32f1xx_hal_rcc.c ****     [..]
 120:Drivers/STM32F1xx_HAL_Driver/Src/stm32f1xx_hal_rcc.c ****       This section provides functions allowing to configure the internal/external oscillators
 121:Drivers/STM32F1xx_HAL_Driver/Src/stm32f1xx_hal_rcc.c ****       (HSE, HSI, LSE, LSI, PLL, CSS and MCO) and the System buses clocks (SYSCLK, AHB, APB1
 122:Drivers/STM32F1xx_HAL_Driver/Src/stm32f1xx_hal_rcc.c ****       and APB2).
 123:Drivers/STM32F1xx_HAL_Driver/Src/stm32f1xx_hal_rcc.c **** 
 124:Drivers/STM32F1xx_HAL_Driver/Src/stm32f1xx_hal_rcc.c ****     [..] Internal/external clock and PLL configuration
 125:Drivers/STM32F1xx_HAL_Driver/Src/stm32f1xx_hal_rcc.c ****       (#) HSI (high-speed internal), 8 MHz factory-trimmed RC used directly or through
 126:Drivers/STM32F1xx_HAL_Driver/Src/stm32f1xx_hal_rcc.c ****           the PLL as System clock source.
 127:Drivers/STM32F1xx_HAL_Driver/Src/stm32f1xx_hal_rcc.c ****       (#) LSI (low-speed internal), ~40 KHz low consumption RC used as IWDG and/or RTC
 128:Drivers/STM32F1xx_HAL_Driver/Src/stm32f1xx_hal_rcc.c ****           clock source.
 129:Drivers/STM32F1xx_HAL_Driver/Src/stm32f1xx_hal_rcc.c **** 
 130:Drivers/STM32F1xx_HAL_Driver/Src/stm32f1xx_hal_rcc.c ****       (#) HSE (high-speed external), 4 to 24 MHz (STM32F100xx) or 4 to 16 MHz (STM32F101x/STM32F102
 131:Drivers/STM32F1xx_HAL_Driver/Src/stm32f1xx_hal_rcc.c ****           through the PLL as System clock source. Can be used also as RTC clock source.
 132:Drivers/STM32F1xx_HAL_Driver/Src/stm32f1xx_hal_rcc.c **** 
 133:Drivers/STM32F1xx_HAL_Driver/Src/stm32f1xx_hal_rcc.c ****       (#) LSE (low-speed external), 32 KHz oscillator used as RTC clock source.
 134:Drivers/STM32F1xx_HAL_Driver/Src/stm32f1xx_hal_rcc.c **** 
 135:Drivers/STM32F1xx_HAL_Driver/Src/stm32f1xx_hal_rcc.c ****       (#) PLL (clocked by HSI or HSE), featuring different output clocks:
 136:Drivers/STM32F1xx_HAL_Driver/Src/stm32f1xx_hal_rcc.c ****         (++) The first output is used to generate the high speed system clock (up to 72 MHz for STM
 137:Drivers/STM32F1xx_HAL_Driver/Src/stm32f1xx_hal_rcc.c ****         (++) The second output is used to generate the clock for the USB OTG FS (48 MHz)
 138:Drivers/STM32F1xx_HAL_Driver/Src/stm32f1xx_hal_rcc.c **** 
 139:Drivers/STM32F1xx_HAL_Driver/Src/stm32f1xx_hal_rcc.c ****       (#) CSS (Clock security system), once enable using the macro __HAL_RCC_CSS_ENABLE()
 140:Drivers/STM32F1xx_HAL_Driver/Src/stm32f1xx_hal_rcc.c ****           and if a HSE clock failure occurs(HSE used directly or through PLL as System
 141:Drivers/STM32F1xx_HAL_Driver/Src/stm32f1xx_hal_rcc.c ****           clock source), the System clocks automatically switched to HSI and an interrupt
 142:Drivers/STM32F1xx_HAL_Driver/Src/stm32f1xx_hal_rcc.c ****           is generated if enabled. The interrupt is linked to the Cortex-M3 NMI
 143:Drivers/STM32F1xx_HAL_Driver/Src/stm32f1xx_hal_rcc.c ****           (Non-Maskable Interrupt) exception vector.
 144:Drivers/STM32F1xx_HAL_Driver/Src/stm32f1xx_hal_rcc.c **** 
 145:Drivers/STM32F1xx_HAL_Driver/Src/stm32f1xx_hal_rcc.c ****       (#) MCO1 (microcontroller clock output), used to output SYSCLK, HSI,
 146:Drivers/STM32F1xx_HAL_Driver/Src/stm32f1xx_hal_rcc.c ****           HSE or PLL clock (divided by 2) on PA8 pin + PLL2CLK, PLL3CLK/2, PLL3CLK and XTI for STM3
ARM GAS  C:\Users\begre\AppData\Local\Temp\ccwT0kAZ.s 			page 4


 147:Drivers/STM32F1xx_HAL_Driver/Src/stm32f1xx_hal_rcc.c **** 
 148:Drivers/STM32F1xx_HAL_Driver/Src/stm32f1xx_hal_rcc.c ****     [..] System, AHB and APB buses clocks configuration
 149:Drivers/STM32F1xx_HAL_Driver/Src/stm32f1xx_hal_rcc.c ****       (#) Several clock sources can be used to drive the System clock (SYSCLK): HSI,
 150:Drivers/STM32F1xx_HAL_Driver/Src/stm32f1xx_hal_rcc.c ****           HSE and PLL.
 151:Drivers/STM32F1xx_HAL_Driver/Src/stm32f1xx_hal_rcc.c ****           The AHB clock (HCLK) is derived from System clock through configurable
 152:Drivers/STM32F1xx_HAL_Driver/Src/stm32f1xx_hal_rcc.c ****           prescaler and used to clock the CPU, memory and peripherals mapped
 153:Drivers/STM32F1xx_HAL_Driver/Src/stm32f1xx_hal_rcc.c ****           on AHB bus (DMA, GPIO...). APB1 (PCLK1) and APB2 (PCLK2) clocks are derived
 154:Drivers/STM32F1xx_HAL_Driver/Src/stm32f1xx_hal_rcc.c ****           from AHB clock through configurable prescalers and used to clock
 155:Drivers/STM32F1xx_HAL_Driver/Src/stm32f1xx_hal_rcc.c ****           the peripherals mapped on these buses. You can use
 156:Drivers/STM32F1xx_HAL_Driver/Src/stm32f1xx_hal_rcc.c ****           "HAL_RCC_GetSysClockFreq()" function to retrieve the frequencies of these clocks.
 157:Drivers/STM32F1xx_HAL_Driver/Src/stm32f1xx_hal_rcc.c **** 
 158:Drivers/STM32F1xx_HAL_Driver/Src/stm32f1xx_hal_rcc.c ****       -@- All the peripheral clocks are derived from the System clock (SYSCLK) except:
 159:Drivers/STM32F1xx_HAL_Driver/Src/stm32f1xx_hal_rcc.c ****           (+@) RTC: RTC clock can be derived either from the LSI, LSE or HSE clock
 160:Drivers/STM32F1xx_HAL_Driver/Src/stm32f1xx_hal_rcc.c ****               divided by 128.
 161:Drivers/STM32F1xx_HAL_Driver/Src/stm32f1xx_hal_rcc.c ****           (+@) USB OTG FS and RTC: USB OTG FS require a frequency equal to 48 MHz
 162:Drivers/STM32F1xx_HAL_Driver/Src/stm32f1xx_hal_rcc.c ****               to work correctly. This clock is derived of the main PLL through PLL Multiplier.
 163:Drivers/STM32F1xx_HAL_Driver/Src/stm32f1xx_hal_rcc.c ****           (+@) I2S interface on STM32F105x/STM32F107x can be derived from PLL3CLK
 164:Drivers/STM32F1xx_HAL_Driver/Src/stm32f1xx_hal_rcc.c ****           (+@) IWDG clock which is always the LSI clock.
 165:Drivers/STM32F1xx_HAL_Driver/Src/stm32f1xx_hal_rcc.c **** 
 166:Drivers/STM32F1xx_HAL_Driver/Src/stm32f1xx_hal_rcc.c ****       (#) For STM32F10xxx, the maximum frequency of the SYSCLK and HCLK/PCLK2 is 72 MHz, PCLK1 36 M
 167:Drivers/STM32F1xx_HAL_Driver/Src/stm32f1xx_hal_rcc.c ****           For STM32F100xx, the maximum frequency of the SYSCLK and HCLK/PCLK1/PCLK2 is 24 MHz.
 168:Drivers/STM32F1xx_HAL_Driver/Src/stm32f1xx_hal_rcc.c ****           Depending on the SYSCLK frequency, the flash latency should be adapted accordingly.
 169:Drivers/STM32F1xx_HAL_Driver/Src/stm32f1xx_hal_rcc.c ****   @endverbatim
 170:Drivers/STM32F1xx_HAL_Driver/Src/stm32f1xx_hal_rcc.c ****   * @{
 171:Drivers/STM32F1xx_HAL_Driver/Src/stm32f1xx_hal_rcc.c ****   */
 172:Drivers/STM32F1xx_HAL_Driver/Src/stm32f1xx_hal_rcc.c **** 
 173:Drivers/STM32F1xx_HAL_Driver/Src/stm32f1xx_hal_rcc.c **** /*
 174:Drivers/STM32F1xx_HAL_Driver/Src/stm32f1xx_hal_rcc.c ****   Additional consideration on the SYSCLK based on Latency settings:
 175:Drivers/STM32F1xx_HAL_Driver/Src/stm32f1xx_hal_rcc.c ****         +-----------------------------------------------+
 176:Drivers/STM32F1xx_HAL_Driver/Src/stm32f1xx_hal_rcc.c ****         | Latency       | SYSCLK clock frequency (MHz)  |
 177:Drivers/STM32F1xx_HAL_Driver/Src/stm32f1xx_hal_rcc.c ****         |---------------|-------------------------------|
 178:Drivers/STM32F1xx_HAL_Driver/Src/stm32f1xx_hal_rcc.c ****         |0WS(1CPU cycle)|       0 < SYSCLK <= 24        |
 179:Drivers/STM32F1xx_HAL_Driver/Src/stm32f1xx_hal_rcc.c ****         |---------------|-------------------------------|
 180:Drivers/STM32F1xx_HAL_Driver/Src/stm32f1xx_hal_rcc.c ****         |1WS(2CPU cycle)|      24 < SYSCLK <= 48        |
 181:Drivers/STM32F1xx_HAL_Driver/Src/stm32f1xx_hal_rcc.c ****         |---------------|-------------------------------|
 182:Drivers/STM32F1xx_HAL_Driver/Src/stm32f1xx_hal_rcc.c ****         |2WS(3CPU cycle)|      48 < SYSCLK <= 72        |
 183:Drivers/STM32F1xx_HAL_Driver/Src/stm32f1xx_hal_rcc.c ****         +-----------------------------------------------+
 184:Drivers/STM32F1xx_HAL_Driver/Src/stm32f1xx_hal_rcc.c ****   */
 185:Drivers/STM32F1xx_HAL_Driver/Src/stm32f1xx_hal_rcc.c **** 
 186:Drivers/STM32F1xx_HAL_Driver/Src/stm32f1xx_hal_rcc.c **** /**
 187:Drivers/STM32F1xx_HAL_Driver/Src/stm32f1xx_hal_rcc.c ****   * @brief  Resets the RCC clock configuration to the default reset state.
 188:Drivers/STM32F1xx_HAL_Driver/Src/stm32f1xx_hal_rcc.c ****   * @note   The default reset state of the clock configuration is given below:
 189:Drivers/STM32F1xx_HAL_Driver/Src/stm32f1xx_hal_rcc.c ****   *            - HSI ON and used as system clock source
 190:Drivers/STM32F1xx_HAL_Driver/Src/stm32f1xx_hal_rcc.c ****   *            - HSE, PLL, PLL2 and PLL3 are OFF
 191:Drivers/STM32F1xx_HAL_Driver/Src/stm32f1xx_hal_rcc.c ****   *            - AHB, APB1 and APB2 prescaler set to 1.
 192:Drivers/STM32F1xx_HAL_Driver/Src/stm32f1xx_hal_rcc.c ****   *            - CSS and MCO1 OFF
 193:Drivers/STM32F1xx_HAL_Driver/Src/stm32f1xx_hal_rcc.c ****   *            - All interrupts disabled
 194:Drivers/STM32F1xx_HAL_Driver/Src/stm32f1xx_hal_rcc.c ****   *            - All flags are cleared
 195:Drivers/STM32F1xx_HAL_Driver/Src/stm32f1xx_hal_rcc.c ****   * @note   This function does not modify the configuration of the
 196:Drivers/STM32F1xx_HAL_Driver/Src/stm32f1xx_hal_rcc.c ****   *            - Peripheral clocks
 197:Drivers/STM32F1xx_HAL_Driver/Src/stm32f1xx_hal_rcc.c ****   *            - LSI, LSE and RTC clocks
 198:Drivers/STM32F1xx_HAL_Driver/Src/stm32f1xx_hal_rcc.c ****   * @retval HAL_StatusTypeDef
 199:Drivers/STM32F1xx_HAL_Driver/Src/stm32f1xx_hal_rcc.c ****   */
 200:Drivers/STM32F1xx_HAL_Driver/Src/stm32f1xx_hal_rcc.c **** HAL_StatusTypeDef HAL_RCC_DeInit(void)
 201:Drivers/STM32F1xx_HAL_Driver/Src/stm32f1xx_hal_rcc.c **** {
 202:Drivers/STM32F1xx_HAL_Driver/Src/stm32f1xx_hal_rcc.c ****   uint32_t tickstart;
 203:Drivers/STM32F1xx_HAL_Driver/Src/stm32f1xx_hal_rcc.c **** 
ARM GAS  C:\Users\begre\AppData\Local\Temp\ccwT0kAZ.s 			page 5


 204:Drivers/STM32F1xx_HAL_Driver/Src/stm32f1xx_hal_rcc.c ****   /* Get Start Tick */
 205:Drivers/STM32F1xx_HAL_Driver/Src/stm32f1xx_hal_rcc.c ****   tickstart = HAL_GetTick();
 206:Drivers/STM32F1xx_HAL_Driver/Src/stm32f1xx_hal_rcc.c **** 
 207:Drivers/STM32F1xx_HAL_Driver/Src/stm32f1xx_hal_rcc.c ****   /* Set HSION bit */
 208:Drivers/STM32F1xx_HAL_Driver/Src/stm32f1xx_hal_rcc.c ****   SET_BIT(RCC->CR, RCC_CR_HSION);
 209:Drivers/STM32F1xx_HAL_Driver/Src/stm32f1xx_hal_rcc.c **** 
 210:Drivers/STM32F1xx_HAL_Driver/Src/stm32f1xx_hal_rcc.c ****   /* Wait till HSI is ready */
 211:Drivers/STM32F1xx_HAL_Driver/Src/stm32f1xx_hal_rcc.c ****   while (READ_BIT(RCC->CR, RCC_CR_HSIRDY) == RESET)
 212:Drivers/STM32F1xx_HAL_Driver/Src/stm32f1xx_hal_rcc.c ****   {
 213:Drivers/STM32F1xx_HAL_Driver/Src/stm32f1xx_hal_rcc.c ****     if ((HAL_GetTick() - tickstart) > HSI_TIMEOUT_VALUE)
 214:Drivers/STM32F1xx_HAL_Driver/Src/stm32f1xx_hal_rcc.c ****     {
 215:Drivers/STM32F1xx_HAL_Driver/Src/stm32f1xx_hal_rcc.c ****       return HAL_TIMEOUT;
 216:Drivers/STM32F1xx_HAL_Driver/Src/stm32f1xx_hal_rcc.c ****     }
 217:Drivers/STM32F1xx_HAL_Driver/Src/stm32f1xx_hal_rcc.c ****   }
 218:Drivers/STM32F1xx_HAL_Driver/Src/stm32f1xx_hal_rcc.c **** 
 219:Drivers/STM32F1xx_HAL_Driver/Src/stm32f1xx_hal_rcc.c ****   /* Set HSITRIM bits to the reset value */
 220:Drivers/STM32F1xx_HAL_Driver/Src/stm32f1xx_hal_rcc.c ****   MODIFY_REG(RCC->CR, RCC_CR_HSITRIM, (0x10U << RCC_CR_HSITRIM_Pos));
 221:Drivers/STM32F1xx_HAL_Driver/Src/stm32f1xx_hal_rcc.c **** 
 222:Drivers/STM32F1xx_HAL_Driver/Src/stm32f1xx_hal_rcc.c ****   /* Get Start Tick */
 223:Drivers/STM32F1xx_HAL_Driver/Src/stm32f1xx_hal_rcc.c ****   tickstart = HAL_GetTick();
 224:Drivers/STM32F1xx_HAL_Driver/Src/stm32f1xx_hal_rcc.c **** 
 225:Drivers/STM32F1xx_HAL_Driver/Src/stm32f1xx_hal_rcc.c ****   /* Reset CFGR register */
 226:Drivers/STM32F1xx_HAL_Driver/Src/stm32f1xx_hal_rcc.c ****   CLEAR_REG(RCC->CFGR);
 227:Drivers/STM32F1xx_HAL_Driver/Src/stm32f1xx_hal_rcc.c **** 
 228:Drivers/STM32F1xx_HAL_Driver/Src/stm32f1xx_hal_rcc.c ****   /* Wait till clock switch is ready */
 229:Drivers/STM32F1xx_HAL_Driver/Src/stm32f1xx_hal_rcc.c ****   while (READ_BIT(RCC->CFGR, RCC_CFGR_SWS) != RESET)
 230:Drivers/STM32F1xx_HAL_Driver/Src/stm32f1xx_hal_rcc.c ****   {
 231:Drivers/STM32F1xx_HAL_Driver/Src/stm32f1xx_hal_rcc.c ****     if ((HAL_GetTick() - tickstart) > CLOCKSWITCH_TIMEOUT_VALUE)
 232:Drivers/STM32F1xx_HAL_Driver/Src/stm32f1xx_hal_rcc.c ****     {
 233:Drivers/STM32F1xx_HAL_Driver/Src/stm32f1xx_hal_rcc.c ****       return HAL_TIMEOUT;
 234:Drivers/STM32F1xx_HAL_Driver/Src/stm32f1xx_hal_rcc.c ****     }
 235:Drivers/STM32F1xx_HAL_Driver/Src/stm32f1xx_hal_rcc.c ****   }
 236:Drivers/STM32F1xx_HAL_Driver/Src/stm32f1xx_hal_rcc.c **** 
 237:Drivers/STM32F1xx_HAL_Driver/Src/stm32f1xx_hal_rcc.c ****   /* Update the SystemCoreClock global variable */
 238:Drivers/STM32F1xx_HAL_Driver/Src/stm32f1xx_hal_rcc.c ****   SystemCoreClock = HSI_VALUE;
 239:Drivers/STM32F1xx_HAL_Driver/Src/stm32f1xx_hal_rcc.c **** 
 240:Drivers/STM32F1xx_HAL_Driver/Src/stm32f1xx_hal_rcc.c ****   /* Adapt Systick interrupt period */
 241:Drivers/STM32F1xx_HAL_Driver/Src/stm32f1xx_hal_rcc.c ****   if (HAL_InitTick(uwTickPrio) != HAL_OK)
 242:Drivers/STM32F1xx_HAL_Driver/Src/stm32f1xx_hal_rcc.c ****   {
 243:Drivers/STM32F1xx_HAL_Driver/Src/stm32f1xx_hal_rcc.c ****     return HAL_ERROR;
 244:Drivers/STM32F1xx_HAL_Driver/Src/stm32f1xx_hal_rcc.c ****   }
 245:Drivers/STM32F1xx_HAL_Driver/Src/stm32f1xx_hal_rcc.c **** 
 246:Drivers/STM32F1xx_HAL_Driver/Src/stm32f1xx_hal_rcc.c ****   /* Get Start Tick */
 247:Drivers/STM32F1xx_HAL_Driver/Src/stm32f1xx_hal_rcc.c ****   tickstart = HAL_GetTick();
 248:Drivers/STM32F1xx_HAL_Driver/Src/stm32f1xx_hal_rcc.c **** 
 249:Drivers/STM32F1xx_HAL_Driver/Src/stm32f1xx_hal_rcc.c ****   /* Second step is to clear PLLON bit */
 250:Drivers/STM32F1xx_HAL_Driver/Src/stm32f1xx_hal_rcc.c ****   CLEAR_BIT(RCC->CR, RCC_CR_PLLON);
 251:Drivers/STM32F1xx_HAL_Driver/Src/stm32f1xx_hal_rcc.c **** 
 252:Drivers/STM32F1xx_HAL_Driver/Src/stm32f1xx_hal_rcc.c ****   /* Wait till PLL is disabled */
 253:Drivers/STM32F1xx_HAL_Driver/Src/stm32f1xx_hal_rcc.c ****   while (READ_BIT(RCC->CR, RCC_CR_PLLRDY) != RESET)
 254:Drivers/STM32F1xx_HAL_Driver/Src/stm32f1xx_hal_rcc.c ****   {
 255:Drivers/STM32F1xx_HAL_Driver/Src/stm32f1xx_hal_rcc.c ****     if ((HAL_GetTick() - tickstart) > PLL_TIMEOUT_VALUE)
 256:Drivers/STM32F1xx_HAL_Driver/Src/stm32f1xx_hal_rcc.c ****     {
 257:Drivers/STM32F1xx_HAL_Driver/Src/stm32f1xx_hal_rcc.c ****       return HAL_TIMEOUT;
 258:Drivers/STM32F1xx_HAL_Driver/Src/stm32f1xx_hal_rcc.c ****     }
 259:Drivers/STM32F1xx_HAL_Driver/Src/stm32f1xx_hal_rcc.c ****   }
 260:Drivers/STM32F1xx_HAL_Driver/Src/stm32f1xx_hal_rcc.c **** 
ARM GAS  C:\Users\begre\AppData\Local\Temp\ccwT0kAZ.s 			page 6


 261:Drivers/STM32F1xx_HAL_Driver/Src/stm32f1xx_hal_rcc.c ****   /* Ensure to reset PLLSRC and PLLMUL bits */
 262:Drivers/STM32F1xx_HAL_Driver/Src/stm32f1xx_hal_rcc.c ****   CLEAR_REG(RCC->CFGR);
 263:Drivers/STM32F1xx_HAL_Driver/Src/stm32f1xx_hal_rcc.c **** 
 264:Drivers/STM32F1xx_HAL_Driver/Src/stm32f1xx_hal_rcc.c ****   /* Get Start Tick */
 265:Drivers/STM32F1xx_HAL_Driver/Src/stm32f1xx_hal_rcc.c ****   tickstart = HAL_GetTick();
 266:Drivers/STM32F1xx_HAL_Driver/Src/stm32f1xx_hal_rcc.c **** 
 267:Drivers/STM32F1xx_HAL_Driver/Src/stm32f1xx_hal_rcc.c ****   /* Reset HSEON & CSSON bits */
 268:Drivers/STM32F1xx_HAL_Driver/Src/stm32f1xx_hal_rcc.c ****   CLEAR_BIT(RCC->CR, RCC_CR_HSEON | RCC_CR_CSSON);
 269:Drivers/STM32F1xx_HAL_Driver/Src/stm32f1xx_hal_rcc.c **** 
 270:Drivers/STM32F1xx_HAL_Driver/Src/stm32f1xx_hal_rcc.c ****   /* Wait till HSE is disabled */
 271:Drivers/STM32F1xx_HAL_Driver/Src/stm32f1xx_hal_rcc.c ****   while (READ_BIT(RCC->CR, RCC_CR_HSERDY) != RESET)
 272:Drivers/STM32F1xx_HAL_Driver/Src/stm32f1xx_hal_rcc.c ****   {
 273:Drivers/STM32F1xx_HAL_Driver/Src/stm32f1xx_hal_rcc.c ****     if ((HAL_GetTick() - tickstart) > HSE_TIMEOUT_VALUE)
 274:Drivers/STM32F1xx_HAL_Driver/Src/stm32f1xx_hal_rcc.c ****     {
 275:Drivers/STM32F1xx_HAL_Driver/Src/stm32f1xx_hal_rcc.c ****       return HAL_TIMEOUT;
 276:Drivers/STM32F1xx_HAL_Driver/Src/stm32f1xx_hal_rcc.c ****     }
 277:Drivers/STM32F1xx_HAL_Driver/Src/stm32f1xx_hal_rcc.c ****   }
 278:Drivers/STM32F1xx_HAL_Driver/Src/stm32f1xx_hal_rcc.c **** 
 279:Drivers/STM32F1xx_HAL_Driver/Src/stm32f1xx_hal_rcc.c ****   /* Reset HSEBYP bit */
 280:Drivers/STM32F1xx_HAL_Driver/Src/stm32f1xx_hal_rcc.c ****   CLEAR_BIT(RCC->CR, RCC_CR_HSEBYP);
 281:Drivers/STM32F1xx_HAL_Driver/Src/stm32f1xx_hal_rcc.c **** 
 282:Drivers/STM32F1xx_HAL_Driver/Src/stm32f1xx_hal_rcc.c **** #if defined(RCC_PLL2_SUPPORT)
 283:Drivers/STM32F1xx_HAL_Driver/Src/stm32f1xx_hal_rcc.c ****   /* Get Start Tick */
 284:Drivers/STM32F1xx_HAL_Driver/Src/stm32f1xx_hal_rcc.c ****   tickstart = HAL_GetTick();
 285:Drivers/STM32F1xx_HAL_Driver/Src/stm32f1xx_hal_rcc.c **** 
 286:Drivers/STM32F1xx_HAL_Driver/Src/stm32f1xx_hal_rcc.c ****   /* Clear PLL2ON bit */
 287:Drivers/STM32F1xx_HAL_Driver/Src/stm32f1xx_hal_rcc.c ****   CLEAR_BIT(RCC->CR, RCC_CR_PLL2ON);
 288:Drivers/STM32F1xx_HAL_Driver/Src/stm32f1xx_hal_rcc.c **** 
 289:Drivers/STM32F1xx_HAL_Driver/Src/stm32f1xx_hal_rcc.c ****   /* Wait till PLL2 is disabled */
 290:Drivers/STM32F1xx_HAL_Driver/Src/stm32f1xx_hal_rcc.c ****   while (READ_BIT(RCC->CR, RCC_CR_PLL2RDY) != RESET)
 291:Drivers/STM32F1xx_HAL_Driver/Src/stm32f1xx_hal_rcc.c ****   {
 292:Drivers/STM32F1xx_HAL_Driver/Src/stm32f1xx_hal_rcc.c ****     if ((HAL_GetTick() - tickstart) > PLL2_TIMEOUT_VALUE)
 293:Drivers/STM32F1xx_HAL_Driver/Src/stm32f1xx_hal_rcc.c ****     {
 294:Drivers/STM32F1xx_HAL_Driver/Src/stm32f1xx_hal_rcc.c ****       return HAL_TIMEOUT;
 295:Drivers/STM32F1xx_HAL_Driver/Src/stm32f1xx_hal_rcc.c ****     }
 296:Drivers/STM32F1xx_HAL_Driver/Src/stm32f1xx_hal_rcc.c ****   }
 297:Drivers/STM32F1xx_HAL_Driver/Src/stm32f1xx_hal_rcc.c **** #endif /* RCC_PLL2_SUPPORT */
 298:Drivers/STM32F1xx_HAL_Driver/Src/stm32f1xx_hal_rcc.c **** 
 299:Drivers/STM32F1xx_HAL_Driver/Src/stm32f1xx_hal_rcc.c **** #if defined(RCC_PLLI2S_SUPPORT)
 300:Drivers/STM32F1xx_HAL_Driver/Src/stm32f1xx_hal_rcc.c ****   /* Get Start Tick */
 301:Drivers/STM32F1xx_HAL_Driver/Src/stm32f1xx_hal_rcc.c ****   tickstart = HAL_GetTick();
 302:Drivers/STM32F1xx_HAL_Driver/Src/stm32f1xx_hal_rcc.c **** 
 303:Drivers/STM32F1xx_HAL_Driver/Src/stm32f1xx_hal_rcc.c ****   /* Clear PLL3ON bit */
 304:Drivers/STM32F1xx_HAL_Driver/Src/stm32f1xx_hal_rcc.c ****   CLEAR_BIT(RCC->CR, RCC_CR_PLL3ON);
 305:Drivers/STM32F1xx_HAL_Driver/Src/stm32f1xx_hal_rcc.c **** 
 306:Drivers/STM32F1xx_HAL_Driver/Src/stm32f1xx_hal_rcc.c ****   /* Wait till PLL3 is disabled */
 307:Drivers/STM32F1xx_HAL_Driver/Src/stm32f1xx_hal_rcc.c ****   while (READ_BIT(RCC->CR, RCC_CR_PLL3RDY) != RESET)
 308:Drivers/STM32F1xx_HAL_Driver/Src/stm32f1xx_hal_rcc.c ****   {
 309:Drivers/STM32F1xx_HAL_Driver/Src/stm32f1xx_hal_rcc.c ****     if ((HAL_GetTick() - tickstart) > PLLI2S_TIMEOUT_VALUE)
 310:Drivers/STM32F1xx_HAL_Driver/Src/stm32f1xx_hal_rcc.c ****     {
 311:Drivers/STM32F1xx_HAL_Driver/Src/stm32f1xx_hal_rcc.c ****       return HAL_TIMEOUT;
 312:Drivers/STM32F1xx_HAL_Driver/Src/stm32f1xx_hal_rcc.c ****     }
 313:Drivers/STM32F1xx_HAL_Driver/Src/stm32f1xx_hal_rcc.c ****   }
 314:Drivers/STM32F1xx_HAL_Driver/Src/stm32f1xx_hal_rcc.c **** #endif /* RCC_PLLI2S_SUPPORT */
 315:Drivers/STM32F1xx_HAL_Driver/Src/stm32f1xx_hal_rcc.c **** 
 316:Drivers/STM32F1xx_HAL_Driver/Src/stm32f1xx_hal_rcc.c **** #if defined(RCC_CFGR2_PREDIV1)
 317:Drivers/STM32F1xx_HAL_Driver/Src/stm32f1xx_hal_rcc.c ****   /* Reset CFGR2 register */
ARM GAS  C:\Users\begre\AppData\Local\Temp\ccwT0kAZ.s 			page 7


 318:Drivers/STM32F1xx_HAL_Driver/Src/stm32f1xx_hal_rcc.c ****   CLEAR_REG(RCC->CFGR2);
 319:Drivers/STM32F1xx_HAL_Driver/Src/stm32f1xx_hal_rcc.c **** #endif /* RCC_CFGR2_PREDIV1 */
 320:Drivers/STM32F1xx_HAL_Driver/Src/stm32f1xx_hal_rcc.c **** 
 321:Drivers/STM32F1xx_HAL_Driver/Src/stm32f1xx_hal_rcc.c ****   /* Reset all CSR flags */
 322:Drivers/STM32F1xx_HAL_Driver/Src/stm32f1xx_hal_rcc.c ****   SET_BIT(RCC->CSR, RCC_CSR_RMVF);
 323:Drivers/STM32F1xx_HAL_Driver/Src/stm32f1xx_hal_rcc.c **** 
 324:Drivers/STM32F1xx_HAL_Driver/Src/stm32f1xx_hal_rcc.c ****   /* Disable all interrupts */
 325:Drivers/STM32F1xx_HAL_Driver/Src/stm32f1xx_hal_rcc.c ****   CLEAR_REG(RCC->CIR);
 326:Drivers/STM32F1xx_HAL_Driver/Src/stm32f1xx_hal_rcc.c **** 
 327:Drivers/STM32F1xx_HAL_Driver/Src/stm32f1xx_hal_rcc.c ****   return HAL_OK;
 328:Drivers/STM32F1xx_HAL_Driver/Src/stm32f1xx_hal_rcc.c **** }
 329:Drivers/STM32F1xx_HAL_Driver/Src/stm32f1xx_hal_rcc.c **** 
 330:Drivers/STM32F1xx_HAL_Driver/Src/stm32f1xx_hal_rcc.c **** /**
 331:Drivers/STM32F1xx_HAL_Driver/Src/stm32f1xx_hal_rcc.c ****   * @brief  Initializes the RCC Oscillators according to the specified parameters in the
 332:Drivers/STM32F1xx_HAL_Driver/Src/stm32f1xx_hal_rcc.c ****   *         RCC_OscInitTypeDef.
 333:Drivers/STM32F1xx_HAL_Driver/Src/stm32f1xx_hal_rcc.c ****   * @param  RCC_OscInitStruct pointer to an RCC_OscInitTypeDef structure that
 334:Drivers/STM32F1xx_HAL_Driver/Src/stm32f1xx_hal_rcc.c ****   *         contains the configuration information for the RCC Oscillators.
 335:Drivers/STM32F1xx_HAL_Driver/Src/stm32f1xx_hal_rcc.c ****   * @note   The PLL is not disabled when used as system clock.
 336:Drivers/STM32F1xx_HAL_Driver/Src/stm32f1xx_hal_rcc.c ****   * @note   The PLL is not disabled when USB OTG FS clock is enabled (specific to devices with USB 
 337:Drivers/STM32F1xx_HAL_Driver/Src/stm32f1xx_hal_rcc.c ****   * @note   Transitions LSE Bypass to LSE On and LSE On to LSE Bypass are not
 338:Drivers/STM32F1xx_HAL_Driver/Src/stm32f1xx_hal_rcc.c ****   *         supported by this macro. User should request a transition to LSE Off
 339:Drivers/STM32F1xx_HAL_Driver/Src/stm32f1xx_hal_rcc.c ****   *         first and then LSE On or LSE Bypass.
 340:Drivers/STM32F1xx_HAL_Driver/Src/stm32f1xx_hal_rcc.c ****   * @note   Transition HSE Bypass to HSE On and HSE On to HSE Bypass are not
 341:Drivers/STM32F1xx_HAL_Driver/Src/stm32f1xx_hal_rcc.c ****   *         supported by this macro. User should request a transition to HSE Off
 342:Drivers/STM32F1xx_HAL_Driver/Src/stm32f1xx_hal_rcc.c ****   *         first and then HSE On or HSE Bypass.
 343:Drivers/STM32F1xx_HAL_Driver/Src/stm32f1xx_hal_rcc.c ****   * @retval HAL status
 344:Drivers/STM32F1xx_HAL_Driver/Src/stm32f1xx_hal_rcc.c ****   */
 345:Drivers/STM32F1xx_HAL_Driver/Src/stm32f1xx_hal_rcc.c **** HAL_StatusTypeDef HAL_RCC_OscConfig(RCC_OscInitTypeDef  *RCC_OscInitStruct)
 346:Drivers/STM32F1xx_HAL_Driver/Src/stm32f1xx_hal_rcc.c **** {
 347:Drivers/STM32F1xx_HAL_Driver/Src/stm32f1xx_hal_rcc.c ****   uint32_t tickstart;
 348:Drivers/STM32F1xx_HAL_Driver/Src/stm32f1xx_hal_rcc.c ****   uint32_t pll_config;
 349:Drivers/STM32F1xx_HAL_Driver/Src/stm32f1xx_hal_rcc.c **** 
 350:Drivers/STM32F1xx_HAL_Driver/Src/stm32f1xx_hal_rcc.c ****   /* Check Null pointer */
 351:Drivers/STM32F1xx_HAL_Driver/Src/stm32f1xx_hal_rcc.c ****   if (RCC_OscInitStruct == NULL)
 352:Drivers/STM32F1xx_HAL_Driver/Src/stm32f1xx_hal_rcc.c ****   {
 353:Drivers/STM32F1xx_HAL_Driver/Src/stm32f1xx_hal_rcc.c ****     return HAL_ERROR;
 354:Drivers/STM32F1xx_HAL_Driver/Src/stm32f1xx_hal_rcc.c ****   }
 355:Drivers/STM32F1xx_HAL_Driver/Src/stm32f1xx_hal_rcc.c **** 
 356:Drivers/STM32F1xx_HAL_Driver/Src/stm32f1xx_hal_rcc.c ****   /* Check the parameters */
 357:Drivers/STM32F1xx_HAL_Driver/Src/stm32f1xx_hal_rcc.c ****   assert_param(IS_RCC_OSCILLATORTYPE(RCC_OscInitStruct->OscillatorType));
 358:Drivers/STM32F1xx_HAL_Driver/Src/stm32f1xx_hal_rcc.c **** 
 359:Drivers/STM32F1xx_HAL_Driver/Src/stm32f1xx_hal_rcc.c ****   /*------------------------------- HSE Configuration ------------------------*/
 360:Drivers/STM32F1xx_HAL_Driver/Src/stm32f1xx_hal_rcc.c ****   if (((RCC_OscInitStruct->OscillatorType) & RCC_OSCILLATORTYPE_HSE) == RCC_OSCILLATORTYPE_HSE)
 361:Drivers/STM32F1xx_HAL_Driver/Src/stm32f1xx_hal_rcc.c ****   {
 362:Drivers/STM32F1xx_HAL_Driver/Src/stm32f1xx_hal_rcc.c ****     /* Check the parameters */
 363:Drivers/STM32F1xx_HAL_Driver/Src/stm32f1xx_hal_rcc.c ****     assert_param(IS_RCC_HSE(RCC_OscInitStruct->HSEState));
 364:Drivers/STM32F1xx_HAL_Driver/Src/stm32f1xx_hal_rcc.c **** 
 365:Drivers/STM32F1xx_HAL_Driver/Src/stm32f1xx_hal_rcc.c ****     /* When the HSE is used as system clock or clock source for PLL in these cases it is not allowe
 366:Drivers/STM32F1xx_HAL_Driver/Src/stm32f1xx_hal_rcc.c ****     if ((__HAL_RCC_GET_SYSCLK_SOURCE() == RCC_SYSCLKSOURCE_STATUS_HSE)
 367:Drivers/STM32F1xx_HAL_Driver/Src/stm32f1xx_hal_rcc.c ****         || ((__HAL_RCC_GET_SYSCLK_SOURCE() == RCC_SYSCLKSOURCE_STATUS_PLLCLK) && (__HAL_RCC_GET_PLL
 368:Drivers/STM32F1xx_HAL_Driver/Src/stm32f1xx_hal_rcc.c ****     {
 369:Drivers/STM32F1xx_HAL_Driver/Src/stm32f1xx_hal_rcc.c ****       if ((__HAL_RCC_GET_FLAG(RCC_FLAG_HSERDY) != RESET) && (RCC_OscInitStruct->HSEState == RCC_HSE
 370:Drivers/STM32F1xx_HAL_Driver/Src/stm32f1xx_hal_rcc.c ****       {
 371:Drivers/STM32F1xx_HAL_Driver/Src/stm32f1xx_hal_rcc.c ****         return HAL_ERROR;
 372:Drivers/STM32F1xx_HAL_Driver/Src/stm32f1xx_hal_rcc.c ****       }
 373:Drivers/STM32F1xx_HAL_Driver/Src/stm32f1xx_hal_rcc.c ****     }
 374:Drivers/STM32F1xx_HAL_Driver/Src/stm32f1xx_hal_rcc.c ****     else
ARM GAS  C:\Users\begre\AppData\Local\Temp\ccwT0kAZ.s 			page 8


 375:Drivers/STM32F1xx_HAL_Driver/Src/stm32f1xx_hal_rcc.c ****     {
 376:Drivers/STM32F1xx_HAL_Driver/Src/stm32f1xx_hal_rcc.c ****       /* Set the new HSE configuration ---------------------------------------*/
 377:Drivers/STM32F1xx_HAL_Driver/Src/stm32f1xx_hal_rcc.c ****       __HAL_RCC_HSE_CONFIG(RCC_OscInitStruct->HSEState);
 378:Drivers/STM32F1xx_HAL_Driver/Src/stm32f1xx_hal_rcc.c **** 
 379:Drivers/STM32F1xx_HAL_Driver/Src/stm32f1xx_hal_rcc.c **** 
 380:Drivers/STM32F1xx_HAL_Driver/Src/stm32f1xx_hal_rcc.c ****       /* Check the HSE State */
 381:Drivers/STM32F1xx_HAL_Driver/Src/stm32f1xx_hal_rcc.c ****       if (RCC_OscInitStruct->HSEState != RCC_HSE_OFF)
 382:Drivers/STM32F1xx_HAL_Driver/Src/stm32f1xx_hal_rcc.c ****       {
 383:Drivers/STM32F1xx_HAL_Driver/Src/stm32f1xx_hal_rcc.c ****         /* Get Start Tick */
 384:Drivers/STM32F1xx_HAL_Driver/Src/stm32f1xx_hal_rcc.c ****         tickstart = HAL_GetTick();
 385:Drivers/STM32F1xx_HAL_Driver/Src/stm32f1xx_hal_rcc.c **** 
 386:Drivers/STM32F1xx_HAL_Driver/Src/stm32f1xx_hal_rcc.c ****         /* Wait till HSE is ready */
 387:Drivers/STM32F1xx_HAL_Driver/Src/stm32f1xx_hal_rcc.c ****         while (__HAL_RCC_GET_FLAG(RCC_FLAG_HSERDY) == RESET)
 388:Drivers/STM32F1xx_HAL_Driver/Src/stm32f1xx_hal_rcc.c ****         {
 389:Drivers/STM32F1xx_HAL_Driver/Src/stm32f1xx_hal_rcc.c ****           if ((HAL_GetTick() - tickstart) > HSE_TIMEOUT_VALUE)
 390:Drivers/STM32F1xx_HAL_Driver/Src/stm32f1xx_hal_rcc.c ****           {
 391:Drivers/STM32F1xx_HAL_Driver/Src/stm32f1xx_hal_rcc.c ****             return HAL_TIMEOUT;
 392:Drivers/STM32F1xx_HAL_Driver/Src/stm32f1xx_hal_rcc.c ****           }
 393:Drivers/STM32F1xx_HAL_Driver/Src/stm32f1xx_hal_rcc.c ****         }
 394:Drivers/STM32F1xx_HAL_Driver/Src/stm32f1xx_hal_rcc.c ****       }
 395:Drivers/STM32F1xx_HAL_Driver/Src/stm32f1xx_hal_rcc.c ****       else
 396:Drivers/STM32F1xx_HAL_Driver/Src/stm32f1xx_hal_rcc.c ****       {
 397:Drivers/STM32F1xx_HAL_Driver/Src/stm32f1xx_hal_rcc.c ****         /* Get Start Tick */
 398:Drivers/STM32F1xx_HAL_Driver/Src/stm32f1xx_hal_rcc.c ****         tickstart = HAL_GetTick();
 399:Drivers/STM32F1xx_HAL_Driver/Src/stm32f1xx_hal_rcc.c **** 
 400:Drivers/STM32F1xx_HAL_Driver/Src/stm32f1xx_hal_rcc.c ****         /* Wait till HSE is disabled */
 401:Drivers/STM32F1xx_HAL_Driver/Src/stm32f1xx_hal_rcc.c ****         while (__HAL_RCC_GET_FLAG(RCC_FLAG_HSERDY) != RESET)
 402:Drivers/STM32F1xx_HAL_Driver/Src/stm32f1xx_hal_rcc.c ****         {
 403:Drivers/STM32F1xx_HAL_Driver/Src/stm32f1xx_hal_rcc.c ****           if ((HAL_GetTick() - tickstart) > HSE_TIMEOUT_VALUE)
 404:Drivers/STM32F1xx_HAL_Driver/Src/stm32f1xx_hal_rcc.c ****           {
 405:Drivers/STM32F1xx_HAL_Driver/Src/stm32f1xx_hal_rcc.c ****             return HAL_TIMEOUT;
 406:Drivers/STM32F1xx_HAL_Driver/Src/stm32f1xx_hal_rcc.c ****           }
 407:Drivers/STM32F1xx_HAL_Driver/Src/stm32f1xx_hal_rcc.c ****         }
 408:Drivers/STM32F1xx_HAL_Driver/Src/stm32f1xx_hal_rcc.c ****       }
 409:Drivers/STM32F1xx_HAL_Driver/Src/stm32f1xx_hal_rcc.c ****     }
 410:Drivers/STM32F1xx_HAL_Driver/Src/stm32f1xx_hal_rcc.c ****   }
 411:Drivers/STM32F1xx_HAL_Driver/Src/stm32f1xx_hal_rcc.c ****   /*----------------------------- HSI Configuration --------------------------*/
 412:Drivers/STM32F1xx_HAL_Driver/Src/stm32f1xx_hal_rcc.c ****   if (((RCC_OscInitStruct->OscillatorType) & RCC_OSCILLATORTYPE_HSI) == RCC_OSCILLATORTYPE_HSI)
 413:Drivers/STM32F1xx_HAL_Driver/Src/stm32f1xx_hal_rcc.c ****   {
 414:Drivers/STM32F1xx_HAL_Driver/Src/stm32f1xx_hal_rcc.c ****     /* Check the parameters */
 415:Drivers/STM32F1xx_HAL_Driver/Src/stm32f1xx_hal_rcc.c ****     assert_param(IS_RCC_HSI(RCC_OscInitStruct->HSIState));
 416:Drivers/STM32F1xx_HAL_Driver/Src/stm32f1xx_hal_rcc.c ****     assert_param(IS_RCC_CALIBRATION_VALUE(RCC_OscInitStruct->HSICalibrationValue));
 417:Drivers/STM32F1xx_HAL_Driver/Src/stm32f1xx_hal_rcc.c **** 
 418:Drivers/STM32F1xx_HAL_Driver/Src/stm32f1xx_hal_rcc.c ****     /* Check if HSI is used as system clock or as PLL source when PLL is selected as system clock *
 419:Drivers/STM32F1xx_HAL_Driver/Src/stm32f1xx_hal_rcc.c ****     if ((__HAL_RCC_GET_SYSCLK_SOURCE() == RCC_SYSCLKSOURCE_STATUS_HSI)
 420:Drivers/STM32F1xx_HAL_Driver/Src/stm32f1xx_hal_rcc.c ****         || ((__HAL_RCC_GET_SYSCLK_SOURCE() == RCC_SYSCLKSOURCE_STATUS_PLLCLK) && (__HAL_RCC_GET_PLL
 421:Drivers/STM32F1xx_HAL_Driver/Src/stm32f1xx_hal_rcc.c ****     {
 422:Drivers/STM32F1xx_HAL_Driver/Src/stm32f1xx_hal_rcc.c ****       /* When HSI is used as system clock it will not disabled */
 423:Drivers/STM32F1xx_HAL_Driver/Src/stm32f1xx_hal_rcc.c ****       if ((__HAL_RCC_GET_FLAG(RCC_FLAG_HSIRDY) != RESET) && (RCC_OscInitStruct->HSIState != RCC_HSI
 424:Drivers/STM32F1xx_HAL_Driver/Src/stm32f1xx_hal_rcc.c ****       {
 425:Drivers/STM32F1xx_HAL_Driver/Src/stm32f1xx_hal_rcc.c ****         return HAL_ERROR;
 426:Drivers/STM32F1xx_HAL_Driver/Src/stm32f1xx_hal_rcc.c ****       }
 427:Drivers/STM32F1xx_HAL_Driver/Src/stm32f1xx_hal_rcc.c ****       /* Otherwise, just the calibration is allowed */
 428:Drivers/STM32F1xx_HAL_Driver/Src/stm32f1xx_hal_rcc.c ****       else
 429:Drivers/STM32F1xx_HAL_Driver/Src/stm32f1xx_hal_rcc.c ****       {
 430:Drivers/STM32F1xx_HAL_Driver/Src/stm32f1xx_hal_rcc.c ****         /* Adjusts the Internal High Speed oscillator (HSI) calibration value.*/
 431:Drivers/STM32F1xx_HAL_Driver/Src/stm32f1xx_hal_rcc.c ****         __HAL_RCC_HSI_CALIBRATIONVALUE_ADJUST(RCC_OscInitStruct->HSICalibrationValue);
ARM GAS  C:\Users\begre\AppData\Local\Temp\ccwT0kAZ.s 			page 9


 432:Drivers/STM32F1xx_HAL_Driver/Src/stm32f1xx_hal_rcc.c ****       }
 433:Drivers/STM32F1xx_HAL_Driver/Src/stm32f1xx_hal_rcc.c ****     }
 434:Drivers/STM32F1xx_HAL_Driver/Src/stm32f1xx_hal_rcc.c ****     else
 435:Drivers/STM32F1xx_HAL_Driver/Src/stm32f1xx_hal_rcc.c ****     {
 436:Drivers/STM32F1xx_HAL_Driver/Src/stm32f1xx_hal_rcc.c ****       /* Check the HSI State */
 437:Drivers/STM32F1xx_HAL_Driver/Src/stm32f1xx_hal_rcc.c ****       if (RCC_OscInitStruct->HSIState != RCC_HSI_OFF)
 438:Drivers/STM32F1xx_HAL_Driver/Src/stm32f1xx_hal_rcc.c ****       {
 439:Drivers/STM32F1xx_HAL_Driver/Src/stm32f1xx_hal_rcc.c ****         /* Enable the Internal High Speed oscillator (HSI). */
 440:Drivers/STM32F1xx_HAL_Driver/Src/stm32f1xx_hal_rcc.c ****         __HAL_RCC_HSI_ENABLE();
 441:Drivers/STM32F1xx_HAL_Driver/Src/stm32f1xx_hal_rcc.c **** 
 442:Drivers/STM32F1xx_HAL_Driver/Src/stm32f1xx_hal_rcc.c ****         /* Get Start Tick */
 443:Drivers/STM32F1xx_HAL_Driver/Src/stm32f1xx_hal_rcc.c ****         tickstart = HAL_GetTick();
 444:Drivers/STM32F1xx_HAL_Driver/Src/stm32f1xx_hal_rcc.c **** 
 445:Drivers/STM32F1xx_HAL_Driver/Src/stm32f1xx_hal_rcc.c ****         /* Wait till HSI is ready */
 446:Drivers/STM32F1xx_HAL_Driver/Src/stm32f1xx_hal_rcc.c ****         while (__HAL_RCC_GET_FLAG(RCC_FLAG_HSIRDY) == RESET)
 447:Drivers/STM32F1xx_HAL_Driver/Src/stm32f1xx_hal_rcc.c ****         {
 448:Drivers/STM32F1xx_HAL_Driver/Src/stm32f1xx_hal_rcc.c ****           if ((HAL_GetTick() - tickstart) > HSI_TIMEOUT_VALUE)
 449:Drivers/STM32F1xx_HAL_Driver/Src/stm32f1xx_hal_rcc.c ****           {
 450:Drivers/STM32F1xx_HAL_Driver/Src/stm32f1xx_hal_rcc.c ****             return HAL_TIMEOUT;
 451:Drivers/STM32F1xx_HAL_Driver/Src/stm32f1xx_hal_rcc.c ****           }
 452:Drivers/STM32F1xx_HAL_Driver/Src/stm32f1xx_hal_rcc.c ****         }
 453:Drivers/STM32F1xx_HAL_Driver/Src/stm32f1xx_hal_rcc.c **** 
 454:Drivers/STM32F1xx_HAL_Driver/Src/stm32f1xx_hal_rcc.c ****         /* Adjusts the Internal High Speed oscillator (HSI) calibration value.*/
 455:Drivers/STM32F1xx_HAL_Driver/Src/stm32f1xx_hal_rcc.c ****         __HAL_RCC_HSI_CALIBRATIONVALUE_ADJUST(RCC_OscInitStruct->HSICalibrationValue);
 456:Drivers/STM32F1xx_HAL_Driver/Src/stm32f1xx_hal_rcc.c ****       }
 457:Drivers/STM32F1xx_HAL_Driver/Src/stm32f1xx_hal_rcc.c ****       else
 458:Drivers/STM32F1xx_HAL_Driver/Src/stm32f1xx_hal_rcc.c ****       {
 459:Drivers/STM32F1xx_HAL_Driver/Src/stm32f1xx_hal_rcc.c ****         /* Disable the Internal High Speed oscillator (HSI). */
 460:Drivers/STM32F1xx_HAL_Driver/Src/stm32f1xx_hal_rcc.c ****         __HAL_RCC_HSI_DISABLE();
 461:Drivers/STM32F1xx_HAL_Driver/Src/stm32f1xx_hal_rcc.c **** 
 462:Drivers/STM32F1xx_HAL_Driver/Src/stm32f1xx_hal_rcc.c ****         /* Get Start Tick */
 463:Drivers/STM32F1xx_HAL_Driver/Src/stm32f1xx_hal_rcc.c ****         tickstart = HAL_GetTick();
 464:Drivers/STM32F1xx_HAL_Driver/Src/stm32f1xx_hal_rcc.c **** 
 465:Drivers/STM32F1xx_HAL_Driver/Src/stm32f1xx_hal_rcc.c ****         /* Wait till HSI is disabled */
 466:Drivers/STM32F1xx_HAL_Driver/Src/stm32f1xx_hal_rcc.c ****         while (__HAL_RCC_GET_FLAG(RCC_FLAG_HSIRDY) != RESET)
 467:Drivers/STM32F1xx_HAL_Driver/Src/stm32f1xx_hal_rcc.c ****         {
 468:Drivers/STM32F1xx_HAL_Driver/Src/stm32f1xx_hal_rcc.c ****           if ((HAL_GetTick() - tickstart) > HSI_TIMEOUT_VALUE)
 469:Drivers/STM32F1xx_HAL_Driver/Src/stm32f1xx_hal_rcc.c ****           {
 470:Drivers/STM32F1xx_HAL_Driver/Src/stm32f1xx_hal_rcc.c ****             return HAL_TIMEOUT;
 471:Drivers/STM32F1xx_HAL_Driver/Src/stm32f1xx_hal_rcc.c ****           }
 472:Drivers/STM32F1xx_HAL_Driver/Src/stm32f1xx_hal_rcc.c ****         }
 473:Drivers/STM32F1xx_HAL_Driver/Src/stm32f1xx_hal_rcc.c ****       }
 474:Drivers/STM32F1xx_HAL_Driver/Src/stm32f1xx_hal_rcc.c ****     }
 475:Drivers/STM32F1xx_HAL_Driver/Src/stm32f1xx_hal_rcc.c ****   }
 476:Drivers/STM32F1xx_HAL_Driver/Src/stm32f1xx_hal_rcc.c ****   /*------------------------------ LSI Configuration -------------------------*/
 477:Drivers/STM32F1xx_HAL_Driver/Src/stm32f1xx_hal_rcc.c ****   if (((RCC_OscInitStruct->OscillatorType) & RCC_OSCILLATORTYPE_LSI) == RCC_OSCILLATORTYPE_LSI)
 478:Drivers/STM32F1xx_HAL_Driver/Src/stm32f1xx_hal_rcc.c ****   {
 479:Drivers/STM32F1xx_HAL_Driver/Src/stm32f1xx_hal_rcc.c ****     /* Check the parameters */
 480:Drivers/STM32F1xx_HAL_Driver/Src/stm32f1xx_hal_rcc.c ****     assert_param(IS_RCC_LSI(RCC_OscInitStruct->LSIState));
 481:Drivers/STM32F1xx_HAL_Driver/Src/stm32f1xx_hal_rcc.c **** 
 482:Drivers/STM32F1xx_HAL_Driver/Src/stm32f1xx_hal_rcc.c ****     /* Check the LSI State */
 483:Drivers/STM32F1xx_HAL_Driver/Src/stm32f1xx_hal_rcc.c ****     if (RCC_OscInitStruct->LSIState != RCC_LSI_OFF)
 484:Drivers/STM32F1xx_HAL_Driver/Src/stm32f1xx_hal_rcc.c ****     {
 485:Drivers/STM32F1xx_HAL_Driver/Src/stm32f1xx_hal_rcc.c ****       /* Enable the Internal Low Speed oscillator (LSI). */
 486:Drivers/STM32F1xx_HAL_Driver/Src/stm32f1xx_hal_rcc.c ****       __HAL_RCC_LSI_ENABLE();
 487:Drivers/STM32F1xx_HAL_Driver/Src/stm32f1xx_hal_rcc.c **** 
 488:Drivers/STM32F1xx_HAL_Driver/Src/stm32f1xx_hal_rcc.c ****       /* Get Start Tick */
ARM GAS  C:\Users\begre\AppData\Local\Temp\ccwT0kAZ.s 			page 10


 489:Drivers/STM32F1xx_HAL_Driver/Src/stm32f1xx_hal_rcc.c ****       tickstart = HAL_GetTick();
 490:Drivers/STM32F1xx_HAL_Driver/Src/stm32f1xx_hal_rcc.c **** 
 491:Drivers/STM32F1xx_HAL_Driver/Src/stm32f1xx_hal_rcc.c ****       /* Wait till LSI is ready */
 492:Drivers/STM32F1xx_HAL_Driver/Src/stm32f1xx_hal_rcc.c ****       while (__HAL_RCC_GET_FLAG(RCC_FLAG_LSIRDY) == RESET)
 493:Drivers/STM32F1xx_HAL_Driver/Src/stm32f1xx_hal_rcc.c ****       {
 494:Drivers/STM32F1xx_HAL_Driver/Src/stm32f1xx_hal_rcc.c ****         if ((HAL_GetTick() - tickstart) > LSI_TIMEOUT_VALUE)
 495:Drivers/STM32F1xx_HAL_Driver/Src/stm32f1xx_hal_rcc.c ****         {
 496:Drivers/STM32F1xx_HAL_Driver/Src/stm32f1xx_hal_rcc.c ****           return HAL_TIMEOUT;
 497:Drivers/STM32F1xx_HAL_Driver/Src/stm32f1xx_hal_rcc.c ****         }
 498:Drivers/STM32F1xx_HAL_Driver/Src/stm32f1xx_hal_rcc.c ****       }
 499:Drivers/STM32F1xx_HAL_Driver/Src/stm32f1xx_hal_rcc.c ****       /*  To have a fully stabilized clock in the specified range, a software delay of 1ms
 500:Drivers/STM32F1xx_HAL_Driver/Src/stm32f1xx_hal_rcc.c ****           should be added.*/
 501:Drivers/STM32F1xx_HAL_Driver/Src/stm32f1xx_hal_rcc.c ****       RCC_Delay(1);
 502:Drivers/STM32F1xx_HAL_Driver/Src/stm32f1xx_hal_rcc.c ****     }
 503:Drivers/STM32F1xx_HAL_Driver/Src/stm32f1xx_hal_rcc.c ****     else
 504:Drivers/STM32F1xx_HAL_Driver/Src/stm32f1xx_hal_rcc.c ****     {
 505:Drivers/STM32F1xx_HAL_Driver/Src/stm32f1xx_hal_rcc.c ****       /* Disable the Internal Low Speed oscillator (LSI). */
 506:Drivers/STM32F1xx_HAL_Driver/Src/stm32f1xx_hal_rcc.c ****       __HAL_RCC_LSI_DISABLE();
 507:Drivers/STM32F1xx_HAL_Driver/Src/stm32f1xx_hal_rcc.c **** 
 508:Drivers/STM32F1xx_HAL_Driver/Src/stm32f1xx_hal_rcc.c ****       /* Get Start Tick */
 509:Drivers/STM32F1xx_HAL_Driver/Src/stm32f1xx_hal_rcc.c ****       tickstart = HAL_GetTick();
 510:Drivers/STM32F1xx_HAL_Driver/Src/stm32f1xx_hal_rcc.c **** 
 511:Drivers/STM32F1xx_HAL_Driver/Src/stm32f1xx_hal_rcc.c ****       /* Wait till LSI is disabled */
 512:Drivers/STM32F1xx_HAL_Driver/Src/stm32f1xx_hal_rcc.c ****       while (__HAL_RCC_GET_FLAG(RCC_FLAG_LSIRDY) != RESET)
 513:Drivers/STM32F1xx_HAL_Driver/Src/stm32f1xx_hal_rcc.c ****       {
 514:Drivers/STM32F1xx_HAL_Driver/Src/stm32f1xx_hal_rcc.c ****         if ((HAL_GetTick() - tickstart) > LSI_TIMEOUT_VALUE)
 515:Drivers/STM32F1xx_HAL_Driver/Src/stm32f1xx_hal_rcc.c ****         {
 516:Drivers/STM32F1xx_HAL_Driver/Src/stm32f1xx_hal_rcc.c ****           return HAL_TIMEOUT;
 517:Drivers/STM32F1xx_HAL_Driver/Src/stm32f1xx_hal_rcc.c ****         }
 518:Drivers/STM32F1xx_HAL_Driver/Src/stm32f1xx_hal_rcc.c ****       }
 519:Drivers/STM32F1xx_HAL_Driver/Src/stm32f1xx_hal_rcc.c ****     }
 520:Drivers/STM32F1xx_HAL_Driver/Src/stm32f1xx_hal_rcc.c ****   }
 521:Drivers/STM32F1xx_HAL_Driver/Src/stm32f1xx_hal_rcc.c ****   /*------------------------------ LSE Configuration -------------------------*/
 522:Drivers/STM32F1xx_HAL_Driver/Src/stm32f1xx_hal_rcc.c ****   if (((RCC_OscInitStruct->OscillatorType) & RCC_OSCILLATORTYPE_LSE) == RCC_OSCILLATORTYPE_LSE)
 523:Drivers/STM32F1xx_HAL_Driver/Src/stm32f1xx_hal_rcc.c ****   {
 524:Drivers/STM32F1xx_HAL_Driver/Src/stm32f1xx_hal_rcc.c ****     FlagStatus       pwrclkchanged = RESET;
 525:Drivers/STM32F1xx_HAL_Driver/Src/stm32f1xx_hal_rcc.c **** 
 526:Drivers/STM32F1xx_HAL_Driver/Src/stm32f1xx_hal_rcc.c ****     /* Check the parameters */
 527:Drivers/STM32F1xx_HAL_Driver/Src/stm32f1xx_hal_rcc.c ****     assert_param(IS_RCC_LSE(RCC_OscInitStruct->LSEState));
 528:Drivers/STM32F1xx_HAL_Driver/Src/stm32f1xx_hal_rcc.c **** 
 529:Drivers/STM32F1xx_HAL_Driver/Src/stm32f1xx_hal_rcc.c ****     /* Update LSE configuration in Backup Domain control register    */
 530:Drivers/STM32F1xx_HAL_Driver/Src/stm32f1xx_hal_rcc.c ****     /* Requires to enable write access to Backup Domain of necessary */
 531:Drivers/STM32F1xx_HAL_Driver/Src/stm32f1xx_hal_rcc.c ****     if (__HAL_RCC_PWR_IS_CLK_DISABLED())
 532:Drivers/STM32F1xx_HAL_Driver/Src/stm32f1xx_hal_rcc.c ****     {
 533:Drivers/STM32F1xx_HAL_Driver/Src/stm32f1xx_hal_rcc.c ****       __HAL_RCC_PWR_CLK_ENABLE();
 534:Drivers/STM32F1xx_HAL_Driver/Src/stm32f1xx_hal_rcc.c ****       pwrclkchanged = SET;
 535:Drivers/STM32F1xx_HAL_Driver/Src/stm32f1xx_hal_rcc.c ****     }
 536:Drivers/STM32F1xx_HAL_Driver/Src/stm32f1xx_hal_rcc.c **** 
 537:Drivers/STM32F1xx_HAL_Driver/Src/stm32f1xx_hal_rcc.c ****     if (HAL_IS_BIT_CLR(PWR->CR, PWR_CR_DBP))
 538:Drivers/STM32F1xx_HAL_Driver/Src/stm32f1xx_hal_rcc.c ****     {
 539:Drivers/STM32F1xx_HAL_Driver/Src/stm32f1xx_hal_rcc.c ****       /* Enable write access to Backup domain */
 540:Drivers/STM32F1xx_HAL_Driver/Src/stm32f1xx_hal_rcc.c ****       SET_BIT(PWR->CR, PWR_CR_DBP);
 541:Drivers/STM32F1xx_HAL_Driver/Src/stm32f1xx_hal_rcc.c **** 
 542:Drivers/STM32F1xx_HAL_Driver/Src/stm32f1xx_hal_rcc.c ****       /* Wait for Backup domain Write protection disable */
 543:Drivers/STM32F1xx_HAL_Driver/Src/stm32f1xx_hal_rcc.c ****       tickstart = HAL_GetTick();
 544:Drivers/STM32F1xx_HAL_Driver/Src/stm32f1xx_hal_rcc.c **** 
 545:Drivers/STM32F1xx_HAL_Driver/Src/stm32f1xx_hal_rcc.c ****       while (HAL_IS_BIT_CLR(PWR->CR, PWR_CR_DBP))
ARM GAS  C:\Users\begre\AppData\Local\Temp\ccwT0kAZ.s 			page 11


 546:Drivers/STM32F1xx_HAL_Driver/Src/stm32f1xx_hal_rcc.c ****       {
 547:Drivers/STM32F1xx_HAL_Driver/Src/stm32f1xx_hal_rcc.c ****         if ((HAL_GetTick() - tickstart) > RCC_DBP_TIMEOUT_VALUE)
 548:Drivers/STM32F1xx_HAL_Driver/Src/stm32f1xx_hal_rcc.c ****         {
 549:Drivers/STM32F1xx_HAL_Driver/Src/stm32f1xx_hal_rcc.c ****           return HAL_TIMEOUT;
 550:Drivers/STM32F1xx_HAL_Driver/Src/stm32f1xx_hal_rcc.c ****         }
 551:Drivers/STM32F1xx_HAL_Driver/Src/stm32f1xx_hal_rcc.c ****       }
 552:Drivers/STM32F1xx_HAL_Driver/Src/stm32f1xx_hal_rcc.c ****     }
 553:Drivers/STM32F1xx_HAL_Driver/Src/stm32f1xx_hal_rcc.c **** 
 554:Drivers/STM32F1xx_HAL_Driver/Src/stm32f1xx_hal_rcc.c ****     /* Set the new LSE configuration -----------------------------------------*/
 555:Drivers/STM32F1xx_HAL_Driver/Src/stm32f1xx_hal_rcc.c ****     __HAL_RCC_LSE_CONFIG(RCC_OscInitStruct->LSEState);
 556:Drivers/STM32F1xx_HAL_Driver/Src/stm32f1xx_hal_rcc.c ****     /* Check the LSE State */
 557:Drivers/STM32F1xx_HAL_Driver/Src/stm32f1xx_hal_rcc.c ****     if (RCC_OscInitStruct->LSEState != RCC_LSE_OFF)
 558:Drivers/STM32F1xx_HAL_Driver/Src/stm32f1xx_hal_rcc.c ****     {
 559:Drivers/STM32F1xx_HAL_Driver/Src/stm32f1xx_hal_rcc.c ****       /* Get Start Tick */
 560:Drivers/STM32F1xx_HAL_Driver/Src/stm32f1xx_hal_rcc.c ****       tickstart = HAL_GetTick();
 561:Drivers/STM32F1xx_HAL_Driver/Src/stm32f1xx_hal_rcc.c **** 
 562:Drivers/STM32F1xx_HAL_Driver/Src/stm32f1xx_hal_rcc.c ****       /* Wait till LSE is ready */
 563:Drivers/STM32F1xx_HAL_Driver/Src/stm32f1xx_hal_rcc.c ****       while (__HAL_RCC_GET_FLAG(RCC_FLAG_LSERDY) == RESET)
 564:Drivers/STM32F1xx_HAL_Driver/Src/stm32f1xx_hal_rcc.c ****       {
 565:Drivers/STM32F1xx_HAL_Driver/Src/stm32f1xx_hal_rcc.c ****         if ((HAL_GetTick() - tickstart) > RCC_LSE_TIMEOUT_VALUE)
 566:Drivers/STM32F1xx_HAL_Driver/Src/stm32f1xx_hal_rcc.c ****         {
 567:Drivers/STM32F1xx_HAL_Driver/Src/stm32f1xx_hal_rcc.c ****           return HAL_TIMEOUT;
 568:Drivers/STM32F1xx_HAL_Driver/Src/stm32f1xx_hal_rcc.c ****         }
 569:Drivers/STM32F1xx_HAL_Driver/Src/stm32f1xx_hal_rcc.c ****       }
 570:Drivers/STM32F1xx_HAL_Driver/Src/stm32f1xx_hal_rcc.c ****     }
 571:Drivers/STM32F1xx_HAL_Driver/Src/stm32f1xx_hal_rcc.c ****     else
 572:Drivers/STM32F1xx_HAL_Driver/Src/stm32f1xx_hal_rcc.c ****     {
 573:Drivers/STM32F1xx_HAL_Driver/Src/stm32f1xx_hal_rcc.c ****       /* Get Start Tick */
 574:Drivers/STM32F1xx_HAL_Driver/Src/stm32f1xx_hal_rcc.c ****       tickstart = HAL_GetTick();
 575:Drivers/STM32F1xx_HAL_Driver/Src/stm32f1xx_hal_rcc.c **** 
 576:Drivers/STM32F1xx_HAL_Driver/Src/stm32f1xx_hal_rcc.c ****       /* Wait till LSE is disabled */
 577:Drivers/STM32F1xx_HAL_Driver/Src/stm32f1xx_hal_rcc.c ****       while (__HAL_RCC_GET_FLAG(RCC_FLAG_LSERDY) != RESET)
 578:Drivers/STM32F1xx_HAL_Driver/Src/stm32f1xx_hal_rcc.c ****       {
 579:Drivers/STM32F1xx_HAL_Driver/Src/stm32f1xx_hal_rcc.c ****         if ((HAL_GetTick() - tickstart) > RCC_LSE_TIMEOUT_VALUE)
 580:Drivers/STM32F1xx_HAL_Driver/Src/stm32f1xx_hal_rcc.c ****         {
 581:Drivers/STM32F1xx_HAL_Driver/Src/stm32f1xx_hal_rcc.c ****           return HAL_TIMEOUT;
 582:Drivers/STM32F1xx_HAL_Driver/Src/stm32f1xx_hal_rcc.c ****         }
 583:Drivers/STM32F1xx_HAL_Driver/Src/stm32f1xx_hal_rcc.c ****       }
 584:Drivers/STM32F1xx_HAL_Driver/Src/stm32f1xx_hal_rcc.c ****     }
 585:Drivers/STM32F1xx_HAL_Driver/Src/stm32f1xx_hal_rcc.c **** 
 586:Drivers/STM32F1xx_HAL_Driver/Src/stm32f1xx_hal_rcc.c ****     /* Require to disable power clock if necessary */
 587:Drivers/STM32F1xx_HAL_Driver/Src/stm32f1xx_hal_rcc.c ****     if (pwrclkchanged == SET)
 588:Drivers/STM32F1xx_HAL_Driver/Src/stm32f1xx_hal_rcc.c ****     {
 589:Drivers/STM32F1xx_HAL_Driver/Src/stm32f1xx_hal_rcc.c ****       __HAL_RCC_PWR_CLK_DISABLE();
 590:Drivers/STM32F1xx_HAL_Driver/Src/stm32f1xx_hal_rcc.c ****     }
 591:Drivers/STM32F1xx_HAL_Driver/Src/stm32f1xx_hal_rcc.c ****   }
 592:Drivers/STM32F1xx_HAL_Driver/Src/stm32f1xx_hal_rcc.c **** 
 593:Drivers/STM32F1xx_HAL_Driver/Src/stm32f1xx_hal_rcc.c **** #if defined(RCC_CR_PLL2ON)
 594:Drivers/STM32F1xx_HAL_Driver/Src/stm32f1xx_hal_rcc.c ****   /*-------------------------------- PLL2 Configuration -----------------------*/
 595:Drivers/STM32F1xx_HAL_Driver/Src/stm32f1xx_hal_rcc.c ****   /* Check the parameters */
 596:Drivers/STM32F1xx_HAL_Driver/Src/stm32f1xx_hal_rcc.c ****   assert_param(IS_RCC_PLL2(RCC_OscInitStruct->PLL2.PLL2State));
 597:Drivers/STM32F1xx_HAL_Driver/Src/stm32f1xx_hal_rcc.c ****   if ((RCC_OscInitStruct->PLL2.PLL2State) != RCC_PLL2_NONE)
 598:Drivers/STM32F1xx_HAL_Driver/Src/stm32f1xx_hal_rcc.c ****   {
 599:Drivers/STM32F1xx_HAL_Driver/Src/stm32f1xx_hal_rcc.c ****     /* This bit can not be cleared if the PLL2 clock is used indirectly as system
 600:Drivers/STM32F1xx_HAL_Driver/Src/stm32f1xx_hal_rcc.c ****       clock (i.e. it is used as PLL clock entry that is used as system clock). */
 601:Drivers/STM32F1xx_HAL_Driver/Src/stm32f1xx_hal_rcc.c ****     if ((__HAL_RCC_GET_PLL_OSCSOURCE() == RCC_PLLSOURCE_HSE) && \
 602:Drivers/STM32F1xx_HAL_Driver/Src/stm32f1xx_hal_rcc.c ****         (__HAL_RCC_GET_SYSCLK_SOURCE() == RCC_SYSCLKSOURCE_STATUS_PLLCLK) && \
ARM GAS  C:\Users\begre\AppData\Local\Temp\ccwT0kAZ.s 			page 12


 603:Drivers/STM32F1xx_HAL_Driver/Src/stm32f1xx_hal_rcc.c ****         ((READ_BIT(RCC->CFGR2, RCC_CFGR2_PREDIV1SRC)) == RCC_CFGR2_PREDIV1SRC_PLL2))
 604:Drivers/STM32F1xx_HAL_Driver/Src/stm32f1xx_hal_rcc.c ****     {
 605:Drivers/STM32F1xx_HAL_Driver/Src/stm32f1xx_hal_rcc.c ****       return HAL_ERROR;
 606:Drivers/STM32F1xx_HAL_Driver/Src/stm32f1xx_hal_rcc.c ****     }
 607:Drivers/STM32F1xx_HAL_Driver/Src/stm32f1xx_hal_rcc.c ****     else
 608:Drivers/STM32F1xx_HAL_Driver/Src/stm32f1xx_hal_rcc.c ****     {
 609:Drivers/STM32F1xx_HAL_Driver/Src/stm32f1xx_hal_rcc.c ****       if ((RCC_OscInitStruct->PLL2.PLL2State) == RCC_PLL2_ON)
 610:Drivers/STM32F1xx_HAL_Driver/Src/stm32f1xx_hal_rcc.c ****       {
 611:Drivers/STM32F1xx_HAL_Driver/Src/stm32f1xx_hal_rcc.c ****         /* Check the parameters */
 612:Drivers/STM32F1xx_HAL_Driver/Src/stm32f1xx_hal_rcc.c ****         assert_param(IS_RCC_PLL2_MUL(RCC_OscInitStruct->PLL2.PLL2MUL));
 613:Drivers/STM32F1xx_HAL_Driver/Src/stm32f1xx_hal_rcc.c ****         assert_param(IS_RCC_HSE_PREDIV2(RCC_OscInitStruct->PLL2.HSEPrediv2Value));
 614:Drivers/STM32F1xx_HAL_Driver/Src/stm32f1xx_hal_rcc.c **** 
 615:Drivers/STM32F1xx_HAL_Driver/Src/stm32f1xx_hal_rcc.c ****         /* Prediv2 can be written only when the PLLI2S is disabled. */
 616:Drivers/STM32F1xx_HAL_Driver/Src/stm32f1xx_hal_rcc.c ****         /* Return an error only if new value is different from the programmed value */
 617:Drivers/STM32F1xx_HAL_Driver/Src/stm32f1xx_hal_rcc.c ****         if (HAL_IS_BIT_SET(RCC->CR, RCC_CR_PLL3ON) && \
 618:Drivers/STM32F1xx_HAL_Driver/Src/stm32f1xx_hal_rcc.c ****             (__HAL_RCC_HSE_GET_PREDIV2() != RCC_OscInitStruct->PLL2.HSEPrediv2Value))
 619:Drivers/STM32F1xx_HAL_Driver/Src/stm32f1xx_hal_rcc.c ****         {
 620:Drivers/STM32F1xx_HAL_Driver/Src/stm32f1xx_hal_rcc.c ****           return HAL_ERROR;
 621:Drivers/STM32F1xx_HAL_Driver/Src/stm32f1xx_hal_rcc.c ****         }
 622:Drivers/STM32F1xx_HAL_Driver/Src/stm32f1xx_hal_rcc.c **** 
 623:Drivers/STM32F1xx_HAL_Driver/Src/stm32f1xx_hal_rcc.c ****         /* Disable the main PLL2. */
 624:Drivers/STM32F1xx_HAL_Driver/Src/stm32f1xx_hal_rcc.c ****         __HAL_RCC_PLL2_DISABLE();
 625:Drivers/STM32F1xx_HAL_Driver/Src/stm32f1xx_hal_rcc.c **** 
 626:Drivers/STM32F1xx_HAL_Driver/Src/stm32f1xx_hal_rcc.c ****         /* Get Start Tick */
 627:Drivers/STM32F1xx_HAL_Driver/Src/stm32f1xx_hal_rcc.c ****         tickstart = HAL_GetTick();
 628:Drivers/STM32F1xx_HAL_Driver/Src/stm32f1xx_hal_rcc.c **** 
 629:Drivers/STM32F1xx_HAL_Driver/Src/stm32f1xx_hal_rcc.c ****         /* Wait till PLL2 is disabled */
 630:Drivers/STM32F1xx_HAL_Driver/Src/stm32f1xx_hal_rcc.c ****         while (__HAL_RCC_GET_FLAG(RCC_FLAG_PLL2RDY) != RESET)
 631:Drivers/STM32F1xx_HAL_Driver/Src/stm32f1xx_hal_rcc.c ****         {
 632:Drivers/STM32F1xx_HAL_Driver/Src/stm32f1xx_hal_rcc.c ****           if ((HAL_GetTick() - tickstart) > PLL2_TIMEOUT_VALUE)
 633:Drivers/STM32F1xx_HAL_Driver/Src/stm32f1xx_hal_rcc.c ****           {
 634:Drivers/STM32F1xx_HAL_Driver/Src/stm32f1xx_hal_rcc.c ****             return HAL_TIMEOUT;
 635:Drivers/STM32F1xx_HAL_Driver/Src/stm32f1xx_hal_rcc.c ****           }
 636:Drivers/STM32F1xx_HAL_Driver/Src/stm32f1xx_hal_rcc.c ****         }
 637:Drivers/STM32F1xx_HAL_Driver/Src/stm32f1xx_hal_rcc.c **** 
 638:Drivers/STM32F1xx_HAL_Driver/Src/stm32f1xx_hal_rcc.c ****         /* Configure the HSE prediv2 factor --------------------------------*/
 639:Drivers/STM32F1xx_HAL_Driver/Src/stm32f1xx_hal_rcc.c ****         __HAL_RCC_HSE_PREDIV2_CONFIG(RCC_OscInitStruct->PLL2.HSEPrediv2Value);
 640:Drivers/STM32F1xx_HAL_Driver/Src/stm32f1xx_hal_rcc.c **** 
 641:Drivers/STM32F1xx_HAL_Driver/Src/stm32f1xx_hal_rcc.c ****         /* Configure the main PLL2 multiplication factors. */
 642:Drivers/STM32F1xx_HAL_Driver/Src/stm32f1xx_hal_rcc.c ****         __HAL_RCC_PLL2_CONFIG(RCC_OscInitStruct->PLL2.PLL2MUL);
 643:Drivers/STM32F1xx_HAL_Driver/Src/stm32f1xx_hal_rcc.c **** 
 644:Drivers/STM32F1xx_HAL_Driver/Src/stm32f1xx_hal_rcc.c ****         /* Enable the main PLL2. */
 645:Drivers/STM32F1xx_HAL_Driver/Src/stm32f1xx_hal_rcc.c ****         __HAL_RCC_PLL2_ENABLE();
 646:Drivers/STM32F1xx_HAL_Driver/Src/stm32f1xx_hal_rcc.c **** 
 647:Drivers/STM32F1xx_HAL_Driver/Src/stm32f1xx_hal_rcc.c ****         /* Get Start Tick */
 648:Drivers/STM32F1xx_HAL_Driver/Src/stm32f1xx_hal_rcc.c ****         tickstart = HAL_GetTick();
 649:Drivers/STM32F1xx_HAL_Driver/Src/stm32f1xx_hal_rcc.c **** 
 650:Drivers/STM32F1xx_HAL_Driver/Src/stm32f1xx_hal_rcc.c ****         /* Wait till PLL2 is ready */
 651:Drivers/STM32F1xx_HAL_Driver/Src/stm32f1xx_hal_rcc.c ****         while (__HAL_RCC_GET_FLAG(RCC_FLAG_PLL2RDY)  == RESET)
 652:Drivers/STM32F1xx_HAL_Driver/Src/stm32f1xx_hal_rcc.c ****         {
 653:Drivers/STM32F1xx_HAL_Driver/Src/stm32f1xx_hal_rcc.c ****           if ((HAL_GetTick() - tickstart) > PLL2_TIMEOUT_VALUE)
 654:Drivers/STM32F1xx_HAL_Driver/Src/stm32f1xx_hal_rcc.c ****           {
 655:Drivers/STM32F1xx_HAL_Driver/Src/stm32f1xx_hal_rcc.c ****             return HAL_TIMEOUT;
 656:Drivers/STM32F1xx_HAL_Driver/Src/stm32f1xx_hal_rcc.c ****           }
 657:Drivers/STM32F1xx_HAL_Driver/Src/stm32f1xx_hal_rcc.c ****         }
 658:Drivers/STM32F1xx_HAL_Driver/Src/stm32f1xx_hal_rcc.c ****       }
 659:Drivers/STM32F1xx_HAL_Driver/Src/stm32f1xx_hal_rcc.c ****       else
ARM GAS  C:\Users\begre\AppData\Local\Temp\ccwT0kAZ.s 			page 13


 660:Drivers/STM32F1xx_HAL_Driver/Src/stm32f1xx_hal_rcc.c ****       {
 661:Drivers/STM32F1xx_HAL_Driver/Src/stm32f1xx_hal_rcc.c ****         /* Set PREDIV1 source to HSE */
 662:Drivers/STM32F1xx_HAL_Driver/Src/stm32f1xx_hal_rcc.c ****         CLEAR_BIT(RCC->CFGR2, RCC_CFGR2_PREDIV1SRC);
 663:Drivers/STM32F1xx_HAL_Driver/Src/stm32f1xx_hal_rcc.c **** 
 664:Drivers/STM32F1xx_HAL_Driver/Src/stm32f1xx_hal_rcc.c ****         /* Disable the main PLL2. */
 665:Drivers/STM32F1xx_HAL_Driver/Src/stm32f1xx_hal_rcc.c ****         __HAL_RCC_PLL2_DISABLE();
 666:Drivers/STM32F1xx_HAL_Driver/Src/stm32f1xx_hal_rcc.c **** 
 667:Drivers/STM32F1xx_HAL_Driver/Src/stm32f1xx_hal_rcc.c ****         /* Get Start Tick */
 668:Drivers/STM32F1xx_HAL_Driver/Src/stm32f1xx_hal_rcc.c ****         tickstart = HAL_GetTick();
 669:Drivers/STM32F1xx_HAL_Driver/Src/stm32f1xx_hal_rcc.c **** 
 670:Drivers/STM32F1xx_HAL_Driver/Src/stm32f1xx_hal_rcc.c ****         /* Wait till PLL2 is disabled */
 671:Drivers/STM32F1xx_HAL_Driver/Src/stm32f1xx_hal_rcc.c ****         while (__HAL_RCC_GET_FLAG(RCC_FLAG_PLL2RDY)  != RESET)
 672:Drivers/STM32F1xx_HAL_Driver/Src/stm32f1xx_hal_rcc.c ****         {
 673:Drivers/STM32F1xx_HAL_Driver/Src/stm32f1xx_hal_rcc.c ****           if ((HAL_GetTick() - tickstart) > PLL2_TIMEOUT_VALUE)
 674:Drivers/STM32F1xx_HAL_Driver/Src/stm32f1xx_hal_rcc.c ****           {
 675:Drivers/STM32F1xx_HAL_Driver/Src/stm32f1xx_hal_rcc.c ****             return HAL_TIMEOUT;
 676:Drivers/STM32F1xx_HAL_Driver/Src/stm32f1xx_hal_rcc.c ****           }
 677:Drivers/STM32F1xx_HAL_Driver/Src/stm32f1xx_hal_rcc.c ****         }
 678:Drivers/STM32F1xx_HAL_Driver/Src/stm32f1xx_hal_rcc.c ****       }
 679:Drivers/STM32F1xx_HAL_Driver/Src/stm32f1xx_hal_rcc.c ****     }
 680:Drivers/STM32F1xx_HAL_Driver/Src/stm32f1xx_hal_rcc.c ****   }
 681:Drivers/STM32F1xx_HAL_Driver/Src/stm32f1xx_hal_rcc.c **** 
 682:Drivers/STM32F1xx_HAL_Driver/Src/stm32f1xx_hal_rcc.c **** #endif /* RCC_CR_PLL2ON */
 683:Drivers/STM32F1xx_HAL_Driver/Src/stm32f1xx_hal_rcc.c ****   /*-------------------------------- PLL Configuration -----------------------*/
 684:Drivers/STM32F1xx_HAL_Driver/Src/stm32f1xx_hal_rcc.c ****   /* Check the parameters */
 685:Drivers/STM32F1xx_HAL_Driver/Src/stm32f1xx_hal_rcc.c ****   assert_param(IS_RCC_PLL(RCC_OscInitStruct->PLL.PLLState));
 686:Drivers/STM32F1xx_HAL_Driver/Src/stm32f1xx_hal_rcc.c ****   if ((RCC_OscInitStruct->PLL.PLLState) != RCC_PLL_NONE)
 687:Drivers/STM32F1xx_HAL_Driver/Src/stm32f1xx_hal_rcc.c ****   {
 688:Drivers/STM32F1xx_HAL_Driver/Src/stm32f1xx_hal_rcc.c ****     /* Check if the PLL is used as system clock or not */
 689:Drivers/STM32F1xx_HAL_Driver/Src/stm32f1xx_hal_rcc.c ****     if (__HAL_RCC_GET_SYSCLK_SOURCE() != RCC_SYSCLKSOURCE_STATUS_PLLCLK)
 690:Drivers/STM32F1xx_HAL_Driver/Src/stm32f1xx_hal_rcc.c ****     {
 691:Drivers/STM32F1xx_HAL_Driver/Src/stm32f1xx_hal_rcc.c ****       if ((RCC_OscInitStruct->PLL.PLLState) == RCC_PLL_ON)
 692:Drivers/STM32F1xx_HAL_Driver/Src/stm32f1xx_hal_rcc.c ****       {
 693:Drivers/STM32F1xx_HAL_Driver/Src/stm32f1xx_hal_rcc.c ****         /* Check the parameters */
 694:Drivers/STM32F1xx_HAL_Driver/Src/stm32f1xx_hal_rcc.c ****         assert_param(IS_RCC_PLLSOURCE(RCC_OscInitStruct->PLL.PLLSource));
 695:Drivers/STM32F1xx_HAL_Driver/Src/stm32f1xx_hal_rcc.c ****         assert_param(IS_RCC_PLL_MUL(RCC_OscInitStruct->PLL.PLLMUL));
 696:Drivers/STM32F1xx_HAL_Driver/Src/stm32f1xx_hal_rcc.c **** 
 697:Drivers/STM32F1xx_HAL_Driver/Src/stm32f1xx_hal_rcc.c ****         /* Disable the main PLL. */
 698:Drivers/STM32F1xx_HAL_Driver/Src/stm32f1xx_hal_rcc.c ****         __HAL_RCC_PLL_DISABLE();
 699:Drivers/STM32F1xx_HAL_Driver/Src/stm32f1xx_hal_rcc.c **** 
 700:Drivers/STM32F1xx_HAL_Driver/Src/stm32f1xx_hal_rcc.c ****         /* Get Start Tick */
 701:Drivers/STM32F1xx_HAL_Driver/Src/stm32f1xx_hal_rcc.c ****         tickstart = HAL_GetTick();
 702:Drivers/STM32F1xx_HAL_Driver/Src/stm32f1xx_hal_rcc.c **** 
 703:Drivers/STM32F1xx_HAL_Driver/Src/stm32f1xx_hal_rcc.c ****         /* Wait till PLL is disabled */
 704:Drivers/STM32F1xx_HAL_Driver/Src/stm32f1xx_hal_rcc.c ****         while (__HAL_RCC_GET_FLAG(RCC_FLAG_PLLRDY)  != RESET)
 705:Drivers/STM32F1xx_HAL_Driver/Src/stm32f1xx_hal_rcc.c ****         {
 706:Drivers/STM32F1xx_HAL_Driver/Src/stm32f1xx_hal_rcc.c ****           if ((HAL_GetTick() - tickstart) > PLL_TIMEOUT_VALUE)
 707:Drivers/STM32F1xx_HAL_Driver/Src/stm32f1xx_hal_rcc.c ****           {
 708:Drivers/STM32F1xx_HAL_Driver/Src/stm32f1xx_hal_rcc.c ****             return HAL_TIMEOUT;
 709:Drivers/STM32F1xx_HAL_Driver/Src/stm32f1xx_hal_rcc.c ****           }
 710:Drivers/STM32F1xx_HAL_Driver/Src/stm32f1xx_hal_rcc.c ****         }
 711:Drivers/STM32F1xx_HAL_Driver/Src/stm32f1xx_hal_rcc.c **** 
 712:Drivers/STM32F1xx_HAL_Driver/Src/stm32f1xx_hal_rcc.c ****         /* Configure the HSE prediv factor --------------------------------*/
 713:Drivers/STM32F1xx_HAL_Driver/Src/stm32f1xx_hal_rcc.c ****         /* It can be written only when the PLL is disabled. Not used in PLL source is different tha
 714:Drivers/STM32F1xx_HAL_Driver/Src/stm32f1xx_hal_rcc.c ****         if (RCC_OscInitStruct->PLL.PLLSource == RCC_PLLSOURCE_HSE)
 715:Drivers/STM32F1xx_HAL_Driver/Src/stm32f1xx_hal_rcc.c ****         {
 716:Drivers/STM32F1xx_HAL_Driver/Src/stm32f1xx_hal_rcc.c ****           /* Check the parameter */
ARM GAS  C:\Users\begre\AppData\Local\Temp\ccwT0kAZ.s 			page 14


 717:Drivers/STM32F1xx_HAL_Driver/Src/stm32f1xx_hal_rcc.c ****           assert_param(IS_RCC_HSE_PREDIV(RCC_OscInitStruct->HSEPredivValue));
 718:Drivers/STM32F1xx_HAL_Driver/Src/stm32f1xx_hal_rcc.c **** #if defined(RCC_CFGR2_PREDIV1SRC)
 719:Drivers/STM32F1xx_HAL_Driver/Src/stm32f1xx_hal_rcc.c ****           assert_param(IS_RCC_PREDIV1_SOURCE(RCC_OscInitStruct->Prediv1Source));
 720:Drivers/STM32F1xx_HAL_Driver/Src/stm32f1xx_hal_rcc.c **** 
 721:Drivers/STM32F1xx_HAL_Driver/Src/stm32f1xx_hal_rcc.c ****           /* Set PREDIV1 source */
 722:Drivers/STM32F1xx_HAL_Driver/Src/stm32f1xx_hal_rcc.c ****           SET_BIT(RCC->CFGR2, RCC_OscInitStruct->Prediv1Source);
 723:Drivers/STM32F1xx_HAL_Driver/Src/stm32f1xx_hal_rcc.c **** #endif /* RCC_CFGR2_PREDIV1SRC */
 724:Drivers/STM32F1xx_HAL_Driver/Src/stm32f1xx_hal_rcc.c **** 
 725:Drivers/STM32F1xx_HAL_Driver/Src/stm32f1xx_hal_rcc.c ****           /* Set PREDIV1 Value */
 726:Drivers/STM32F1xx_HAL_Driver/Src/stm32f1xx_hal_rcc.c ****           __HAL_RCC_HSE_PREDIV_CONFIG(RCC_OscInitStruct->HSEPredivValue);
 727:Drivers/STM32F1xx_HAL_Driver/Src/stm32f1xx_hal_rcc.c ****         }
 728:Drivers/STM32F1xx_HAL_Driver/Src/stm32f1xx_hal_rcc.c **** 
 729:Drivers/STM32F1xx_HAL_Driver/Src/stm32f1xx_hal_rcc.c ****         /* Configure the main PLL clock source and multiplication factors. */
 730:Drivers/STM32F1xx_HAL_Driver/Src/stm32f1xx_hal_rcc.c ****         __HAL_RCC_PLL_CONFIG(RCC_OscInitStruct->PLL.PLLSource,
 731:Drivers/STM32F1xx_HAL_Driver/Src/stm32f1xx_hal_rcc.c ****                              RCC_OscInitStruct->PLL.PLLMUL);
 732:Drivers/STM32F1xx_HAL_Driver/Src/stm32f1xx_hal_rcc.c ****         /* Enable the main PLL. */
 733:Drivers/STM32F1xx_HAL_Driver/Src/stm32f1xx_hal_rcc.c ****         __HAL_RCC_PLL_ENABLE();
 734:Drivers/STM32F1xx_HAL_Driver/Src/stm32f1xx_hal_rcc.c **** 
 735:Drivers/STM32F1xx_HAL_Driver/Src/stm32f1xx_hal_rcc.c ****         /* Get Start Tick */
 736:Drivers/STM32F1xx_HAL_Driver/Src/stm32f1xx_hal_rcc.c ****         tickstart = HAL_GetTick();
 737:Drivers/STM32F1xx_HAL_Driver/Src/stm32f1xx_hal_rcc.c **** 
 738:Drivers/STM32F1xx_HAL_Driver/Src/stm32f1xx_hal_rcc.c ****         /* Wait till PLL is ready */
 739:Drivers/STM32F1xx_HAL_Driver/Src/stm32f1xx_hal_rcc.c ****         while (__HAL_RCC_GET_FLAG(RCC_FLAG_PLLRDY)  == RESET)
 740:Drivers/STM32F1xx_HAL_Driver/Src/stm32f1xx_hal_rcc.c ****         {
 741:Drivers/STM32F1xx_HAL_Driver/Src/stm32f1xx_hal_rcc.c ****           if ((HAL_GetTick() - tickstart) > PLL_TIMEOUT_VALUE)
 742:Drivers/STM32F1xx_HAL_Driver/Src/stm32f1xx_hal_rcc.c ****           {
 743:Drivers/STM32F1xx_HAL_Driver/Src/stm32f1xx_hal_rcc.c ****             return HAL_TIMEOUT;
 744:Drivers/STM32F1xx_HAL_Driver/Src/stm32f1xx_hal_rcc.c ****           }
 745:Drivers/STM32F1xx_HAL_Driver/Src/stm32f1xx_hal_rcc.c ****         }
 746:Drivers/STM32F1xx_HAL_Driver/Src/stm32f1xx_hal_rcc.c ****       }
 747:Drivers/STM32F1xx_HAL_Driver/Src/stm32f1xx_hal_rcc.c ****       else
 748:Drivers/STM32F1xx_HAL_Driver/Src/stm32f1xx_hal_rcc.c ****       {
 749:Drivers/STM32F1xx_HAL_Driver/Src/stm32f1xx_hal_rcc.c ****         /* Disable the main PLL. */
 750:Drivers/STM32F1xx_HAL_Driver/Src/stm32f1xx_hal_rcc.c ****         __HAL_RCC_PLL_DISABLE();
 751:Drivers/STM32F1xx_HAL_Driver/Src/stm32f1xx_hal_rcc.c **** 
 752:Drivers/STM32F1xx_HAL_Driver/Src/stm32f1xx_hal_rcc.c ****         /* Get Start Tick */
 753:Drivers/STM32F1xx_HAL_Driver/Src/stm32f1xx_hal_rcc.c ****         tickstart = HAL_GetTick();
 754:Drivers/STM32F1xx_HAL_Driver/Src/stm32f1xx_hal_rcc.c **** 
 755:Drivers/STM32F1xx_HAL_Driver/Src/stm32f1xx_hal_rcc.c ****         /* Wait till PLL is disabled */
 756:Drivers/STM32F1xx_HAL_Driver/Src/stm32f1xx_hal_rcc.c ****         while (__HAL_RCC_GET_FLAG(RCC_FLAG_PLLRDY)  != RESET)
 757:Drivers/STM32F1xx_HAL_Driver/Src/stm32f1xx_hal_rcc.c ****         {
 758:Drivers/STM32F1xx_HAL_Driver/Src/stm32f1xx_hal_rcc.c ****           if ((HAL_GetTick() - tickstart) > PLL_TIMEOUT_VALUE)
 759:Drivers/STM32F1xx_HAL_Driver/Src/stm32f1xx_hal_rcc.c ****           {
 760:Drivers/STM32F1xx_HAL_Driver/Src/stm32f1xx_hal_rcc.c ****             return HAL_TIMEOUT;
 761:Drivers/STM32F1xx_HAL_Driver/Src/stm32f1xx_hal_rcc.c ****           }
 762:Drivers/STM32F1xx_HAL_Driver/Src/stm32f1xx_hal_rcc.c ****         }
 763:Drivers/STM32F1xx_HAL_Driver/Src/stm32f1xx_hal_rcc.c ****       }
 764:Drivers/STM32F1xx_HAL_Driver/Src/stm32f1xx_hal_rcc.c ****     }
 765:Drivers/STM32F1xx_HAL_Driver/Src/stm32f1xx_hal_rcc.c ****     else
 766:Drivers/STM32F1xx_HAL_Driver/Src/stm32f1xx_hal_rcc.c ****     {
 767:Drivers/STM32F1xx_HAL_Driver/Src/stm32f1xx_hal_rcc.c ****       /* Check if there is a request to disable the PLL used as System clock source */
 768:Drivers/STM32F1xx_HAL_Driver/Src/stm32f1xx_hal_rcc.c ****       if ((RCC_OscInitStruct->PLL.PLLState) == RCC_PLL_OFF)
 769:Drivers/STM32F1xx_HAL_Driver/Src/stm32f1xx_hal_rcc.c ****       {
 770:Drivers/STM32F1xx_HAL_Driver/Src/stm32f1xx_hal_rcc.c ****         return HAL_ERROR;
 771:Drivers/STM32F1xx_HAL_Driver/Src/stm32f1xx_hal_rcc.c ****       }
 772:Drivers/STM32F1xx_HAL_Driver/Src/stm32f1xx_hal_rcc.c ****       else
 773:Drivers/STM32F1xx_HAL_Driver/Src/stm32f1xx_hal_rcc.c ****       {
ARM GAS  C:\Users\begre\AppData\Local\Temp\ccwT0kAZ.s 			page 15


 774:Drivers/STM32F1xx_HAL_Driver/Src/stm32f1xx_hal_rcc.c ****         /* Do not return HAL_ERROR if request repeats the current configuration */
 775:Drivers/STM32F1xx_HAL_Driver/Src/stm32f1xx_hal_rcc.c ****         pll_config = RCC->CFGR;
 776:Drivers/STM32F1xx_HAL_Driver/Src/stm32f1xx_hal_rcc.c ****         if ((READ_BIT(pll_config, RCC_CFGR_PLLSRC) != RCC_OscInitStruct->PLL.PLLSource) ||
 777:Drivers/STM32F1xx_HAL_Driver/Src/stm32f1xx_hal_rcc.c ****             (READ_BIT(pll_config, RCC_CFGR_PLLMULL) != RCC_OscInitStruct->PLL.PLLMUL))
 778:Drivers/STM32F1xx_HAL_Driver/Src/stm32f1xx_hal_rcc.c ****         {
 779:Drivers/STM32F1xx_HAL_Driver/Src/stm32f1xx_hal_rcc.c ****           return HAL_ERROR;
 780:Drivers/STM32F1xx_HAL_Driver/Src/stm32f1xx_hal_rcc.c ****         }
 781:Drivers/STM32F1xx_HAL_Driver/Src/stm32f1xx_hal_rcc.c ****       }
 782:Drivers/STM32F1xx_HAL_Driver/Src/stm32f1xx_hal_rcc.c ****     }
 783:Drivers/STM32F1xx_HAL_Driver/Src/stm32f1xx_hal_rcc.c ****   }
 784:Drivers/STM32F1xx_HAL_Driver/Src/stm32f1xx_hal_rcc.c **** 
 785:Drivers/STM32F1xx_HAL_Driver/Src/stm32f1xx_hal_rcc.c ****   return HAL_OK;
 786:Drivers/STM32F1xx_HAL_Driver/Src/stm32f1xx_hal_rcc.c **** }
 787:Drivers/STM32F1xx_HAL_Driver/Src/stm32f1xx_hal_rcc.c **** 
 788:Drivers/STM32F1xx_HAL_Driver/Src/stm32f1xx_hal_rcc.c **** /**
 789:Drivers/STM32F1xx_HAL_Driver/Src/stm32f1xx_hal_rcc.c ****   * @brief  Initializes the CPU, AHB and APB buses clocks according to the specified
 790:Drivers/STM32F1xx_HAL_Driver/Src/stm32f1xx_hal_rcc.c ****   *         parameters in the RCC_ClkInitStruct.
 791:Drivers/STM32F1xx_HAL_Driver/Src/stm32f1xx_hal_rcc.c ****   * @param  RCC_ClkInitStruct pointer to an RCC_OscInitTypeDef structure that
 792:Drivers/STM32F1xx_HAL_Driver/Src/stm32f1xx_hal_rcc.c ****   *         contains the configuration information for the RCC peripheral.
 793:Drivers/STM32F1xx_HAL_Driver/Src/stm32f1xx_hal_rcc.c ****   * @param  FLatency FLASH Latency
 794:Drivers/STM32F1xx_HAL_Driver/Src/stm32f1xx_hal_rcc.c ****   *          The value of this parameter depend on device used within the same series
 795:Drivers/STM32F1xx_HAL_Driver/Src/stm32f1xx_hal_rcc.c ****   * @note   The SystemCoreClock CMSIS variable is used to store System Clock Frequency
 796:Drivers/STM32F1xx_HAL_Driver/Src/stm32f1xx_hal_rcc.c ****   *         and updated by @ref HAL_RCC_GetHCLKFreq() function called within this function
 797:Drivers/STM32F1xx_HAL_Driver/Src/stm32f1xx_hal_rcc.c ****   *
 798:Drivers/STM32F1xx_HAL_Driver/Src/stm32f1xx_hal_rcc.c ****   * @note   The HSI is used (enabled by hardware) as system clock source after
 799:Drivers/STM32F1xx_HAL_Driver/Src/stm32f1xx_hal_rcc.c ****   *         start-up from Reset, wake-up from STOP and STANDBY mode, or in case
 800:Drivers/STM32F1xx_HAL_Driver/Src/stm32f1xx_hal_rcc.c ****   *         of failure of the HSE used directly or indirectly as system clock
 801:Drivers/STM32F1xx_HAL_Driver/Src/stm32f1xx_hal_rcc.c ****   *         (if the Clock Security System CSS is enabled).
 802:Drivers/STM32F1xx_HAL_Driver/Src/stm32f1xx_hal_rcc.c ****   *
 803:Drivers/STM32F1xx_HAL_Driver/Src/stm32f1xx_hal_rcc.c ****   * @note   A switch from one clock source to another occurs only if the target
 804:Drivers/STM32F1xx_HAL_Driver/Src/stm32f1xx_hal_rcc.c ****   *         clock source is ready (clock stable after start-up delay or PLL locked).
 805:Drivers/STM32F1xx_HAL_Driver/Src/stm32f1xx_hal_rcc.c ****   *         If a clock source which is not yet ready is selected, the switch will
 806:Drivers/STM32F1xx_HAL_Driver/Src/stm32f1xx_hal_rcc.c ****   *         occur when the clock source will be ready.
 807:Drivers/STM32F1xx_HAL_Driver/Src/stm32f1xx_hal_rcc.c ****   *         You can use @ref HAL_RCC_GetClockConfig() function to know which clock is
 808:Drivers/STM32F1xx_HAL_Driver/Src/stm32f1xx_hal_rcc.c ****   *         currently used as system clock source.
 809:Drivers/STM32F1xx_HAL_Driver/Src/stm32f1xx_hal_rcc.c ****   * @retval HAL status
 810:Drivers/STM32F1xx_HAL_Driver/Src/stm32f1xx_hal_rcc.c ****   */
 811:Drivers/STM32F1xx_HAL_Driver/Src/stm32f1xx_hal_rcc.c **** HAL_StatusTypeDef HAL_RCC_ClockConfig(RCC_ClkInitTypeDef  *RCC_ClkInitStruct, uint32_t FLatency)
 812:Drivers/STM32F1xx_HAL_Driver/Src/stm32f1xx_hal_rcc.c **** {
 813:Drivers/STM32F1xx_HAL_Driver/Src/stm32f1xx_hal_rcc.c ****   uint32_t tickstart;
 814:Drivers/STM32F1xx_HAL_Driver/Src/stm32f1xx_hal_rcc.c **** 
 815:Drivers/STM32F1xx_HAL_Driver/Src/stm32f1xx_hal_rcc.c ****   /* Check Null pointer */
 816:Drivers/STM32F1xx_HAL_Driver/Src/stm32f1xx_hal_rcc.c ****   if (RCC_ClkInitStruct == NULL)
 817:Drivers/STM32F1xx_HAL_Driver/Src/stm32f1xx_hal_rcc.c ****   {
 818:Drivers/STM32F1xx_HAL_Driver/Src/stm32f1xx_hal_rcc.c ****     return HAL_ERROR;
 819:Drivers/STM32F1xx_HAL_Driver/Src/stm32f1xx_hal_rcc.c ****   }
 820:Drivers/STM32F1xx_HAL_Driver/Src/stm32f1xx_hal_rcc.c **** 
 821:Drivers/STM32F1xx_HAL_Driver/Src/stm32f1xx_hal_rcc.c ****   /* Check the parameters */
 822:Drivers/STM32F1xx_HAL_Driver/Src/stm32f1xx_hal_rcc.c ****   assert_param(IS_RCC_CLOCKTYPE(RCC_ClkInitStruct->ClockType));
 823:Drivers/STM32F1xx_HAL_Driver/Src/stm32f1xx_hal_rcc.c ****   assert_param(IS_FLASH_LATENCY(FLatency));
 824:Drivers/STM32F1xx_HAL_Driver/Src/stm32f1xx_hal_rcc.c **** 
 825:Drivers/STM32F1xx_HAL_Driver/Src/stm32f1xx_hal_rcc.c ****   /* To correctly read data from FLASH memory, the number of wait states (LATENCY)
 826:Drivers/STM32F1xx_HAL_Driver/Src/stm32f1xx_hal_rcc.c ****   must be correctly programmed according to the frequency of the CPU clock
 827:Drivers/STM32F1xx_HAL_Driver/Src/stm32f1xx_hal_rcc.c ****     (HCLK) of the device. */
 828:Drivers/STM32F1xx_HAL_Driver/Src/stm32f1xx_hal_rcc.c **** 
 829:Drivers/STM32F1xx_HAL_Driver/Src/stm32f1xx_hal_rcc.c **** #if defined(FLASH_ACR_LATENCY)
 830:Drivers/STM32F1xx_HAL_Driver/Src/stm32f1xx_hal_rcc.c ****   /* Increasing the number of wait states because of higher CPU frequency */
ARM GAS  C:\Users\begre\AppData\Local\Temp\ccwT0kAZ.s 			page 16


 831:Drivers/STM32F1xx_HAL_Driver/Src/stm32f1xx_hal_rcc.c ****   if (FLatency > __HAL_FLASH_GET_LATENCY())
 832:Drivers/STM32F1xx_HAL_Driver/Src/stm32f1xx_hal_rcc.c ****   {
 833:Drivers/STM32F1xx_HAL_Driver/Src/stm32f1xx_hal_rcc.c ****     /* Program the new number of wait states to the LATENCY bits in the FLASH_ACR register */
 834:Drivers/STM32F1xx_HAL_Driver/Src/stm32f1xx_hal_rcc.c ****     __HAL_FLASH_SET_LATENCY(FLatency);
 835:Drivers/STM32F1xx_HAL_Driver/Src/stm32f1xx_hal_rcc.c **** 
 836:Drivers/STM32F1xx_HAL_Driver/Src/stm32f1xx_hal_rcc.c ****     /* Check that the new number of wait states is taken into account to access the Flash
 837:Drivers/STM32F1xx_HAL_Driver/Src/stm32f1xx_hal_rcc.c ****     memory by reading the FLASH_ACR register */
 838:Drivers/STM32F1xx_HAL_Driver/Src/stm32f1xx_hal_rcc.c ****     if (__HAL_FLASH_GET_LATENCY() != FLatency)
 839:Drivers/STM32F1xx_HAL_Driver/Src/stm32f1xx_hal_rcc.c ****   {
 840:Drivers/STM32F1xx_HAL_Driver/Src/stm32f1xx_hal_rcc.c ****     return HAL_ERROR;
 841:Drivers/STM32F1xx_HAL_Driver/Src/stm32f1xx_hal_rcc.c ****   }
 842:Drivers/STM32F1xx_HAL_Driver/Src/stm32f1xx_hal_rcc.c **** }
 843:Drivers/STM32F1xx_HAL_Driver/Src/stm32f1xx_hal_rcc.c **** 
 844:Drivers/STM32F1xx_HAL_Driver/Src/stm32f1xx_hal_rcc.c **** #endif /* FLASH_ACR_LATENCY */
 845:Drivers/STM32F1xx_HAL_Driver/Src/stm32f1xx_hal_rcc.c **** /*-------------------------- HCLK Configuration --------------------------*/
 846:Drivers/STM32F1xx_HAL_Driver/Src/stm32f1xx_hal_rcc.c **** if (((RCC_ClkInitStruct->ClockType) & RCC_CLOCKTYPE_HCLK) == RCC_CLOCKTYPE_HCLK)
 847:Drivers/STM32F1xx_HAL_Driver/Src/stm32f1xx_hal_rcc.c ****   {
 848:Drivers/STM32F1xx_HAL_Driver/Src/stm32f1xx_hal_rcc.c ****     /* Set the highest APBx dividers in order to ensure that we do not go through
 849:Drivers/STM32F1xx_HAL_Driver/Src/stm32f1xx_hal_rcc.c ****     a non-spec phase whatever we decrease or increase HCLK. */
 850:Drivers/STM32F1xx_HAL_Driver/Src/stm32f1xx_hal_rcc.c ****     if (((RCC_ClkInitStruct->ClockType) & RCC_CLOCKTYPE_PCLK1) == RCC_CLOCKTYPE_PCLK1)
 851:Drivers/STM32F1xx_HAL_Driver/Src/stm32f1xx_hal_rcc.c ****     {
 852:Drivers/STM32F1xx_HAL_Driver/Src/stm32f1xx_hal_rcc.c ****       MODIFY_REG(RCC->CFGR, RCC_CFGR_PPRE1, RCC_HCLK_DIV16);
 853:Drivers/STM32F1xx_HAL_Driver/Src/stm32f1xx_hal_rcc.c ****     }
 854:Drivers/STM32F1xx_HAL_Driver/Src/stm32f1xx_hal_rcc.c **** 
 855:Drivers/STM32F1xx_HAL_Driver/Src/stm32f1xx_hal_rcc.c ****     if (((RCC_ClkInitStruct->ClockType) & RCC_CLOCKTYPE_PCLK2) == RCC_CLOCKTYPE_PCLK2)
 856:Drivers/STM32F1xx_HAL_Driver/Src/stm32f1xx_hal_rcc.c ****     {
 857:Drivers/STM32F1xx_HAL_Driver/Src/stm32f1xx_hal_rcc.c ****       MODIFY_REG(RCC->CFGR, RCC_CFGR_PPRE2, (RCC_HCLK_DIV16 << 3));
 858:Drivers/STM32F1xx_HAL_Driver/Src/stm32f1xx_hal_rcc.c ****     }
 859:Drivers/STM32F1xx_HAL_Driver/Src/stm32f1xx_hal_rcc.c **** 
 860:Drivers/STM32F1xx_HAL_Driver/Src/stm32f1xx_hal_rcc.c ****     /* Set the new HCLK clock divider */
 861:Drivers/STM32F1xx_HAL_Driver/Src/stm32f1xx_hal_rcc.c ****     assert_param(IS_RCC_HCLK(RCC_ClkInitStruct->AHBCLKDivider));
 862:Drivers/STM32F1xx_HAL_Driver/Src/stm32f1xx_hal_rcc.c ****     MODIFY_REG(RCC->CFGR, RCC_CFGR_HPRE, RCC_ClkInitStruct->AHBCLKDivider);
 863:Drivers/STM32F1xx_HAL_Driver/Src/stm32f1xx_hal_rcc.c ****   }
 864:Drivers/STM32F1xx_HAL_Driver/Src/stm32f1xx_hal_rcc.c **** 
 865:Drivers/STM32F1xx_HAL_Driver/Src/stm32f1xx_hal_rcc.c ****   /*------------------------- SYSCLK Configuration ---------------------------*/
 866:Drivers/STM32F1xx_HAL_Driver/Src/stm32f1xx_hal_rcc.c ****   if (((RCC_ClkInitStruct->ClockType) & RCC_CLOCKTYPE_SYSCLK) == RCC_CLOCKTYPE_SYSCLK)
 867:Drivers/STM32F1xx_HAL_Driver/Src/stm32f1xx_hal_rcc.c ****   {
 868:Drivers/STM32F1xx_HAL_Driver/Src/stm32f1xx_hal_rcc.c ****     assert_param(IS_RCC_SYSCLKSOURCE(RCC_ClkInitStruct->SYSCLKSource));
 869:Drivers/STM32F1xx_HAL_Driver/Src/stm32f1xx_hal_rcc.c **** 
 870:Drivers/STM32F1xx_HAL_Driver/Src/stm32f1xx_hal_rcc.c ****     /* HSE is selected as System Clock Source */
 871:Drivers/STM32F1xx_HAL_Driver/Src/stm32f1xx_hal_rcc.c ****     if (RCC_ClkInitStruct->SYSCLKSource == RCC_SYSCLKSOURCE_HSE)
 872:Drivers/STM32F1xx_HAL_Driver/Src/stm32f1xx_hal_rcc.c ****     {
 873:Drivers/STM32F1xx_HAL_Driver/Src/stm32f1xx_hal_rcc.c ****       /* Check the HSE ready flag */
 874:Drivers/STM32F1xx_HAL_Driver/Src/stm32f1xx_hal_rcc.c ****       if (__HAL_RCC_GET_FLAG(RCC_FLAG_HSERDY) == RESET)
 875:Drivers/STM32F1xx_HAL_Driver/Src/stm32f1xx_hal_rcc.c ****       {
 876:Drivers/STM32F1xx_HAL_Driver/Src/stm32f1xx_hal_rcc.c ****         return HAL_ERROR;
 877:Drivers/STM32F1xx_HAL_Driver/Src/stm32f1xx_hal_rcc.c ****       }
 878:Drivers/STM32F1xx_HAL_Driver/Src/stm32f1xx_hal_rcc.c ****     }
 879:Drivers/STM32F1xx_HAL_Driver/Src/stm32f1xx_hal_rcc.c ****     /* PLL is selected as System Clock Source */
 880:Drivers/STM32F1xx_HAL_Driver/Src/stm32f1xx_hal_rcc.c ****     else if (RCC_ClkInitStruct->SYSCLKSource == RCC_SYSCLKSOURCE_PLLCLK)
 881:Drivers/STM32F1xx_HAL_Driver/Src/stm32f1xx_hal_rcc.c ****     {
 882:Drivers/STM32F1xx_HAL_Driver/Src/stm32f1xx_hal_rcc.c ****       /* Check the PLL ready flag */
 883:Drivers/STM32F1xx_HAL_Driver/Src/stm32f1xx_hal_rcc.c ****       if (__HAL_RCC_GET_FLAG(RCC_FLAG_PLLRDY) == RESET)
 884:Drivers/STM32F1xx_HAL_Driver/Src/stm32f1xx_hal_rcc.c ****       {
 885:Drivers/STM32F1xx_HAL_Driver/Src/stm32f1xx_hal_rcc.c ****         return HAL_ERROR;
 886:Drivers/STM32F1xx_HAL_Driver/Src/stm32f1xx_hal_rcc.c ****       }
 887:Drivers/STM32F1xx_HAL_Driver/Src/stm32f1xx_hal_rcc.c ****     }
ARM GAS  C:\Users\begre\AppData\Local\Temp\ccwT0kAZ.s 			page 17


 888:Drivers/STM32F1xx_HAL_Driver/Src/stm32f1xx_hal_rcc.c ****     /* HSI is selected as System Clock Source */
 889:Drivers/STM32F1xx_HAL_Driver/Src/stm32f1xx_hal_rcc.c ****     else
 890:Drivers/STM32F1xx_HAL_Driver/Src/stm32f1xx_hal_rcc.c ****     {
 891:Drivers/STM32F1xx_HAL_Driver/Src/stm32f1xx_hal_rcc.c ****       /* Check the HSI ready flag */
 892:Drivers/STM32F1xx_HAL_Driver/Src/stm32f1xx_hal_rcc.c ****       if (__HAL_RCC_GET_FLAG(RCC_FLAG_HSIRDY) == RESET)
 893:Drivers/STM32F1xx_HAL_Driver/Src/stm32f1xx_hal_rcc.c ****       {
 894:Drivers/STM32F1xx_HAL_Driver/Src/stm32f1xx_hal_rcc.c ****         return HAL_ERROR;
 895:Drivers/STM32F1xx_HAL_Driver/Src/stm32f1xx_hal_rcc.c ****       }
 896:Drivers/STM32F1xx_HAL_Driver/Src/stm32f1xx_hal_rcc.c ****     }
 897:Drivers/STM32F1xx_HAL_Driver/Src/stm32f1xx_hal_rcc.c ****     __HAL_RCC_SYSCLK_CONFIG(RCC_ClkInitStruct->SYSCLKSource);
 898:Drivers/STM32F1xx_HAL_Driver/Src/stm32f1xx_hal_rcc.c **** 
 899:Drivers/STM32F1xx_HAL_Driver/Src/stm32f1xx_hal_rcc.c ****     /* Get Start Tick */
 900:Drivers/STM32F1xx_HAL_Driver/Src/stm32f1xx_hal_rcc.c ****     tickstart = HAL_GetTick();
 901:Drivers/STM32F1xx_HAL_Driver/Src/stm32f1xx_hal_rcc.c **** 
 902:Drivers/STM32F1xx_HAL_Driver/Src/stm32f1xx_hal_rcc.c ****     while (__HAL_RCC_GET_SYSCLK_SOURCE() != (RCC_ClkInitStruct->SYSCLKSource << RCC_CFGR_SWS_Pos))
 903:Drivers/STM32F1xx_HAL_Driver/Src/stm32f1xx_hal_rcc.c ****     {
 904:Drivers/STM32F1xx_HAL_Driver/Src/stm32f1xx_hal_rcc.c ****       if ((HAL_GetTick() - tickstart) > CLOCKSWITCH_TIMEOUT_VALUE)
 905:Drivers/STM32F1xx_HAL_Driver/Src/stm32f1xx_hal_rcc.c ****       {
 906:Drivers/STM32F1xx_HAL_Driver/Src/stm32f1xx_hal_rcc.c ****         return HAL_TIMEOUT;
 907:Drivers/STM32F1xx_HAL_Driver/Src/stm32f1xx_hal_rcc.c ****       }
 908:Drivers/STM32F1xx_HAL_Driver/Src/stm32f1xx_hal_rcc.c ****     }
 909:Drivers/STM32F1xx_HAL_Driver/Src/stm32f1xx_hal_rcc.c ****   }
 910:Drivers/STM32F1xx_HAL_Driver/Src/stm32f1xx_hal_rcc.c **** 
 911:Drivers/STM32F1xx_HAL_Driver/Src/stm32f1xx_hal_rcc.c **** #if defined(FLASH_ACR_LATENCY)
 912:Drivers/STM32F1xx_HAL_Driver/Src/stm32f1xx_hal_rcc.c ****   /* Decreasing the number of wait states because of lower CPU frequency */
 913:Drivers/STM32F1xx_HAL_Driver/Src/stm32f1xx_hal_rcc.c ****   if (FLatency < __HAL_FLASH_GET_LATENCY())
 914:Drivers/STM32F1xx_HAL_Driver/Src/stm32f1xx_hal_rcc.c ****   {
 915:Drivers/STM32F1xx_HAL_Driver/Src/stm32f1xx_hal_rcc.c ****     /* Program the new number of wait states to the LATENCY bits in the FLASH_ACR register */
 916:Drivers/STM32F1xx_HAL_Driver/Src/stm32f1xx_hal_rcc.c ****     __HAL_FLASH_SET_LATENCY(FLatency);
 917:Drivers/STM32F1xx_HAL_Driver/Src/stm32f1xx_hal_rcc.c **** 
 918:Drivers/STM32F1xx_HAL_Driver/Src/stm32f1xx_hal_rcc.c ****     /* Check that the new number of wait states is taken into account to access the Flash
 919:Drivers/STM32F1xx_HAL_Driver/Src/stm32f1xx_hal_rcc.c ****     memory by reading the FLASH_ACR register */
 920:Drivers/STM32F1xx_HAL_Driver/Src/stm32f1xx_hal_rcc.c ****     if (__HAL_FLASH_GET_LATENCY() != FLatency)
 921:Drivers/STM32F1xx_HAL_Driver/Src/stm32f1xx_hal_rcc.c ****   {
 922:Drivers/STM32F1xx_HAL_Driver/Src/stm32f1xx_hal_rcc.c ****     return HAL_ERROR;
 923:Drivers/STM32F1xx_HAL_Driver/Src/stm32f1xx_hal_rcc.c ****   }
 924:Drivers/STM32F1xx_HAL_Driver/Src/stm32f1xx_hal_rcc.c **** }
 925:Drivers/STM32F1xx_HAL_Driver/Src/stm32f1xx_hal_rcc.c **** #endif /* FLASH_ACR_LATENCY */
 926:Drivers/STM32F1xx_HAL_Driver/Src/stm32f1xx_hal_rcc.c **** 
 927:Drivers/STM32F1xx_HAL_Driver/Src/stm32f1xx_hal_rcc.c **** /*-------------------------- PCLK1 Configuration ---------------------------*/
 928:Drivers/STM32F1xx_HAL_Driver/Src/stm32f1xx_hal_rcc.c **** if (((RCC_ClkInitStruct->ClockType) & RCC_CLOCKTYPE_PCLK1) == RCC_CLOCKTYPE_PCLK1)
 929:Drivers/STM32F1xx_HAL_Driver/Src/stm32f1xx_hal_rcc.c ****   {
 930:Drivers/STM32F1xx_HAL_Driver/Src/stm32f1xx_hal_rcc.c ****     assert_param(IS_RCC_PCLK(RCC_ClkInitStruct->APB1CLKDivider));
 931:Drivers/STM32F1xx_HAL_Driver/Src/stm32f1xx_hal_rcc.c ****     MODIFY_REG(RCC->CFGR, RCC_CFGR_PPRE1, RCC_ClkInitStruct->APB1CLKDivider);
 932:Drivers/STM32F1xx_HAL_Driver/Src/stm32f1xx_hal_rcc.c ****   }
 933:Drivers/STM32F1xx_HAL_Driver/Src/stm32f1xx_hal_rcc.c **** 
 934:Drivers/STM32F1xx_HAL_Driver/Src/stm32f1xx_hal_rcc.c ****   /*-------------------------- PCLK2 Configuration ---------------------------*/
 935:Drivers/STM32F1xx_HAL_Driver/Src/stm32f1xx_hal_rcc.c ****   if (((RCC_ClkInitStruct->ClockType) & RCC_CLOCKTYPE_PCLK2) == RCC_CLOCKTYPE_PCLK2)
 936:Drivers/STM32F1xx_HAL_Driver/Src/stm32f1xx_hal_rcc.c ****   {
 937:Drivers/STM32F1xx_HAL_Driver/Src/stm32f1xx_hal_rcc.c ****     assert_param(IS_RCC_PCLK(RCC_ClkInitStruct->APB2CLKDivider));
 938:Drivers/STM32F1xx_HAL_Driver/Src/stm32f1xx_hal_rcc.c ****     MODIFY_REG(RCC->CFGR, RCC_CFGR_PPRE2, ((RCC_ClkInitStruct->APB2CLKDivider) << 3));
 939:Drivers/STM32F1xx_HAL_Driver/Src/stm32f1xx_hal_rcc.c ****   }
 940:Drivers/STM32F1xx_HAL_Driver/Src/stm32f1xx_hal_rcc.c **** 
 941:Drivers/STM32F1xx_HAL_Driver/Src/stm32f1xx_hal_rcc.c ****   /* Update the SystemCoreClock global variable */
 942:Drivers/STM32F1xx_HAL_Driver/Src/stm32f1xx_hal_rcc.c ****   SystemCoreClock = HAL_RCC_GetSysClockFreq() >> AHBPrescTable[(RCC->CFGR & RCC_CFGR_HPRE) >> RCC_C
 943:Drivers/STM32F1xx_HAL_Driver/Src/stm32f1xx_hal_rcc.c **** 
 944:Drivers/STM32F1xx_HAL_Driver/Src/stm32f1xx_hal_rcc.c ****   /* Configure the source of time base considering new system clocks settings*/
ARM GAS  C:\Users\begre\AppData\Local\Temp\ccwT0kAZ.s 			page 18


 945:Drivers/STM32F1xx_HAL_Driver/Src/stm32f1xx_hal_rcc.c **** 
 946:Drivers/STM32F1xx_HAL_Driver/Src/stm32f1xx_hal_rcc.c ****   HAL_InitTick(uwTickPrio);
 947:Drivers/STM32F1xx_HAL_Driver/Src/stm32f1xx_hal_rcc.c **** 
 948:Drivers/STM32F1xx_HAL_Driver/Src/stm32f1xx_hal_rcc.c ****   return HAL_OK;
 949:Drivers/STM32F1xx_HAL_Driver/Src/stm32f1xx_hal_rcc.c **** }
 950:Drivers/STM32F1xx_HAL_Driver/Src/stm32f1xx_hal_rcc.c **** 
 951:Drivers/STM32F1xx_HAL_Driver/Src/stm32f1xx_hal_rcc.c **** /**
 952:Drivers/STM32F1xx_HAL_Driver/Src/stm32f1xx_hal_rcc.c ****   * @}
 953:Drivers/STM32F1xx_HAL_Driver/Src/stm32f1xx_hal_rcc.c ****   */
 954:Drivers/STM32F1xx_HAL_Driver/Src/stm32f1xx_hal_rcc.c **** 
 955:Drivers/STM32F1xx_HAL_Driver/Src/stm32f1xx_hal_rcc.c **** /** @defgroup RCC_Exported_Functions_Group2 Peripheral Control functions
 956:Drivers/STM32F1xx_HAL_Driver/Src/stm32f1xx_hal_rcc.c ****   *  @brief   RCC clocks control functions
 957:Drivers/STM32F1xx_HAL_Driver/Src/stm32f1xx_hal_rcc.c ****   *
 958:Drivers/STM32F1xx_HAL_Driver/Src/stm32f1xx_hal_rcc.c ****   @verbatim
 959:Drivers/STM32F1xx_HAL_Driver/Src/stm32f1xx_hal_rcc.c ****   ===============================================================================
 960:Drivers/STM32F1xx_HAL_Driver/Src/stm32f1xx_hal_rcc.c ****                   ##### Peripheral Control functions #####
 961:Drivers/STM32F1xx_HAL_Driver/Src/stm32f1xx_hal_rcc.c ****   ===============================================================================
 962:Drivers/STM32F1xx_HAL_Driver/Src/stm32f1xx_hal_rcc.c ****     [..]
 963:Drivers/STM32F1xx_HAL_Driver/Src/stm32f1xx_hal_rcc.c ****     This subsection provides a set of functions allowing to control the RCC Clocks
 964:Drivers/STM32F1xx_HAL_Driver/Src/stm32f1xx_hal_rcc.c ****     frequencies.
 965:Drivers/STM32F1xx_HAL_Driver/Src/stm32f1xx_hal_rcc.c **** 
 966:Drivers/STM32F1xx_HAL_Driver/Src/stm32f1xx_hal_rcc.c ****   @endverbatim
 967:Drivers/STM32F1xx_HAL_Driver/Src/stm32f1xx_hal_rcc.c ****   * @{
 968:Drivers/STM32F1xx_HAL_Driver/Src/stm32f1xx_hal_rcc.c ****   */
 969:Drivers/STM32F1xx_HAL_Driver/Src/stm32f1xx_hal_rcc.c **** 
 970:Drivers/STM32F1xx_HAL_Driver/Src/stm32f1xx_hal_rcc.c **** /**
 971:Drivers/STM32F1xx_HAL_Driver/Src/stm32f1xx_hal_rcc.c ****   * @brief  Selects the clock source to output on MCO pin.
 972:Drivers/STM32F1xx_HAL_Driver/Src/stm32f1xx_hal_rcc.c ****   * @note   MCO pin should be configured in alternate function mode.
 973:Drivers/STM32F1xx_HAL_Driver/Src/stm32f1xx_hal_rcc.c ****   * @param  RCC_MCOx specifies the output direction for the clock source.
 974:Drivers/STM32F1xx_HAL_Driver/Src/stm32f1xx_hal_rcc.c ****   *          This parameter can be one of the following values:
 975:Drivers/STM32F1xx_HAL_Driver/Src/stm32f1xx_hal_rcc.c ****   *            @arg @ref RCC_MCO1 Clock source to output on MCO1 pin(PA8).
 976:Drivers/STM32F1xx_HAL_Driver/Src/stm32f1xx_hal_rcc.c ****   * @param  RCC_MCOSource specifies the clock source to output.
 977:Drivers/STM32F1xx_HAL_Driver/Src/stm32f1xx_hal_rcc.c ****   *          This parameter can be one of the following values:
 978:Drivers/STM32F1xx_HAL_Driver/Src/stm32f1xx_hal_rcc.c ****   *            @arg @ref RCC_MCO1SOURCE_NOCLOCK     No clock selected as MCO clock
 979:Drivers/STM32F1xx_HAL_Driver/Src/stm32f1xx_hal_rcc.c ****   *            @arg @ref RCC_MCO1SOURCE_SYSCLK      System clock selected as MCO clock
 980:Drivers/STM32F1xx_HAL_Driver/Src/stm32f1xx_hal_rcc.c ****   *            @arg @ref RCC_MCO1SOURCE_HSI         HSI selected as MCO clock
 981:Drivers/STM32F1xx_HAL_Driver/Src/stm32f1xx_hal_rcc.c ****   *            @arg @ref RCC_MCO1SOURCE_HSE         HSE selected as MCO clock
 982:Drivers/STM32F1xx_HAL_Driver/Src/stm32f1xx_hal_rcc.c ****   @if STM32F105xC
 983:Drivers/STM32F1xx_HAL_Driver/Src/stm32f1xx_hal_rcc.c ****   *            @arg @ref RCC_MCO1SOURCE_PLLCLK       PLL clock divided by 2 selected as MCO source
 984:Drivers/STM32F1xx_HAL_Driver/Src/stm32f1xx_hal_rcc.c ****   *            @arg @ref RCC_MCO1SOURCE_PLL2CLK      PLL2 clock selected as MCO source
 985:Drivers/STM32F1xx_HAL_Driver/Src/stm32f1xx_hal_rcc.c ****   *            @arg @ref RCC_MCO1SOURCE_PLL3CLK_DIV2 PLL3 clock divided by 2 selected as MCO source
 986:Drivers/STM32F1xx_HAL_Driver/Src/stm32f1xx_hal_rcc.c ****   *            @arg @ref RCC_MCO1SOURCE_EXT_HSE      XT1 external 3-25 MHz oscillator clock selecte
 987:Drivers/STM32F1xx_HAL_Driver/Src/stm32f1xx_hal_rcc.c ****   *            @arg @ref RCC_MCO1SOURCE_PLL3CLK      PLL3 clock selected as MCO source
 988:Drivers/STM32F1xx_HAL_Driver/Src/stm32f1xx_hal_rcc.c ****   @endif
 989:Drivers/STM32F1xx_HAL_Driver/Src/stm32f1xx_hal_rcc.c ****   @if STM32F107xC
 990:Drivers/STM32F1xx_HAL_Driver/Src/stm32f1xx_hal_rcc.c ****   *            @arg @ref RCC_MCO1SOURCE_PLLCLK       PLL clock divided by 2 selected as MCO source
 991:Drivers/STM32F1xx_HAL_Driver/Src/stm32f1xx_hal_rcc.c ****   *            @arg @ref RCC_MCO1SOURCE_PLL2CLK      PLL2 clock selected as MCO source
 992:Drivers/STM32F1xx_HAL_Driver/Src/stm32f1xx_hal_rcc.c ****   *            @arg @ref RCC_MCO1SOURCE_PLL3CLK_DIV2 PLL3 clock divided by 2 selected as MCO source
 993:Drivers/STM32F1xx_HAL_Driver/Src/stm32f1xx_hal_rcc.c ****   *            @arg @ref RCC_MCO1SOURCE_EXT_HSE XT1  external 3-25 MHz oscillator clock selected as
 994:Drivers/STM32F1xx_HAL_Driver/Src/stm32f1xx_hal_rcc.c ****   *            @arg @ref RCC_MCO1SOURCE_PLL3CLK      PLL3 clock selected as MCO source
 995:Drivers/STM32F1xx_HAL_Driver/Src/stm32f1xx_hal_rcc.c ****   @endif
 996:Drivers/STM32F1xx_HAL_Driver/Src/stm32f1xx_hal_rcc.c ****   * @param  RCC_MCODiv specifies the MCO DIV.
 997:Drivers/STM32F1xx_HAL_Driver/Src/stm32f1xx_hal_rcc.c ****   *          This parameter can be one of the following values:
 998:Drivers/STM32F1xx_HAL_Driver/Src/stm32f1xx_hal_rcc.c ****   *            @arg @ref RCC_MCODIV_1 no division applied to MCO clock
 999:Drivers/STM32F1xx_HAL_Driver/Src/stm32f1xx_hal_rcc.c ****   * @retval None
1000:Drivers/STM32F1xx_HAL_Driver/Src/stm32f1xx_hal_rcc.c ****   */
1001:Drivers/STM32F1xx_HAL_Driver/Src/stm32f1xx_hal_rcc.c **** void HAL_RCC_MCOConfig(uint32_t RCC_MCOx, uint32_t RCC_MCOSource, uint32_t RCC_MCODiv)
ARM GAS  C:\Users\begre\AppData\Local\Temp\ccwT0kAZ.s 			page 19


1002:Drivers/STM32F1xx_HAL_Driver/Src/stm32f1xx_hal_rcc.c **** {
1003:Drivers/STM32F1xx_HAL_Driver/Src/stm32f1xx_hal_rcc.c ****   GPIO_InitTypeDef gpio = {0U};
1004:Drivers/STM32F1xx_HAL_Driver/Src/stm32f1xx_hal_rcc.c **** 
1005:Drivers/STM32F1xx_HAL_Driver/Src/stm32f1xx_hal_rcc.c ****   /* Check the parameters */
1006:Drivers/STM32F1xx_HAL_Driver/Src/stm32f1xx_hal_rcc.c ****   assert_param(IS_RCC_MCO(RCC_MCOx));
1007:Drivers/STM32F1xx_HAL_Driver/Src/stm32f1xx_hal_rcc.c ****   assert_param(IS_RCC_MCODIV(RCC_MCODiv));
1008:Drivers/STM32F1xx_HAL_Driver/Src/stm32f1xx_hal_rcc.c ****   assert_param(IS_RCC_MCO1SOURCE(RCC_MCOSource));
1009:Drivers/STM32F1xx_HAL_Driver/Src/stm32f1xx_hal_rcc.c **** 
1010:Drivers/STM32F1xx_HAL_Driver/Src/stm32f1xx_hal_rcc.c ****   /* Prevent unused argument(s) compilation warning */
1011:Drivers/STM32F1xx_HAL_Driver/Src/stm32f1xx_hal_rcc.c ****   UNUSED(RCC_MCOx);
1012:Drivers/STM32F1xx_HAL_Driver/Src/stm32f1xx_hal_rcc.c ****   UNUSED(RCC_MCODiv);
1013:Drivers/STM32F1xx_HAL_Driver/Src/stm32f1xx_hal_rcc.c **** 
1014:Drivers/STM32F1xx_HAL_Driver/Src/stm32f1xx_hal_rcc.c ****   /* Configure the MCO1 pin in alternate function mode */
1015:Drivers/STM32F1xx_HAL_Driver/Src/stm32f1xx_hal_rcc.c ****   gpio.Mode      = GPIO_MODE_AF_PP;
1016:Drivers/STM32F1xx_HAL_Driver/Src/stm32f1xx_hal_rcc.c ****   gpio.Speed     = GPIO_SPEED_FREQ_HIGH;
1017:Drivers/STM32F1xx_HAL_Driver/Src/stm32f1xx_hal_rcc.c ****   gpio.Pull      = GPIO_NOPULL;
1018:Drivers/STM32F1xx_HAL_Driver/Src/stm32f1xx_hal_rcc.c ****   gpio.Pin       = MCO1_PIN;
1019:Drivers/STM32F1xx_HAL_Driver/Src/stm32f1xx_hal_rcc.c **** 
1020:Drivers/STM32F1xx_HAL_Driver/Src/stm32f1xx_hal_rcc.c ****   /* MCO1 Clock Enable */
1021:Drivers/STM32F1xx_HAL_Driver/Src/stm32f1xx_hal_rcc.c ****   MCO1_CLK_ENABLE();
1022:Drivers/STM32F1xx_HAL_Driver/Src/stm32f1xx_hal_rcc.c **** 
1023:Drivers/STM32F1xx_HAL_Driver/Src/stm32f1xx_hal_rcc.c ****   HAL_GPIO_Init(MCO1_GPIO_PORT, &gpio);
1024:Drivers/STM32F1xx_HAL_Driver/Src/stm32f1xx_hal_rcc.c **** 
1025:Drivers/STM32F1xx_HAL_Driver/Src/stm32f1xx_hal_rcc.c ****   /* Configure the MCO clock source */
1026:Drivers/STM32F1xx_HAL_Driver/Src/stm32f1xx_hal_rcc.c ****   __HAL_RCC_MCO1_CONFIG(RCC_MCOSource, RCC_MCODiv);
1027:Drivers/STM32F1xx_HAL_Driver/Src/stm32f1xx_hal_rcc.c **** }
1028:Drivers/STM32F1xx_HAL_Driver/Src/stm32f1xx_hal_rcc.c **** 
1029:Drivers/STM32F1xx_HAL_Driver/Src/stm32f1xx_hal_rcc.c **** /**
1030:Drivers/STM32F1xx_HAL_Driver/Src/stm32f1xx_hal_rcc.c ****   * @brief  Enables the Clock Security System.
1031:Drivers/STM32F1xx_HAL_Driver/Src/stm32f1xx_hal_rcc.c ****   * @note   If a failure is detected on the HSE oscillator clock, this oscillator
1032:Drivers/STM32F1xx_HAL_Driver/Src/stm32f1xx_hal_rcc.c ****   *         is automatically disabled and an interrupt is generated to inform the
1033:Drivers/STM32F1xx_HAL_Driver/Src/stm32f1xx_hal_rcc.c ****   *         software about the failure (Clock Security System Interrupt, CSSI),
1034:Drivers/STM32F1xx_HAL_Driver/Src/stm32f1xx_hal_rcc.c ****   *         allowing the MCU to perform rescue operations. The CSSI is linked to
1035:Drivers/STM32F1xx_HAL_Driver/Src/stm32f1xx_hal_rcc.c ****   *         the Cortex-M3 NMI (Non-Maskable Interrupt) exception vector.
1036:Drivers/STM32F1xx_HAL_Driver/Src/stm32f1xx_hal_rcc.c ****   * @retval None
1037:Drivers/STM32F1xx_HAL_Driver/Src/stm32f1xx_hal_rcc.c ****   */
1038:Drivers/STM32F1xx_HAL_Driver/Src/stm32f1xx_hal_rcc.c **** void HAL_RCC_EnableCSS(void)
1039:Drivers/STM32F1xx_HAL_Driver/Src/stm32f1xx_hal_rcc.c **** {
1040:Drivers/STM32F1xx_HAL_Driver/Src/stm32f1xx_hal_rcc.c ****   *(__IO uint32_t *) RCC_CR_CSSON_BB = (uint32_t)ENABLE;
1041:Drivers/STM32F1xx_HAL_Driver/Src/stm32f1xx_hal_rcc.c **** }
1042:Drivers/STM32F1xx_HAL_Driver/Src/stm32f1xx_hal_rcc.c **** 
1043:Drivers/STM32F1xx_HAL_Driver/Src/stm32f1xx_hal_rcc.c **** /**
1044:Drivers/STM32F1xx_HAL_Driver/Src/stm32f1xx_hal_rcc.c ****   * @brief  Disables the Clock Security System.
1045:Drivers/STM32F1xx_HAL_Driver/Src/stm32f1xx_hal_rcc.c ****   * @retval None
1046:Drivers/STM32F1xx_HAL_Driver/Src/stm32f1xx_hal_rcc.c ****   */
1047:Drivers/STM32F1xx_HAL_Driver/Src/stm32f1xx_hal_rcc.c **** void HAL_RCC_DisableCSS(void)
1048:Drivers/STM32F1xx_HAL_Driver/Src/stm32f1xx_hal_rcc.c **** {
1049:Drivers/STM32F1xx_HAL_Driver/Src/stm32f1xx_hal_rcc.c ****   *(__IO uint32_t *) RCC_CR_CSSON_BB = (uint32_t)DISABLE;
1050:Drivers/STM32F1xx_HAL_Driver/Src/stm32f1xx_hal_rcc.c **** }
1051:Drivers/STM32F1xx_HAL_Driver/Src/stm32f1xx_hal_rcc.c **** 
1052:Drivers/STM32F1xx_HAL_Driver/Src/stm32f1xx_hal_rcc.c **** /**
1053:Drivers/STM32F1xx_HAL_Driver/Src/stm32f1xx_hal_rcc.c ****   * @brief  Returns the SYSCLK frequency
1054:Drivers/STM32F1xx_HAL_Driver/Src/stm32f1xx_hal_rcc.c ****   * @note   The system frequency computed by this function is not the real
1055:Drivers/STM32F1xx_HAL_Driver/Src/stm32f1xx_hal_rcc.c ****   *         frequency in the chip. It is calculated based on the predefined
1056:Drivers/STM32F1xx_HAL_Driver/Src/stm32f1xx_hal_rcc.c ****   *         constant and the selected clock source:
1057:Drivers/STM32F1xx_HAL_Driver/Src/stm32f1xx_hal_rcc.c ****   * @note     If SYSCLK source is HSI, function returns values based on HSI_VALUE(*)
1058:Drivers/STM32F1xx_HAL_Driver/Src/stm32f1xx_hal_rcc.c ****   * @note     If SYSCLK source is HSE, function returns a value based on HSE_VALUE
ARM GAS  C:\Users\begre\AppData\Local\Temp\ccwT0kAZ.s 			page 20


1059:Drivers/STM32F1xx_HAL_Driver/Src/stm32f1xx_hal_rcc.c ****   *           divided by PREDIV factor(**)
1060:Drivers/STM32F1xx_HAL_Driver/Src/stm32f1xx_hal_rcc.c ****   * @note     If SYSCLK source is PLL, function returns a value based on HSE_VALUE
1061:Drivers/STM32F1xx_HAL_Driver/Src/stm32f1xx_hal_rcc.c ****   *           divided by PREDIV factor(**) or HSI_VALUE(*) multiplied by the PLL factor.
1062:Drivers/STM32F1xx_HAL_Driver/Src/stm32f1xx_hal_rcc.c ****   * @note     (*) HSI_VALUE is a constant defined in stm32f1xx_hal_conf.h file (default value
1063:Drivers/STM32F1xx_HAL_Driver/Src/stm32f1xx_hal_rcc.c ****   *               8 MHz) but the real value may vary depending on the variations
1064:Drivers/STM32F1xx_HAL_Driver/Src/stm32f1xx_hal_rcc.c ****   *               in voltage and temperature.
1065:Drivers/STM32F1xx_HAL_Driver/Src/stm32f1xx_hal_rcc.c ****   * @note     (**) HSE_VALUE is a constant defined in stm32f1xx_hal_conf.h file (default value
1066:Drivers/STM32F1xx_HAL_Driver/Src/stm32f1xx_hal_rcc.c ****   *                8 MHz), user has to ensure that HSE_VALUE is same as the real
1067:Drivers/STM32F1xx_HAL_Driver/Src/stm32f1xx_hal_rcc.c ****   *                frequency of the crystal used. Otherwise, this function may
1068:Drivers/STM32F1xx_HAL_Driver/Src/stm32f1xx_hal_rcc.c ****   *                have wrong result.
1069:Drivers/STM32F1xx_HAL_Driver/Src/stm32f1xx_hal_rcc.c ****   *
1070:Drivers/STM32F1xx_HAL_Driver/Src/stm32f1xx_hal_rcc.c ****   * @note   The result of this function could be not correct when using fractional
1071:Drivers/STM32F1xx_HAL_Driver/Src/stm32f1xx_hal_rcc.c ****   *         value for HSE crystal.
1072:Drivers/STM32F1xx_HAL_Driver/Src/stm32f1xx_hal_rcc.c ****   *
1073:Drivers/STM32F1xx_HAL_Driver/Src/stm32f1xx_hal_rcc.c ****   * @note   This function can be used by the user application to compute the
1074:Drivers/STM32F1xx_HAL_Driver/Src/stm32f1xx_hal_rcc.c ****   *         baud-rate for the communication peripherals or configure other parameters.
1075:Drivers/STM32F1xx_HAL_Driver/Src/stm32f1xx_hal_rcc.c ****   *
1076:Drivers/STM32F1xx_HAL_Driver/Src/stm32f1xx_hal_rcc.c ****   * @note   Each time SYSCLK changes, this function must be called to update the
1077:Drivers/STM32F1xx_HAL_Driver/Src/stm32f1xx_hal_rcc.c ****   *         right SYSCLK value. Otherwise, any configuration based on this function will be incorre
1078:Drivers/STM32F1xx_HAL_Driver/Src/stm32f1xx_hal_rcc.c ****   *
1079:Drivers/STM32F1xx_HAL_Driver/Src/stm32f1xx_hal_rcc.c ****   * @retval SYSCLK frequency
1080:Drivers/STM32F1xx_HAL_Driver/Src/stm32f1xx_hal_rcc.c ****   */
1081:Drivers/STM32F1xx_HAL_Driver/Src/stm32f1xx_hal_rcc.c **** uint32_t HAL_RCC_GetSysClockFreq(void)
1082:Drivers/STM32F1xx_HAL_Driver/Src/stm32f1xx_hal_rcc.c **** {
1083:Drivers/STM32F1xx_HAL_Driver/Src/stm32f1xx_hal_rcc.c **** #if defined(RCC_CFGR2_PREDIV1SRC)
1084:Drivers/STM32F1xx_HAL_Driver/Src/stm32f1xx_hal_rcc.c ****   static const uint8_t aPLLMULFactorTable[14U] = {0, 0, 4, 5, 6, 7, 8, 9, 0, 0, 0, 0, 0, 13};
1085:Drivers/STM32F1xx_HAL_Driver/Src/stm32f1xx_hal_rcc.c ****   static const uint8_t aPredivFactorTable[16U] = {1, 2, 3, 4, 5, 6, 7, 8, 9, 10, 11, 12, 13, 14, 15
1086:Drivers/STM32F1xx_HAL_Driver/Src/stm32f1xx_hal_rcc.c **** #else
1087:Drivers/STM32F1xx_HAL_Driver/Src/stm32f1xx_hal_rcc.c ****   static const uint8_t aPLLMULFactorTable[16U] = {2, 3, 4, 5, 6, 7, 8, 9, 10, 11, 12, 13, 14, 15, 1
1088:Drivers/STM32F1xx_HAL_Driver/Src/stm32f1xx_hal_rcc.c **** #if defined(RCC_CFGR2_PREDIV1)
1089:Drivers/STM32F1xx_HAL_Driver/Src/stm32f1xx_hal_rcc.c ****   static const uint8_t aPredivFactorTable[16U] = {1, 2, 3, 4, 5, 6, 7, 8, 9, 10, 11, 12, 13, 14, 15
1090:Drivers/STM32F1xx_HAL_Driver/Src/stm32f1xx_hal_rcc.c **** #else
1091:Drivers/STM32F1xx_HAL_Driver/Src/stm32f1xx_hal_rcc.c ****   static const uint8_t aPredivFactorTable[2U] = {1, 2};
1092:Drivers/STM32F1xx_HAL_Driver/Src/stm32f1xx_hal_rcc.c **** #endif /*RCC_CFGR2_PREDIV1*/
1093:Drivers/STM32F1xx_HAL_Driver/Src/stm32f1xx_hal_rcc.c **** 
1094:Drivers/STM32F1xx_HAL_Driver/Src/stm32f1xx_hal_rcc.c **** #endif
1095:Drivers/STM32F1xx_HAL_Driver/Src/stm32f1xx_hal_rcc.c ****   uint32_t tmpreg = 0U, prediv = 0U, pllclk = 0U, pllmul = 0U;
1096:Drivers/STM32F1xx_HAL_Driver/Src/stm32f1xx_hal_rcc.c ****   uint32_t sysclockfreq = 0U;
1097:Drivers/STM32F1xx_HAL_Driver/Src/stm32f1xx_hal_rcc.c **** #if defined(RCC_CFGR2_PREDIV1SRC)
1098:Drivers/STM32F1xx_HAL_Driver/Src/stm32f1xx_hal_rcc.c ****   uint32_t prediv2 = 0U, pll2mul = 0U;
1099:Drivers/STM32F1xx_HAL_Driver/Src/stm32f1xx_hal_rcc.c **** #endif /*RCC_CFGR2_PREDIV1SRC*/
1100:Drivers/STM32F1xx_HAL_Driver/Src/stm32f1xx_hal_rcc.c **** 
1101:Drivers/STM32F1xx_HAL_Driver/Src/stm32f1xx_hal_rcc.c ****   tmpreg = RCC->CFGR;
1102:Drivers/STM32F1xx_HAL_Driver/Src/stm32f1xx_hal_rcc.c **** 
1103:Drivers/STM32F1xx_HAL_Driver/Src/stm32f1xx_hal_rcc.c ****   /* Get SYSCLK source -------------------------------------------------------*/
1104:Drivers/STM32F1xx_HAL_Driver/Src/stm32f1xx_hal_rcc.c ****   switch (tmpreg & RCC_CFGR_SWS)
1105:Drivers/STM32F1xx_HAL_Driver/Src/stm32f1xx_hal_rcc.c ****   {
1106:Drivers/STM32F1xx_HAL_Driver/Src/stm32f1xx_hal_rcc.c ****     case RCC_SYSCLKSOURCE_STATUS_HSE:  /* HSE used as system clock */
1107:Drivers/STM32F1xx_HAL_Driver/Src/stm32f1xx_hal_rcc.c ****     {
1108:Drivers/STM32F1xx_HAL_Driver/Src/stm32f1xx_hal_rcc.c ****       sysclockfreq = HSE_VALUE;
1109:Drivers/STM32F1xx_HAL_Driver/Src/stm32f1xx_hal_rcc.c ****       break;
1110:Drivers/STM32F1xx_HAL_Driver/Src/stm32f1xx_hal_rcc.c ****     }
1111:Drivers/STM32F1xx_HAL_Driver/Src/stm32f1xx_hal_rcc.c ****     case RCC_SYSCLKSOURCE_STATUS_PLLCLK:  /* PLL used as system clock */
1112:Drivers/STM32F1xx_HAL_Driver/Src/stm32f1xx_hal_rcc.c ****     {
1113:Drivers/STM32F1xx_HAL_Driver/Src/stm32f1xx_hal_rcc.c ****       pllmul = aPLLMULFactorTable[(uint32_t)(tmpreg & RCC_CFGR_PLLMULL) >> RCC_CFGR_PLLMULL_Pos];
1114:Drivers/STM32F1xx_HAL_Driver/Src/stm32f1xx_hal_rcc.c ****       if ((tmpreg & RCC_CFGR_PLLSRC) != RCC_PLLSOURCE_HSI_DIV2)
1115:Drivers/STM32F1xx_HAL_Driver/Src/stm32f1xx_hal_rcc.c ****       {
ARM GAS  C:\Users\begre\AppData\Local\Temp\ccwT0kAZ.s 			page 21


1116:Drivers/STM32F1xx_HAL_Driver/Src/stm32f1xx_hal_rcc.c **** #if defined(RCC_CFGR2_PREDIV1)
1117:Drivers/STM32F1xx_HAL_Driver/Src/stm32f1xx_hal_rcc.c ****         prediv = aPredivFactorTable[(uint32_t)(RCC->CFGR2 & RCC_CFGR2_PREDIV1) >> RCC_CFGR2_PREDIV1
1118:Drivers/STM32F1xx_HAL_Driver/Src/stm32f1xx_hal_rcc.c **** #else
1119:Drivers/STM32F1xx_HAL_Driver/Src/stm32f1xx_hal_rcc.c ****         prediv = aPredivFactorTable[(uint32_t)(RCC->CFGR & RCC_CFGR_PLLXTPRE) >> RCC_CFGR_PLLXTPRE_
1120:Drivers/STM32F1xx_HAL_Driver/Src/stm32f1xx_hal_rcc.c **** #endif /*RCC_CFGR2_PREDIV1*/
1121:Drivers/STM32F1xx_HAL_Driver/Src/stm32f1xx_hal_rcc.c **** #if defined(RCC_CFGR2_PREDIV1SRC)
1122:Drivers/STM32F1xx_HAL_Driver/Src/stm32f1xx_hal_rcc.c **** 
1123:Drivers/STM32F1xx_HAL_Driver/Src/stm32f1xx_hal_rcc.c ****         if (HAL_IS_BIT_SET(RCC->CFGR2, RCC_CFGR2_PREDIV1SRC))
1124:Drivers/STM32F1xx_HAL_Driver/Src/stm32f1xx_hal_rcc.c ****         {
1125:Drivers/STM32F1xx_HAL_Driver/Src/stm32f1xx_hal_rcc.c ****           /* PLL2 selected as Prediv1 source */
1126:Drivers/STM32F1xx_HAL_Driver/Src/stm32f1xx_hal_rcc.c ****           /* PLLCLK = PLL2CLK / PREDIV1 * PLLMUL with PLL2CLK = HSE/PREDIV2 * PLL2MUL */
1127:Drivers/STM32F1xx_HAL_Driver/Src/stm32f1xx_hal_rcc.c ****           prediv2 = ((RCC->CFGR2 & RCC_CFGR2_PREDIV2) >> RCC_CFGR2_PREDIV2_Pos) + 1;
1128:Drivers/STM32F1xx_HAL_Driver/Src/stm32f1xx_hal_rcc.c ****           pll2mul = ((RCC->CFGR2 & RCC_CFGR2_PLL2MUL) >> RCC_CFGR2_PLL2MUL_Pos) + 2;
1129:Drivers/STM32F1xx_HAL_Driver/Src/stm32f1xx_hal_rcc.c ****           pllclk = (uint32_t)(((uint64_t)HSE_VALUE * (uint64_t)pll2mul * (uint64_t)pllmul) / ((uint
1130:Drivers/STM32F1xx_HAL_Driver/Src/stm32f1xx_hal_rcc.c ****         }
1131:Drivers/STM32F1xx_HAL_Driver/Src/stm32f1xx_hal_rcc.c ****         else
1132:Drivers/STM32F1xx_HAL_Driver/Src/stm32f1xx_hal_rcc.c ****         {
1133:Drivers/STM32F1xx_HAL_Driver/Src/stm32f1xx_hal_rcc.c ****           /* HSE used as PLL clock source : PLLCLK = HSE/PREDIV1 * PLLMUL */
1134:Drivers/STM32F1xx_HAL_Driver/Src/stm32f1xx_hal_rcc.c ****           pllclk = (uint32_t)((HSE_VALUE * pllmul) / prediv);
1135:Drivers/STM32F1xx_HAL_Driver/Src/stm32f1xx_hal_rcc.c ****         }
1136:Drivers/STM32F1xx_HAL_Driver/Src/stm32f1xx_hal_rcc.c **** 
1137:Drivers/STM32F1xx_HAL_Driver/Src/stm32f1xx_hal_rcc.c ****         /* If PLLMUL was set to 13 means that it was to cover the case PLLMUL 6.5 (avoid using floa
1138:Drivers/STM32F1xx_HAL_Driver/Src/stm32f1xx_hal_rcc.c ****         /* In this case need to divide pllclk by 2 */
1139:Drivers/STM32F1xx_HAL_Driver/Src/stm32f1xx_hal_rcc.c ****         if (pllmul == aPLLMULFactorTable[(uint32_t)(RCC_CFGR_PLLMULL6_5) >> RCC_CFGR_PLLMULL_Pos])
1140:Drivers/STM32F1xx_HAL_Driver/Src/stm32f1xx_hal_rcc.c ****         {
1141:Drivers/STM32F1xx_HAL_Driver/Src/stm32f1xx_hal_rcc.c ****           pllclk = pllclk / 2;
1142:Drivers/STM32F1xx_HAL_Driver/Src/stm32f1xx_hal_rcc.c ****         }
1143:Drivers/STM32F1xx_HAL_Driver/Src/stm32f1xx_hal_rcc.c **** #else
1144:Drivers/STM32F1xx_HAL_Driver/Src/stm32f1xx_hal_rcc.c ****         /* HSE used as PLL clock source : PLLCLK = HSE/PREDIV1 * PLLMUL */
1145:Drivers/STM32F1xx_HAL_Driver/Src/stm32f1xx_hal_rcc.c ****         pllclk = (uint32_t)((HSE_VALUE  * pllmul) / prediv);
1146:Drivers/STM32F1xx_HAL_Driver/Src/stm32f1xx_hal_rcc.c **** #endif /*RCC_CFGR2_PREDIV1SRC*/
1147:Drivers/STM32F1xx_HAL_Driver/Src/stm32f1xx_hal_rcc.c ****       }
1148:Drivers/STM32F1xx_HAL_Driver/Src/stm32f1xx_hal_rcc.c ****       else
1149:Drivers/STM32F1xx_HAL_Driver/Src/stm32f1xx_hal_rcc.c ****       {
1150:Drivers/STM32F1xx_HAL_Driver/Src/stm32f1xx_hal_rcc.c ****         /* HSI used as PLL clock source : PLLCLK = HSI/2 * PLLMUL */
1151:Drivers/STM32F1xx_HAL_Driver/Src/stm32f1xx_hal_rcc.c ****         pllclk = (uint32_t)((HSI_VALUE >> 1) * pllmul);
1152:Drivers/STM32F1xx_HAL_Driver/Src/stm32f1xx_hal_rcc.c ****       }
1153:Drivers/STM32F1xx_HAL_Driver/Src/stm32f1xx_hal_rcc.c ****       sysclockfreq = pllclk;
1154:Drivers/STM32F1xx_HAL_Driver/Src/stm32f1xx_hal_rcc.c ****       break;
1155:Drivers/STM32F1xx_HAL_Driver/Src/stm32f1xx_hal_rcc.c ****     }
1156:Drivers/STM32F1xx_HAL_Driver/Src/stm32f1xx_hal_rcc.c ****     case RCC_SYSCLKSOURCE_STATUS_HSI:  /* HSI used as system clock source */
1157:Drivers/STM32F1xx_HAL_Driver/Src/stm32f1xx_hal_rcc.c ****     default: /* HSI used as system clock */
1158:Drivers/STM32F1xx_HAL_Driver/Src/stm32f1xx_hal_rcc.c ****     {
1159:Drivers/STM32F1xx_HAL_Driver/Src/stm32f1xx_hal_rcc.c ****       sysclockfreq = HSI_VALUE;
1160:Drivers/STM32F1xx_HAL_Driver/Src/stm32f1xx_hal_rcc.c ****       break;
1161:Drivers/STM32F1xx_HAL_Driver/Src/stm32f1xx_hal_rcc.c ****     }
1162:Drivers/STM32F1xx_HAL_Driver/Src/stm32f1xx_hal_rcc.c ****   }
1163:Drivers/STM32F1xx_HAL_Driver/Src/stm32f1xx_hal_rcc.c ****   return sysclockfreq;
1164:Drivers/STM32F1xx_HAL_Driver/Src/stm32f1xx_hal_rcc.c **** }
1165:Drivers/STM32F1xx_HAL_Driver/Src/stm32f1xx_hal_rcc.c **** 
1166:Drivers/STM32F1xx_HAL_Driver/Src/stm32f1xx_hal_rcc.c **** /**
1167:Drivers/STM32F1xx_HAL_Driver/Src/stm32f1xx_hal_rcc.c ****   * @brief  Returns the HCLK frequency
1168:Drivers/STM32F1xx_HAL_Driver/Src/stm32f1xx_hal_rcc.c ****   * @note   Each time HCLK changes, this function must be called to update the
1169:Drivers/STM32F1xx_HAL_Driver/Src/stm32f1xx_hal_rcc.c ****   *         right HCLK value. Otherwise, any configuration based on this function will be incorrect
1170:Drivers/STM32F1xx_HAL_Driver/Src/stm32f1xx_hal_rcc.c ****   *
1171:Drivers/STM32F1xx_HAL_Driver/Src/stm32f1xx_hal_rcc.c ****   * @note   The SystemCoreClock CMSIS variable is used to store System Clock Frequency
1172:Drivers/STM32F1xx_HAL_Driver/Src/stm32f1xx_hal_rcc.c ****   *         and updated within this function
ARM GAS  C:\Users\begre\AppData\Local\Temp\ccwT0kAZ.s 			page 22


1173:Drivers/STM32F1xx_HAL_Driver/Src/stm32f1xx_hal_rcc.c ****   * @retval HCLK frequency
1174:Drivers/STM32F1xx_HAL_Driver/Src/stm32f1xx_hal_rcc.c ****   */
1175:Drivers/STM32F1xx_HAL_Driver/Src/stm32f1xx_hal_rcc.c **** uint32_t HAL_RCC_GetHCLKFreq(void)
1176:Drivers/STM32F1xx_HAL_Driver/Src/stm32f1xx_hal_rcc.c **** {
1177:Drivers/STM32F1xx_HAL_Driver/Src/stm32f1xx_hal_rcc.c ****   return SystemCoreClock;
1178:Drivers/STM32F1xx_HAL_Driver/Src/stm32f1xx_hal_rcc.c **** }
1179:Drivers/STM32F1xx_HAL_Driver/Src/stm32f1xx_hal_rcc.c **** 
1180:Drivers/STM32F1xx_HAL_Driver/Src/stm32f1xx_hal_rcc.c **** /**
1181:Drivers/STM32F1xx_HAL_Driver/Src/stm32f1xx_hal_rcc.c ****   * @brief  Returns the PCLK1 frequency
1182:Drivers/STM32F1xx_HAL_Driver/Src/stm32f1xx_hal_rcc.c ****   * @note   Each time PCLK1 changes, this function must be called to update the
1183:Drivers/STM32F1xx_HAL_Driver/Src/stm32f1xx_hal_rcc.c ****   *         right PCLK1 value. Otherwise, any configuration based on this function will be incorrec
1184:Drivers/STM32F1xx_HAL_Driver/Src/stm32f1xx_hal_rcc.c ****   * @retval PCLK1 frequency
1185:Drivers/STM32F1xx_HAL_Driver/Src/stm32f1xx_hal_rcc.c ****   */
1186:Drivers/STM32F1xx_HAL_Driver/Src/stm32f1xx_hal_rcc.c **** uint32_t HAL_RCC_GetPCLK1Freq(void)
1187:Drivers/STM32F1xx_HAL_Driver/Src/stm32f1xx_hal_rcc.c **** {
1188:Drivers/STM32F1xx_HAL_Driver/Src/stm32f1xx_hal_rcc.c ****   /* Get HCLK source and Compute PCLK1 frequency ---------------------------*/
1189:Drivers/STM32F1xx_HAL_Driver/Src/stm32f1xx_hal_rcc.c ****   return (HAL_RCC_GetHCLKFreq() >> APBPrescTable[(RCC->CFGR & RCC_CFGR_PPRE1) >> RCC_CFGR_PPRE1_Pos
1190:Drivers/STM32F1xx_HAL_Driver/Src/stm32f1xx_hal_rcc.c **** }
1191:Drivers/STM32F1xx_HAL_Driver/Src/stm32f1xx_hal_rcc.c **** 
1192:Drivers/STM32F1xx_HAL_Driver/Src/stm32f1xx_hal_rcc.c **** /**
1193:Drivers/STM32F1xx_HAL_Driver/Src/stm32f1xx_hal_rcc.c ****   * @brief  Returns the PCLK2 frequency
1194:Drivers/STM32F1xx_HAL_Driver/Src/stm32f1xx_hal_rcc.c ****   * @note   Each time PCLK2 changes, this function must be called to update the
1195:Drivers/STM32F1xx_HAL_Driver/Src/stm32f1xx_hal_rcc.c ****   *         right PCLK2 value. Otherwise, any configuration based on this function will be incorrec
1196:Drivers/STM32F1xx_HAL_Driver/Src/stm32f1xx_hal_rcc.c ****   * @retval PCLK2 frequency
1197:Drivers/STM32F1xx_HAL_Driver/Src/stm32f1xx_hal_rcc.c ****   */
1198:Drivers/STM32F1xx_HAL_Driver/Src/stm32f1xx_hal_rcc.c **** uint32_t HAL_RCC_GetPCLK2Freq(void)
1199:Drivers/STM32F1xx_HAL_Driver/Src/stm32f1xx_hal_rcc.c **** {
1200:Drivers/STM32F1xx_HAL_Driver/Src/stm32f1xx_hal_rcc.c ****   /* Get HCLK source and Compute PCLK2 frequency ---------------------------*/
1201:Drivers/STM32F1xx_HAL_Driver/Src/stm32f1xx_hal_rcc.c ****   return (HAL_RCC_GetHCLKFreq() >> APBPrescTable[(RCC->CFGR & RCC_CFGR_PPRE2) >> RCC_CFGR_PPRE2_Pos
1202:Drivers/STM32F1xx_HAL_Driver/Src/stm32f1xx_hal_rcc.c **** }
1203:Drivers/STM32F1xx_HAL_Driver/Src/stm32f1xx_hal_rcc.c **** 
1204:Drivers/STM32F1xx_HAL_Driver/Src/stm32f1xx_hal_rcc.c **** /**
1205:Drivers/STM32F1xx_HAL_Driver/Src/stm32f1xx_hal_rcc.c ****   * @brief  Configures the RCC_OscInitStruct according to the internal
1206:Drivers/STM32F1xx_HAL_Driver/Src/stm32f1xx_hal_rcc.c ****   * RCC configuration registers.
1207:Drivers/STM32F1xx_HAL_Driver/Src/stm32f1xx_hal_rcc.c ****   * @param  RCC_OscInitStruct pointer to an RCC_OscInitTypeDef structure that
1208:Drivers/STM32F1xx_HAL_Driver/Src/stm32f1xx_hal_rcc.c ****   * will be configured.
1209:Drivers/STM32F1xx_HAL_Driver/Src/stm32f1xx_hal_rcc.c ****   * @retval None
1210:Drivers/STM32F1xx_HAL_Driver/Src/stm32f1xx_hal_rcc.c ****   */
1211:Drivers/STM32F1xx_HAL_Driver/Src/stm32f1xx_hal_rcc.c **** void HAL_RCC_GetOscConfig(RCC_OscInitTypeDef  *RCC_OscInitStruct)
1212:Drivers/STM32F1xx_HAL_Driver/Src/stm32f1xx_hal_rcc.c **** {
1213:Drivers/STM32F1xx_HAL_Driver/Src/stm32f1xx_hal_rcc.c ****   /* Check the parameters */
1214:Drivers/STM32F1xx_HAL_Driver/Src/stm32f1xx_hal_rcc.c ****   assert_param(RCC_OscInitStruct != NULL);
1215:Drivers/STM32F1xx_HAL_Driver/Src/stm32f1xx_hal_rcc.c **** 
1216:Drivers/STM32F1xx_HAL_Driver/Src/stm32f1xx_hal_rcc.c ****   /* Set all possible values for the Oscillator type parameter ---------------*/
1217:Drivers/STM32F1xx_HAL_Driver/Src/stm32f1xx_hal_rcc.c ****   RCC_OscInitStruct->OscillatorType = RCC_OSCILLATORTYPE_HSE | RCC_OSCILLATORTYPE_HSI  \
1218:Drivers/STM32F1xx_HAL_Driver/Src/stm32f1xx_hal_rcc.c ****                                       | RCC_OSCILLATORTYPE_LSE | RCC_OSCILLATORTYPE_LSI;
1219:Drivers/STM32F1xx_HAL_Driver/Src/stm32f1xx_hal_rcc.c **** 
1220:Drivers/STM32F1xx_HAL_Driver/Src/stm32f1xx_hal_rcc.c **** #if defined(RCC_CFGR2_PREDIV1SRC)
1221:Drivers/STM32F1xx_HAL_Driver/Src/stm32f1xx_hal_rcc.c ****   /* Get the Prediv1 source --------------------------------------------------*/
1222:Drivers/STM32F1xx_HAL_Driver/Src/stm32f1xx_hal_rcc.c ****   RCC_OscInitStruct->Prediv1Source = READ_BIT(RCC->CFGR2, RCC_CFGR2_PREDIV1SRC);
1223:Drivers/STM32F1xx_HAL_Driver/Src/stm32f1xx_hal_rcc.c **** #endif /* RCC_CFGR2_PREDIV1SRC */
1224:Drivers/STM32F1xx_HAL_Driver/Src/stm32f1xx_hal_rcc.c **** 
1225:Drivers/STM32F1xx_HAL_Driver/Src/stm32f1xx_hal_rcc.c ****   /* Get the HSE configuration -----------------------------------------------*/
1226:Drivers/STM32F1xx_HAL_Driver/Src/stm32f1xx_hal_rcc.c ****   if ((RCC->CR & RCC_CR_HSEBYP) == RCC_CR_HSEBYP)
1227:Drivers/STM32F1xx_HAL_Driver/Src/stm32f1xx_hal_rcc.c ****   {
1228:Drivers/STM32F1xx_HAL_Driver/Src/stm32f1xx_hal_rcc.c ****     RCC_OscInitStruct->HSEState = RCC_HSE_BYPASS;
1229:Drivers/STM32F1xx_HAL_Driver/Src/stm32f1xx_hal_rcc.c ****   }
ARM GAS  C:\Users\begre\AppData\Local\Temp\ccwT0kAZ.s 			page 23


1230:Drivers/STM32F1xx_HAL_Driver/Src/stm32f1xx_hal_rcc.c ****   else if ((RCC->CR & RCC_CR_HSEON) == RCC_CR_HSEON)
1231:Drivers/STM32F1xx_HAL_Driver/Src/stm32f1xx_hal_rcc.c ****   {
1232:Drivers/STM32F1xx_HAL_Driver/Src/stm32f1xx_hal_rcc.c ****     RCC_OscInitStruct->HSEState = RCC_HSE_ON;
1233:Drivers/STM32F1xx_HAL_Driver/Src/stm32f1xx_hal_rcc.c ****   }
1234:Drivers/STM32F1xx_HAL_Driver/Src/stm32f1xx_hal_rcc.c ****   else
1235:Drivers/STM32F1xx_HAL_Driver/Src/stm32f1xx_hal_rcc.c ****   {
1236:Drivers/STM32F1xx_HAL_Driver/Src/stm32f1xx_hal_rcc.c ****     RCC_OscInitStruct->HSEState = RCC_HSE_OFF;
1237:Drivers/STM32F1xx_HAL_Driver/Src/stm32f1xx_hal_rcc.c ****   }
1238:Drivers/STM32F1xx_HAL_Driver/Src/stm32f1xx_hal_rcc.c ****   RCC_OscInitStruct->HSEPredivValue = __HAL_RCC_HSE_GET_PREDIV();
1239:Drivers/STM32F1xx_HAL_Driver/Src/stm32f1xx_hal_rcc.c **** 
1240:Drivers/STM32F1xx_HAL_Driver/Src/stm32f1xx_hal_rcc.c ****   /* Get the HSI configuration -----------------------------------------------*/
1241:Drivers/STM32F1xx_HAL_Driver/Src/stm32f1xx_hal_rcc.c ****   if ((RCC->CR & RCC_CR_HSION) == RCC_CR_HSION)
1242:Drivers/STM32F1xx_HAL_Driver/Src/stm32f1xx_hal_rcc.c ****   {
1243:Drivers/STM32F1xx_HAL_Driver/Src/stm32f1xx_hal_rcc.c ****     RCC_OscInitStruct->HSIState = RCC_HSI_ON;
1244:Drivers/STM32F1xx_HAL_Driver/Src/stm32f1xx_hal_rcc.c ****   }
1245:Drivers/STM32F1xx_HAL_Driver/Src/stm32f1xx_hal_rcc.c ****   else
1246:Drivers/STM32F1xx_HAL_Driver/Src/stm32f1xx_hal_rcc.c ****   {
1247:Drivers/STM32F1xx_HAL_Driver/Src/stm32f1xx_hal_rcc.c ****     RCC_OscInitStruct->HSIState = RCC_HSI_OFF;
1248:Drivers/STM32F1xx_HAL_Driver/Src/stm32f1xx_hal_rcc.c ****   }
1249:Drivers/STM32F1xx_HAL_Driver/Src/stm32f1xx_hal_rcc.c **** 
1250:Drivers/STM32F1xx_HAL_Driver/Src/stm32f1xx_hal_rcc.c ****   RCC_OscInitStruct->HSICalibrationValue = (uint32_t)((RCC->CR & RCC_CR_HSITRIM) >> RCC_CR_HSITRIM_
1251:Drivers/STM32F1xx_HAL_Driver/Src/stm32f1xx_hal_rcc.c **** 
1252:Drivers/STM32F1xx_HAL_Driver/Src/stm32f1xx_hal_rcc.c ****   /* Get the LSE configuration -----------------------------------------------*/
1253:Drivers/STM32F1xx_HAL_Driver/Src/stm32f1xx_hal_rcc.c ****   if ((RCC->BDCR & RCC_BDCR_LSEBYP) == RCC_BDCR_LSEBYP)
1254:Drivers/STM32F1xx_HAL_Driver/Src/stm32f1xx_hal_rcc.c ****   {
1255:Drivers/STM32F1xx_HAL_Driver/Src/stm32f1xx_hal_rcc.c ****     RCC_OscInitStruct->LSEState = RCC_LSE_BYPASS;
1256:Drivers/STM32F1xx_HAL_Driver/Src/stm32f1xx_hal_rcc.c ****   }
1257:Drivers/STM32F1xx_HAL_Driver/Src/stm32f1xx_hal_rcc.c ****   else if ((RCC->BDCR & RCC_BDCR_LSEON) == RCC_BDCR_LSEON)
1258:Drivers/STM32F1xx_HAL_Driver/Src/stm32f1xx_hal_rcc.c ****   {
1259:Drivers/STM32F1xx_HAL_Driver/Src/stm32f1xx_hal_rcc.c ****     RCC_OscInitStruct->LSEState = RCC_LSE_ON;
1260:Drivers/STM32F1xx_HAL_Driver/Src/stm32f1xx_hal_rcc.c ****   }
1261:Drivers/STM32F1xx_HAL_Driver/Src/stm32f1xx_hal_rcc.c ****   else
1262:Drivers/STM32F1xx_HAL_Driver/Src/stm32f1xx_hal_rcc.c ****   {
1263:Drivers/STM32F1xx_HAL_Driver/Src/stm32f1xx_hal_rcc.c ****     RCC_OscInitStruct->LSEState = RCC_LSE_OFF;
1264:Drivers/STM32F1xx_HAL_Driver/Src/stm32f1xx_hal_rcc.c ****   }
1265:Drivers/STM32F1xx_HAL_Driver/Src/stm32f1xx_hal_rcc.c **** 
1266:Drivers/STM32F1xx_HAL_Driver/Src/stm32f1xx_hal_rcc.c ****   /* Get the LSI configuration -----------------------------------------------*/
1267:Drivers/STM32F1xx_HAL_Driver/Src/stm32f1xx_hal_rcc.c ****   if ((RCC->CSR & RCC_CSR_LSION) == RCC_CSR_LSION)
1268:Drivers/STM32F1xx_HAL_Driver/Src/stm32f1xx_hal_rcc.c ****   {
1269:Drivers/STM32F1xx_HAL_Driver/Src/stm32f1xx_hal_rcc.c ****     RCC_OscInitStruct->LSIState = RCC_LSI_ON;
1270:Drivers/STM32F1xx_HAL_Driver/Src/stm32f1xx_hal_rcc.c ****   }
1271:Drivers/STM32F1xx_HAL_Driver/Src/stm32f1xx_hal_rcc.c ****   else
1272:Drivers/STM32F1xx_HAL_Driver/Src/stm32f1xx_hal_rcc.c ****   {
1273:Drivers/STM32F1xx_HAL_Driver/Src/stm32f1xx_hal_rcc.c ****     RCC_OscInitStruct->LSIState = RCC_LSI_OFF;
1274:Drivers/STM32F1xx_HAL_Driver/Src/stm32f1xx_hal_rcc.c ****   }
1275:Drivers/STM32F1xx_HAL_Driver/Src/stm32f1xx_hal_rcc.c **** 
1276:Drivers/STM32F1xx_HAL_Driver/Src/stm32f1xx_hal_rcc.c **** 
1277:Drivers/STM32F1xx_HAL_Driver/Src/stm32f1xx_hal_rcc.c ****   /* Get the PLL configuration -----------------------------------------------*/
1278:Drivers/STM32F1xx_HAL_Driver/Src/stm32f1xx_hal_rcc.c ****   if ((RCC->CR & RCC_CR_PLLON) == RCC_CR_PLLON)
1279:Drivers/STM32F1xx_HAL_Driver/Src/stm32f1xx_hal_rcc.c ****   {
1280:Drivers/STM32F1xx_HAL_Driver/Src/stm32f1xx_hal_rcc.c ****     RCC_OscInitStruct->PLL.PLLState = RCC_PLL_ON;
1281:Drivers/STM32F1xx_HAL_Driver/Src/stm32f1xx_hal_rcc.c ****   }
1282:Drivers/STM32F1xx_HAL_Driver/Src/stm32f1xx_hal_rcc.c ****   else
1283:Drivers/STM32F1xx_HAL_Driver/Src/stm32f1xx_hal_rcc.c ****   {
1284:Drivers/STM32F1xx_HAL_Driver/Src/stm32f1xx_hal_rcc.c ****     RCC_OscInitStruct->PLL.PLLState = RCC_PLL_OFF;
1285:Drivers/STM32F1xx_HAL_Driver/Src/stm32f1xx_hal_rcc.c ****   }
1286:Drivers/STM32F1xx_HAL_Driver/Src/stm32f1xx_hal_rcc.c ****   RCC_OscInitStruct->PLL.PLLSource = (uint32_t)(RCC->CFGR & RCC_CFGR_PLLSRC);
ARM GAS  C:\Users\begre\AppData\Local\Temp\ccwT0kAZ.s 			page 24


1287:Drivers/STM32F1xx_HAL_Driver/Src/stm32f1xx_hal_rcc.c ****   RCC_OscInitStruct->PLL.PLLMUL = (uint32_t)(RCC->CFGR & RCC_CFGR_PLLMULL);
1288:Drivers/STM32F1xx_HAL_Driver/Src/stm32f1xx_hal_rcc.c **** #if defined(RCC_CR_PLL2ON)
1289:Drivers/STM32F1xx_HAL_Driver/Src/stm32f1xx_hal_rcc.c ****   /* Get the PLL2 configuration -----------------------------------------------*/
1290:Drivers/STM32F1xx_HAL_Driver/Src/stm32f1xx_hal_rcc.c ****   if ((RCC->CR & RCC_CR_PLL2ON) == RCC_CR_PLL2ON)
1291:Drivers/STM32F1xx_HAL_Driver/Src/stm32f1xx_hal_rcc.c ****   {
1292:Drivers/STM32F1xx_HAL_Driver/Src/stm32f1xx_hal_rcc.c ****     RCC_OscInitStruct->PLL2.PLL2State = RCC_PLL2_ON;
1293:Drivers/STM32F1xx_HAL_Driver/Src/stm32f1xx_hal_rcc.c ****   }
1294:Drivers/STM32F1xx_HAL_Driver/Src/stm32f1xx_hal_rcc.c ****   else
1295:Drivers/STM32F1xx_HAL_Driver/Src/stm32f1xx_hal_rcc.c ****   {
1296:Drivers/STM32F1xx_HAL_Driver/Src/stm32f1xx_hal_rcc.c ****     RCC_OscInitStruct->PLL2.PLL2State = RCC_PLL2_OFF;
1297:Drivers/STM32F1xx_HAL_Driver/Src/stm32f1xx_hal_rcc.c ****   }
1298:Drivers/STM32F1xx_HAL_Driver/Src/stm32f1xx_hal_rcc.c ****   RCC_OscInitStruct->PLL2.HSEPrediv2Value = __HAL_RCC_HSE_GET_PREDIV2();
1299:Drivers/STM32F1xx_HAL_Driver/Src/stm32f1xx_hal_rcc.c ****   RCC_OscInitStruct->PLL2.PLL2MUL = (uint32_t)(RCC->CFGR2 & RCC_CFGR2_PLL2MUL);
1300:Drivers/STM32F1xx_HAL_Driver/Src/stm32f1xx_hal_rcc.c **** #endif /* RCC_CR_PLL2ON */
1301:Drivers/STM32F1xx_HAL_Driver/Src/stm32f1xx_hal_rcc.c **** }
1302:Drivers/STM32F1xx_HAL_Driver/Src/stm32f1xx_hal_rcc.c **** 
1303:Drivers/STM32F1xx_HAL_Driver/Src/stm32f1xx_hal_rcc.c **** /**
1304:Drivers/STM32F1xx_HAL_Driver/Src/stm32f1xx_hal_rcc.c ****   * @brief  Get the RCC_ClkInitStruct according to the internal
1305:Drivers/STM32F1xx_HAL_Driver/Src/stm32f1xx_hal_rcc.c ****   * RCC configuration registers.
1306:Drivers/STM32F1xx_HAL_Driver/Src/stm32f1xx_hal_rcc.c ****   * @param  RCC_ClkInitStruct pointer to an RCC_ClkInitTypeDef structure that
1307:Drivers/STM32F1xx_HAL_Driver/Src/stm32f1xx_hal_rcc.c ****   * contains the current clock configuration.
1308:Drivers/STM32F1xx_HAL_Driver/Src/stm32f1xx_hal_rcc.c ****   * @param  pFLatency Pointer on the Flash Latency.
1309:Drivers/STM32F1xx_HAL_Driver/Src/stm32f1xx_hal_rcc.c ****   * @retval None
1310:Drivers/STM32F1xx_HAL_Driver/Src/stm32f1xx_hal_rcc.c ****   */
1311:Drivers/STM32F1xx_HAL_Driver/Src/stm32f1xx_hal_rcc.c **** void HAL_RCC_GetClockConfig(RCC_ClkInitTypeDef  *RCC_ClkInitStruct, uint32_t *pFLatency)
1312:Drivers/STM32F1xx_HAL_Driver/Src/stm32f1xx_hal_rcc.c **** {
1313:Drivers/STM32F1xx_HAL_Driver/Src/stm32f1xx_hal_rcc.c ****   /* Check the parameters */
1314:Drivers/STM32F1xx_HAL_Driver/Src/stm32f1xx_hal_rcc.c ****   assert_param(RCC_ClkInitStruct != NULL);
1315:Drivers/STM32F1xx_HAL_Driver/Src/stm32f1xx_hal_rcc.c ****   assert_param(pFLatency != NULL);
1316:Drivers/STM32F1xx_HAL_Driver/Src/stm32f1xx_hal_rcc.c **** 
1317:Drivers/STM32F1xx_HAL_Driver/Src/stm32f1xx_hal_rcc.c ****   /* Set all possible values for the Clock type parameter --------------------*/
1318:Drivers/STM32F1xx_HAL_Driver/Src/stm32f1xx_hal_rcc.c ****   RCC_ClkInitStruct->ClockType = RCC_CLOCKTYPE_SYSCLK | RCC_CLOCKTYPE_HCLK | RCC_CLOCKTYPE_PCLK1 | 
1319:Drivers/STM32F1xx_HAL_Driver/Src/stm32f1xx_hal_rcc.c **** 
1320:Drivers/STM32F1xx_HAL_Driver/Src/stm32f1xx_hal_rcc.c ****   /* Get the SYSCLK configuration --------------------------------------------*/
1321:Drivers/STM32F1xx_HAL_Driver/Src/stm32f1xx_hal_rcc.c ****   RCC_ClkInitStruct->SYSCLKSource = (uint32_t)(RCC->CFGR & RCC_CFGR_SW);
1322:Drivers/STM32F1xx_HAL_Driver/Src/stm32f1xx_hal_rcc.c **** 
1323:Drivers/STM32F1xx_HAL_Driver/Src/stm32f1xx_hal_rcc.c ****   /* Get the HCLK configuration ----------------------------------------------*/
1324:Drivers/STM32F1xx_HAL_Driver/Src/stm32f1xx_hal_rcc.c ****   RCC_ClkInitStruct->AHBCLKDivider = (uint32_t)(RCC->CFGR & RCC_CFGR_HPRE);
1325:Drivers/STM32F1xx_HAL_Driver/Src/stm32f1xx_hal_rcc.c **** 
1326:Drivers/STM32F1xx_HAL_Driver/Src/stm32f1xx_hal_rcc.c ****   /* Get the APB1 configuration ----------------------------------------------*/
1327:Drivers/STM32F1xx_HAL_Driver/Src/stm32f1xx_hal_rcc.c ****   RCC_ClkInitStruct->APB1CLKDivider = (uint32_t)(RCC->CFGR & RCC_CFGR_PPRE1);
1328:Drivers/STM32F1xx_HAL_Driver/Src/stm32f1xx_hal_rcc.c **** 
1329:Drivers/STM32F1xx_HAL_Driver/Src/stm32f1xx_hal_rcc.c ****   /* Get the APB2 configuration ----------------------------------------------*/
1330:Drivers/STM32F1xx_HAL_Driver/Src/stm32f1xx_hal_rcc.c ****   RCC_ClkInitStruct->APB2CLKDivider = (uint32_t)((RCC->CFGR & RCC_CFGR_PPRE2) >> 3);
1331:Drivers/STM32F1xx_HAL_Driver/Src/stm32f1xx_hal_rcc.c **** 
1332:Drivers/STM32F1xx_HAL_Driver/Src/stm32f1xx_hal_rcc.c **** #if   defined(FLASH_ACR_LATENCY)
1333:Drivers/STM32F1xx_HAL_Driver/Src/stm32f1xx_hal_rcc.c ****   /* Get the Flash Wait State (Latency) configuration ------------------------*/
1334:Drivers/STM32F1xx_HAL_Driver/Src/stm32f1xx_hal_rcc.c ****   *pFLatency = (uint32_t)(FLASH->ACR & FLASH_ACR_LATENCY);
1335:Drivers/STM32F1xx_HAL_Driver/Src/stm32f1xx_hal_rcc.c **** #else
1336:Drivers/STM32F1xx_HAL_Driver/Src/stm32f1xx_hal_rcc.c ****   /* For VALUE lines devices, only LATENCY_0 can be set*/
1337:Drivers/STM32F1xx_HAL_Driver/Src/stm32f1xx_hal_rcc.c ****   *pFLatency = (uint32_t)FLASH_LATENCY_0;
1338:Drivers/STM32F1xx_HAL_Driver/Src/stm32f1xx_hal_rcc.c **** #endif
1339:Drivers/STM32F1xx_HAL_Driver/Src/stm32f1xx_hal_rcc.c **** }
1340:Drivers/STM32F1xx_HAL_Driver/Src/stm32f1xx_hal_rcc.c **** 
1341:Drivers/STM32F1xx_HAL_Driver/Src/stm32f1xx_hal_rcc.c **** /**
1342:Drivers/STM32F1xx_HAL_Driver/Src/stm32f1xx_hal_rcc.c ****   * @brief This function handles the RCC CSS interrupt request.
1343:Drivers/STM32F1xx_HAL_Driver/Src/stm32f1xx_hal_rcc.c ****   * @note This API should be called under the NMI_Handler().
ARM GAS  C:\Users\begre\AppData\Local\Temp\ccwT0kAZ.s 			page 25


1344:Drivers/STM32F1xx_HAL_Driver/Src/stm32f1xx_hal_rcc.c ****   * @retval None
1345:Drivers/STM32F1xx_HAL_Driver/Src/stm32f1xx_hal_rcc.c ****   */
1346:Drivers/STM32F1xx_HAL_Driver/Src/stm32f1xx_hal_rcc.c **** void HAL_RCC_NMI_IRQHandler(void)
1347:Drivers/STM32F1xx_HAL_Driver/Src/stm32f1xx_hal_rcc.c **** {
1348:Drivers/STM32F1xx_HAL_Driver/Src/stm32f1xx_hal_rcc.c ****   /* Check RCC CSSF flag  */
1349:Drivers/STM32F1xx_HAL_Driver/Src/stm32f1xx_hal_rcc.c ****   if (__HAL_RCC_GET_IT(RCC_IT_CSS))
1350:Drivers/STM32F1xx_HAL_Driver/Src/stm32f1xx_hal_rcc.c ****   {
1351:Drivers/STM32F1xx_HAL_Driver/Src/stm32f1xx_hal_rcc.c ****     /* RCC Clock Security System interrupt user callback */
1352:Drivers/STM32F1xx_HAL_Driver/Src/stm32f1xx_hal_rcc.c ****     HAL_RCC_CSSCallback();
1353:Drivers/STM32F1xx_HAL_Driver/Src/stm32f1xx_hal_rcc.c **** 
1354:Drivers/STM32F1xx_HAL_Driver/Src/stm32f1xx_hal_rcc.c ****     /* Clear RCC CSS pending bit */
1355:Drivers/STM32F1xx_HAL_Driver/Src/stm32f1xx_hal_rcc.c ****     __HAL_RCC_CLEAR_IT(RCC_IT_CSS);
1356:Drivers/STM32F1xx_HAL_Driver/Src/stm32f1xx_hal_rcc.c ****   }
1357:Drivers/STM32F1xx_HAL_Driver/Src/stm32f1xx_hal_rcc.c **** }
1358:Drivers/STM32F1xx_HAL_Driver/Src/stm32f1xx_hal_rcc.c **** 
1359:Drivers/STM32F1xx_HAL_Driver/Src/stm32f1xx_hal_rcc.c **** /**
1360:Drivers/STM32F1xx_HAL_Driver/Src/stm32f1xx_hal_rcc.c ****   * @brief  This function provides delay (in milliseconds) based on CPU cycles method.
1361:Drivers/STM32F1xx_HAL_Driver/Src/stm32f1xx_hal_rcc.c ****   * @param  mdelay: specifies the delay time length, in milliseconds.
1362:Drivers/STM32F1xx_HAL_Driver/Src/stm32f1xx_hal_rcc.c ****   * @retval None
1363:Drivers/STM32F1xx_HAL_Driver/Src/stm32f1xx_hal_rcc.c ****   */
1364:Drivers/STM32F1xx_HAL_Driver/Src/stm32f1xx_hal_rcc.c **** static void RCC_Delay(uint32_t mdelay)
1365:Drivers/STM32F1xx_HAL_Driver/Src/stm32f1xx_hal_rcc.c **** {
  27              		.loc 1 1365 1 view -0
  28              		.cfi_startproc
  29              		@ args = 0, pretend = 0, frame = 8
  30              		@ frame_needed = 0, uses_anonymous_args = 0
  31              		@ link register save eliminated.
  32              		.loc 1 1365 1 is_stmt 0 view .LVU1
  33 0000 82B0     		sub	sp, sp, #8
  34              	.LCFI0:
  35              		.cfi_def_cfa_offset 8
1366:Drivers/STM32F1xx_HAL_Driver/Src/stm32f1xx_hal_rcc.c ****   __IO uint32_t Delay = mdelay * (SystemCoreClock / 8U / 1000U);
  36              		.loc 1 1366 3 is_stmt 1 view .LVU2
  37              		.loc 1 1366 56 is_stmt 0 view .LVU3
  38 0002 084B     		ldr	r3, .L4
  39 0004 1B68     		ldr	r3, [r3]
  40 0006 084A     		ldr	r2, .L4+4
  41 0008 A2FB0323 		umull	r2, r3, r2, r3
  42 000c 5B0A     		lsrs	r3, r3, #9
  43              		.loc 1 1366 32 view .LVU4
  44 000e 00FB03F3 		mul	r3, r0, r3
  45              		.loc 1 1366 17 view .LVU5
  46 0012 0193     		str	r3, [sp, #4]
  47              	.L2:
1367:Drivers/STM32F1xx_HAL_Driver/Src/stm32f1xx_hal_rcc.c ****   do
  48              		.loc 1 1367 3 is_stmt 1 discriminator 1 view .LVU6
1368:Drivers/STM32F1xx_HAL_Driver/Src/stm32f1xx_hal_rcc.c ****   {
1369:Drivers/STM32F1xx_HAL_Driver/Src/stm32f1xx_hal_rcc.c ****     __NOP();
  49              		.loc 1 1369 5 discriminator 1 view .LVU7
  50              		.syntax unified
  51              	@ 1369 "Drivers/STM32F1xx_HAL_Driver/Src/stm32f1xx_hal_rcc.c" 1
  52 0014 00BF     		nop
  53              	@ 0 "" 2
1370:Drivers/STM32F1xx_HAL_Driver/Src/stm32f1xx_hal_rcc.c ****   }
1371:Drivers/STM32F1xx_HAL_Driver/Src/stm32f1xx_hal_rcc.c ****   while (Delay --);
  54              		.loc 1 1371 9 discriminator 1 view .LVU8
  55              		.loc 1 1371 16 is_stmt 0 discriminator 1 view .LVU9
ARM GAS  C:\Users\begre\AppData\Local\Temp\ccwT0kAZ.s 			page 26


  56              		.thumb
  57              		.syntax unified
  58 0016 019B     		ldr	r3, [sp, #4]
  59 0018 5A1E     		subs	r2, r3, #1
  60 001a 0192     		str	r2, [sp, #4]
  61              		.loc 1 1371 3 discriminator 1 view .LVU10
  62 001c 002B     		cmp	r3, #0
  63 001e F9D1     		bne	.L2
1372:Drivers/STM32F1xx_HAL_Driver/Src/stm32f1xx_hal_rcc.c **** }
  64              		.loc 1 1372 1 view .LVU11
  65 0020 02B0     		add	sp, sp, #8
  66              	.LCFI1:
  67              		.cfi_def_cfa_offset 0
  68              		@ sp needed
  69 0022 7047     		bx	lr
  70              	.L5:
  71              		.align	2
  72              	.L4:
  73 0024 00000000 		.word	SystemCoreClock
  74 0028 D34D6210 		.word	274877907
  75              		.cfi_endproc
  76              	.LFE78:
  78              		.section	.text.HAL_RCC_DeInit,"ax",%progbits
  79              		.align	1
  80              		.global	HAL_RCC_DeInit
  81              		.syntax unified
  82              		.thumb
  83              		.thumb_func
  85              	HAL_RCC_DeInit:
  86              	.LFB65:
 201:Drivers/STM32F1xx_HAL_Driver/Src/stm32f1xx_hal_rcc.c ****   uint32_t tickstart;
  87              		.loc 1 201 1 is_stmt 1 view -0
  88              		.cfi_startproc
  89              		@ args = 0, pretend = 0, frame = 0
  90              		@ frame_needed = 0, uses_anonymous_args = 0
  91 0000 70B5     		push	{r4, r5, r6, lr}
  92              	.LCFI2:
  93              		.cfi_def_cfa_offset 16
  94              		.cfi_offset 4, -16
  95              		.cfi_offset 5, -12
  96              		.cfi_offset 6, -8
  97              		.cfi_offset 14, -4
 202:Drivers/STM32F1xx_HAL_Driver/Src/stm32f1xx_hal_rcc.c **** 
  98              		.loc 1 202 3 view .LVU13
 205:Drivers/STM32F1xx_HAL_Driver/Src/stm32f1xx_hal_rcc.c **** 
  99              		.loc 1 205 3 view .LVU14
 205:Drivers/STM32F1xx_HAL_Driver/Src/stm32f1xx_hal_rcc.c **** 
 100              		.loc 1 205 15 is_stmt 0 view .LVU15
 101 0002 FFF7FEFF 		bl	HAL_GetTick
 102              	.LVL1:
 103 0006 0446     		mov	r4, r0
 104              	.LVL2:
 208:Drivers/STM32F1xx_HAL_Driver/Src/stm32f1xx_hal_rcc.c **** 
 105              		.loc 1 208 3 is_stmt 1 view .LVU16
 106 0008 364A     		ldr	r2, .L27
 107 000a 1368     		ldr	r3, [r2]
 108 000c 43F00103 		orr	r3, r3, #1
ARM GAS  C:\Users\begre\AppData\Local\Temp\ccwT0kAZ.s 			page 27


 109 0010 1360     		str	r3, [r2]
 211:Drivers/STM32F1xx_HAL_Driver/Src/stm32f1xx_hal_rcc.c ****   {
 110              		.loc 1 211 3 view .LVU17
 111              	.LVL3:
 112              	.L7:
 211:Drivers/STM32F1xx_HAL_Driver/Src/stm32f1xx_hal_rcc.c ****   {
 113              		.loc 1 211 9 view .LVU18
 211:Drivers/STM32F1xx_HAL_Driver/Src/stm32f1xx_hal_rcc.c ****   {
 114              		.loc 1 211 10 is_stmt 0 view .LVU19
 115 0012 344B     		ldr	r3, .L27
 116 0014 1B68     		ldr	r3, [r3]
 211:Drivers/STM32F1xx_HAL_Driver/Src/stm32f1xx_hal_rcc.c ****   {
 117              		.loc 1 211 9 view .LVU20
 118 0016 13F0020F 		tst	r3, #2
 119 001a 07D1     		bne	.L22
 213:Drivers/STM32F1xx_HAL_Driver/Src/stm32f1xx_hal_rcc.c ****     {
 120              		.loc 1 213 5 is_stmt 1 view .LVU21
 213:Drivers/STM32F1xx_HAL_Driver/Src/stm32f1xx_hal_rcc.c ****     {
 121              		.loc 1 213 10 is_stmt 0 view .LVU22
 122 001c FFF7FEFF 		bl	HAL_GetTick
 123              	.LVL4:
 213:Drivers/STM32F1xx_HAL_Driver/Src/stm32f1xx_hal_rcc.c ****     {
 124              		.loc 1 213 24 view .LVU23
 125 0020 001B     		subs	r0, r0, r4
 213:Drivers/STM32F1xx_HAL_Driver/Src/stm32f1xx_hal_rcc.c ****     {
 126              		.loc 1 213 8 view .LVU24
 127 0022 0228     		cmp	r0, #2
 128 0024 F5D9     		bls	.L7
 215:Drivers/STM32F1xx_HAL_Driver/Src/stm32f1xx_hal_rcc.c ****     }
 129              		.loc 1 215 14 view .LVU25
 130 0026 0324     		movs	r4, #3
 131              	.LVL5:
 132              	.L8:
 328:Drivers/STM32F1xx_HAL_Driver/Src/stm32f1xx_hal_rcc.c **** 
 133              		.loc 1 328 1 view .LVU26
 134 0028 2046     		mov	r0, r4
 135 002a 70BD     		pop	{r4, r5, r6, pc}
 136              	.LVL6:
 137              	.L22:
 220:Drivers/STM32F1xx_HAL_Driver/Src/stm32f1xx_hal_rcc.c **** 
 138              		.loc 1 220 3 is_stmt 1 view .LVU27
 139 002c 2D4D     		ldr	r5, .L27
 140 002e 2B68     		ldr	r3, [r5]
 141 0030 23F0F803 		bic	r3, r3, #248
 142 0034 43F08003 		orr	r3, r3, #128
 143 0038 2B60     		str	r3, [r5]
 223:Drivers/STM32F1xx_HAL_Driver/Src/stm32f1xx_hal_rcc.c **** 
 144              		.loc 1 223 3 view .LVU28
 223:Drivers/STM32F1xx_HAL_Driver/Src/stm32f1xx_hal_rcc.c **** 
 145              		.loc 1 223 15 is_stmt 0 view .LVU29
 146 003a FFF7FEFF 		bl	HAL_GetTick
 147              	.LVL7:
 148 003e 0446     		mov	r4, r0
 149              	.LVL8:
 226:Drivers/STM32F1xx_HAL_Driver/Src/stm32f1xx_hal_rcc.c **** 
 150              		.loc 1 226 3 is_stmt 1 view .LVU30
 151 0040 0023     		movs	r3, #0
ARM GAS  C:\Users\begre\AppData\Local\Temp\ccwT0kAZ.s 			page 28


 152 0042 6B60     		str	r3, [r5, #4]
 229:Drivers/STM32F1xx_HAL_Driver/Src/stm32f1xx_hal_rcc.c ****   {
 153              		.loc 1 229 3 view .LVU31
 154              	.LVL9:
 155              	.L10:
 229:Drivers/STM32F1xx_HAL_Driver/Src/stm32f1xx_hal_rcc.c ****   {
 156              		.loc 1 229 9 view .LVU32
 229:Drivers/STM32F1xx_HAL_Driver/Src/stm32f1xx_hal_rcc.c ****   {
 157              		.loc 1 229 10 is_stmt 0 view .LVU33
 158 0044 274B     		ldr	r3, .L27
 159 0046 5B68     		ldr	r3, [r3, #4]
 229:Drivers/STM32F1xx_HAL_Driver/Src/stm32f1xx_hal_rcc.c ****   {
 160              		.loc 1 229 9 view .LVU34
 161 0048 13F00C0F 		tst	r3, #12
 162 004c 08D0     		beq	.L23
 231:Drivers/STM32F1xx_HAL_Driver/Src/stm32f1xx_hal_rcc.c ****     {
 163              		.loc 1 231 5 is_stmt 1 view .LVU35
 231:Drivers/STM32F1xx_HAL_Driver/Src/stm32f1xx_hal_rcc.c ****     {
 164              		.loc 1 231 10 is_stmt 0 view .LVU36
 165 004e FFF7FEFF 		bl	HAL_GetTick
 166              	.LVL10:
 231:Drivers/STM32F1xx_HAL_Driver/Src/stm32f1xx_hal_rcc.c ****     {
 167              		.loc 1 231 24 view .LVU37
 168 0052 001B     		subs	r0, r0, r4
 231:Drivers/STM32F1xx_HAL_Driver/Src/stm32f1xx_hal_rcc.c ****     {
 169              		.loc 1 231 8 view .LVU38
 170 0054 41F28833 		movw	r3, #5000
 171 0058 9842     		cmp	r0, r3
 172 005a F3D9     		bls	.L10
 233:Drivers/STM32F1xx_HAL_Driver/Src/stm32f1xx_hal_rcc.c ****     }
 173              		.loc 1 233 14 view .LVU39
 174 005c 0324     		movs	r4, #3
 175              	.LVL11:
 233:Drivers/STM32F1xx_HAL_Driver/Src/stm32f1xx_hal_rcc.c ****     }
 176              		.loc 1 233 14 view .LVU40
 177 005e E3E7     		b	.L8
 178              	.LVL12:
 179              	.L23:
 238:Drivers/STM32F1xx_HAL_Driver/Src/stm32f1xx_hal_rcc.c **** 
 180              		.loc 1 238 3 is_stmt 1 view .LVU41
 238:Drivers/STM32F1xx_HAL_Driver/Src/stm32f1xx_hal_rcc.c **** 
 181              		.loc 1 238 19 is_stmt 0 view .LVU42
 182 0060 214B     		ldr	r3, .L27+4
 183 0062 224A     		ldr	r2, .L27+8
 184 0064 1A60     		str	r2, [r3]
 241:Drivers/STM32F1xx_HAL_Driver/Src/stm32f1xx_hal_rcc.c ****   {
 185              		.loc 1 241 3 is_stmt 1 view .LVU43
 241:Drivers/STM32F1xx_HAL_Driver/Src/stm32f1xx_hal_rcc.c ****   {
 186              		.loc 1 241 7 is_stmt 0 view .LVU44
 187 0066 224B     		ldr	r3, .L27+12
 188 0068 1868     		ldr	r0, [r3]
 189 006a FFF7FEFF 		bl	HAL_InitTick
 190              	.LVL13:
 241:Drivers/STM32F1xx_HAL_Driver/Src/stm32f1xx_hal_rcc.c ****   {
 191              		.loc 1 241 6 view .LVU45
 192 006e 0446     		mov	r4, r0
 193              	.LVL14:
ARM GAS  C:\Users\begre\AppData\Local\Temp\ccwT0kAZ.s 			page 29


 241:Drivers/STM32F1xx_HAL_Driver/Src/stm32f1xx_hal_rcc.c ****   {
 194              		.loc 1 241 6 view .LVU46
 195 0070 08B1     		cbz	r0, .L24
 243:Drivers/STM32F1xx_HAL_Driver/Src/stm32f1xx_hal_rcc.c ****   }
 196              		.loc 1 243 12 view .LVU47
 197 0072 0124     		movs	r4, #1
 198 0074 D8E7     		b	.L8
 199              	.L24:
 247:Drivers/STM32F1xx_HAL_Driver/Src/stm32f1xx_hal_rcc.c **** 
 200              		.loc 1 247 3 is_stmt 1 view .LVU48
 247:Drivers/STM32F1xx_HAL_Driver/Src/stm32f1xx_hal_rcc.c **** 
 201              		.loc 1 247 15 is_stmt 0 view .LVU49
 202 0076 FFF7FEFF 		bl	HAL_GetTick
 203              	.LVL15:
 204 007a 0546     		mov	r5, r0
 205              	.LVL16:
 250:Drivers/STM32F1xx_HAL_Driver/Src/stm32f1xx_hal_rcc.c **** 
 206              		.loc 1 250 3 is_stmt 1 view .LVU50
 207 007c 194A     		ldr	r2, .L27
 208 007e 1368     		ldr	r3, [r2]
 209 0080 23F08073 		bic	r3, r3, #16777216
 210 0084 1360     		str	r3, [r2]
 253:Drivers/STM32F1xx_HAL_Driver/Src/stm32f1xx_hal_rcc.c ****   {
 211              		.loc 1 253 3 view .LVU51
 212              	.LVL17:
 213              	.L12:
 253:Drivers/STM32F1xx_HAL_Driver/Src/stm32f1xx_hal_rcc.c ****   {
 214              		.loc 1 253 9 view .LVU52
 253:Drivers/STM32F1xx_HAL_Driver/Src/stm32f1xx_hal_rcc.c ****   {
 215              		.loc 1 253 10 is_stmt 0 view .LVU53
 216 0086 174B     		ldr	r3, .L27
 217 0088 1B68     		ldr	r3, [r3]
 253:Drivers/STM32F1xx_HAL_Driver/Src/stm32f1xx_hal_rcc.c ****   {
 218              		.loc 1 253 9 view .LVU54
 219 008a 13F0007F 		tst	r3, #33554432
 220 008e 06D0     		beq	.L25
 255:Drivers/STM32F1xx_HAL_Driver/Src/stm32f1xx_hal_rcc.c ****     {
 221              		.loc 1 255 5 is_stmt 1 view .LVU55
 255:Drivers/STM32F1xx_HAL_Driver/Src/stm32f1xx_hal_rcc.c ****     {
 222              		.loc 1 255 10 is_stmt 0 view .LVU56
 223 0090 FFF7FEFF 		bl	HAL_GetTick
 224              	.LVL18:
 255:Drivers/STM32F1xx_HAL_Driver/Src/stm32f1xx_hal_rcc.c ****     {
 225              		.loc 1 255 24 view .LVU57
 226 0094 401B     		subs	r0, r0, r5
 255:Drivers/STM32F1xx_HAL_Driver/Src/stm32f1xx_hal_rcc.c ****     {
 227              		.loc 1 255 8 view .LVU58
 228 0096 0228     		cmp	r0, #2
 229 0098 F5D9     		bls	.L12
 257:Drivers/STM32F1xx_HAL_Driver/Src/stm32f1xx_hal_rcc.c ****     }
 230              		.loc 1 257 14 view .LVU59
 231 009a 0324     		movs	r4, #3
 232 009c C4E7     		b	.L8
 233              	.L25:
 262:Drivers/STM32F1xx_HAL_Driver/Src/stm32f1xx_hal_rcc.c **** 
 234              		.loc 1 262 3 is_stmt 1 view .LVU60
 235 009e 114E     		ldr	r6, .L27
ARM GAS  C:\Users\begre\AppData\Local\Temp\ccwT0kAZ.s 			page 30


 236 00a0 0023     		movs	r3, #0
 237 00a2 7360     		str	r3, [r6, #4]
 265:Drivers/STM32F1xx_HAL_Driver/Src/stm32f1xx_hal_rcc.c **** 
 238              		.loc 1 265 3 view .LVU61
 265:Drivers/STM32F1xx_HAL_Driver/Src/stm32f1xx_hal_rcc.c **** 
 239              		.loc 1 265 15 is_stmt 0 view .LVU62
 240 00a4 FFF7FEFF 		bl	HAL_GetTick
 241              	.LVL19:
 242 00a8 0546     		mov	r5, r0
 243              	.LVL20:
 268:Drivers/STM32F1xx_HAL_Driver/Src/stm32f1xx_hal_rcc.c **** 
 244              		.loc 1 268 3 is_stmt 1 view .LVU63
 245 00aa 3368     		ldr	r3, [r6]
 246 00ac 23F41023 		bic	r3, r3, #589824
 247 00b0 3360     		str	r3, [r6]
 271:Drivers/STM32F1xx_HAL_Driver/Src/stm32f1xx_hal_rcc.c ****   {
 248              		.loc 1 271 3 view .LVU64
 249              	.LVL21:
 250              	.L14:
 271:Drivers/STM32F1xx_HAL_Driver/Src/stm32f1xx_hal_rcc.c ****   {
 251              		.loc 1 271 9 view .LVU65
 271:Drivers/STM32F1xx_HAL_Driver/Src/stm32f1xx_hal_rcc.c ****   {
 252              		.loc 1 271 10 is_stmt 0 view .LVU66
 253 00b2 0C4B     		ldr	r3, .L27
 254 00b4 1B68     		ldr	r3, [r3]
 271:Drivers/STM32F1xx_HAL_Driver/Src/stm32f1xx_hal_rcc.c ****   {
 255              		.loc 1 271 9 view .LVU67
 256 00b6 13F4003F 		tst	r3, #131072
 257 00ba 06D0     		beq	.L26
 273:Drivers/STM32F1xx_HAL_Driver/Src/stm32f1xx_hal_rcc.c ****     {
 258              		.loc 1 273 5 is_stmt 1 view .LVU68
 273:Drivers/STM32F1xx_HAL_Driver/Src/stm32f1xx_hal_rcc.c ****     {
 259              		.loc 1 273 10 is_stmt 0 view .LVU69
 260 00bc FFF7FEFF 		bl	HAL_GetTick
 261              	.LVL22:
 273:Drivers/STM32F1xx_HAL_Driver/Src/stm32f1xx_hal_rcc.c ****     {
 262              		.loc 1 273 24 view .LVU70
 263 00c0 401B     		subs	r0, r0, r5
 273:Drivers/STM32F1xx_HAL_Driver/Src/stm32f1xx_hal_rcc.c ****     {
 264              		.loc 1 273 8 view .LVU71
 265 00c2 6428     		cmp	r0, #100
 266 00c4 F5D9     		bls	.L14
 275:Drivers/STM32F1xx_HAL_Driver/Src/stm32f1xx_hal_rcc.c ****     }
 267              		.loc 1 275 14 view .LVU72
 268 00c6 0324     		movs	r4, #3
 269 00c8 AEE7     		b	.L8
 270              	.L26:
 280:Drivers/STM32F1xx_HAL_Driver/Src/stm32f1xx_hal_rcc.c **** 
 271              		.loc 1 280 3 is_stmt 1 view .LVU73
 272 00ca 064B     		ldr	r3, .L27
 273 00cc 1A68     		ldr	r2, [r3]
 274 00ce 22F48022 		bic	r2, r2, #262144
 275 00d2 1A60     		str	r2, [r3]
 322:Drivers/STM32F1xx_HAL_Driver/Src/stm32f1xx_hal_rcc.c **** 
 276              		.loc 1 322 3 view .LVU74
 277 00d4 5A6A     		ldr	r2, [r3, #36]
 278 00d6 42F08072 		orr	r2, r2, #16777216
ARM GAS  C:\Users\begre\AppData\Local\Temp\ccwT0kAZ.s 			page 31


 279 00da 5A62     		str	r2, [r3, #36]
 325:Drivers/STM32F1xx_HAL_Driver/Src/stm32f1xx_hal_rcc.c **** 
 280              		.loc 1 325 3 view .LVU75
 281 00dc 0022     		movs	r2, #0
 282 00de 9A60     		str	r2, [r3, #8]
 327:Drivers/STM32F1xx_HAL_Driver/Src/stm32f1xx_hal_rcc.c **** }
 283              		.loc 1 327 3 view .LVU76
 327:Drivers/STM32F1xx_HAL_Driver/Src/stm32f1xx_hal_rcc.c **** }
 284              		.loc 1 327 10 is_stmt 0 view .LVU77
 285 00e0 A2E7     		b	.L8
 286              	.L28:
 287 00e2 00BF     		.align	2
 288              	.L27:
 289 00e4 00100240 		.word	1073876992
 290 00e8 00000000 		.word	SystemCoreClock
 291 00ec 00127A00 		.word	8000000
 292 00f0 00000000 		.word	uwTickPrio
 293              		.cfi_endproc
 294              	.LFE65:
 296              		.section	.rodata.HAL_RCC_OscConfig.str1.4,"aMS",%progbits,1
 297              		.align	2
 298              	.LC0:
 299 0000 44726976 		.ascii	"Drivers/STM32F1xx_HAL_Driver/Src/stm32f1xx_hal_rcc."
 299      6572732F 
 299      53544D33 
 299      32463178 
 299      785F4841 
 300 0033 6300     		.ascii	"c\000"
 301              		.section	.text.HAL_RCC_OscConfig,"ax",%progbits
 302              		.align	1
 303              		.global	HAL_RCC_OscConfig
 304              		.syntax unified
 305              		.thumb
 306              		.thumb_func
 308              	HAL_RCC_OscConfig:
 309              	.LVL23:
 310              	.LFB66:
 346:Drivers/STM32F1xx_HAL_Driver/Src/stm32f1xx_hal_rcc.c ****   uint32_t tickstart;
 311              		.loc 1 346 1 is_stmt 1 view -0
 312              		.cfi_startproc
 313              		@ args = 0, pretend = 0, frame = 8
 314              		@ frame_needed = 0, uses_anonymous_args = 0
 347:Drivers/STM32F1xx_HAL_Driver/Src/stm32f1xx_hal_rcc.c ****   uint32_t pll_config;
 315              		.loc 1 347 3 view .LVU79
 348:Drivers/STM32F1xx_HAL_Driver/Src/stm32f1xx_hal_rcc.c **** 
 316              		.loc 1 348 3 view .LVU80
 351:Drivers/STM32F1xx_HAL_Driver/Src/stm32f1xx_hal_rcc.c ****   {
 317              		.loc 1 351 3 view .LVU81
 351:Drivers/STM32F1xx_HAL_Driver/Src/stm32f1xx_hal_rcc.c ****   {
 318              		.loc 1 351 6 is_stmt 0 view .LVU82
 319 0000 0028     		cmp	r0, #0
 320 0002 00F08982 		beq	.L92
 346:Drivers/STM32F1xx_HAL_Driver/Src/stm32f1xx_hal_rcc.c ****   uint32_t tickstart;
 321              		.loc 1 346 1 view .LVU83
 322 0006 70B5     		push	{r4, r5, r6, lr}
 323              	.LCFI3:
 324              		.cfi_def_cfa_offset 16
ARM GAS  C:\Users\begre\AppData\Local\Temp\ccwT0kAZ.s 			page 32


 325              		.cfi_offset 4, -16
 326              		.cfi_offset 5, -12
 327              		.cfi_offset 6, -8
 328              		.cfi_offset 14, -4
 329 0008 82B0     		sub	sp, sp, #8
 330              	.LCFI4:
 331              		.cfi_def_cfa_offset 24
 332 000a 0446     		mov	r4, r0
 357:Drivers/STM32F1xx_HAL_Driver/Src/stm32f1xx_hal_rcc.c **** 
 333              		.loc 1 357 3 is_stmt 1 view .LVU84
 334 000c 0368     		ldr	r3, [r0]
 335 000e 13B1     		cbz	r3, .L31
 357:Drivers/STM32F1xx_HAL_Driver/Src/stm32f1xx_hal_rcc.c **** 
 336              		.loc 1 357 3 is_stmt 0 discriminator 1 view .LVU85
 337 0010 13F00F0F 		tst	r3, #15
 338 0014 2AD0     		beq	.L116
 339              	.LVL24:
 340              	.L31:
 360:Drivers/STM32F1xx_HAL_Driver/Src/stm32f1xx_hal_rcc.c ****   {
 341              		.loc 1 360 3 is_stmt 1 view .LVU86
 360:Drivers/STM32F1xx_HAL_Driver/Src/stm32f1xx_hal_rcc.c ****   {
 342              		.loc 1 360 26 is_stmt 0 view .LVU87
 343 0016 2368     		ldr	r3, [r4]
 360:Drivers/STM32F1xx_HAL_Driver/Src/stm32f1xx_hal_rcc.c ****   {
 344              		.loc 1 360 6 view .LVU88
 345 0018 13F0010F 		tst	r3, #1
 346 001c 40D0     		beq	.L32
 363:Drivers/STM32F1xx_HAL_Driver/Src/stm32f1xx_hal_rcc.c **** 
 347              		.loc 1 363 5 is_stmt 1 view .LVU89
 348 001e 6368     		ldr	r3, [r4, #4]
 349 0020 2BB1     		cbz	r3, .L33
 363:Drivers/STM32F1xx_HAL_Driver/Src/stm32f1xx_hal_rcc.c **** 
 350              		.loc 1 363 5 is_stmt 0 discriminator 1 view .LVU90
 351 0022 B3F5803F 		cmp	r3, #65536
 352 0026 02D0     		beq	.L33
 363:Drivers/STM32F1xx_HAL_Driver/Src/stm32f1xx_hal_rcc.c **** 
 353              		.loc 1 363 5 discriminator 2 view .LVU91
 354 0028 B3F5A02F 		cmp	r3, #327680
 355 002c 24D1     		bne	.L117
 356              	.L33:
 366:Drivers/STM32F1xx_HAL_Driver/Src/stm32f1xx_hal_rcc.c ****         || ((__HAL_RCC_GET_SYSCLK_SOURCE() == RCC_SYSCLKSOURCE_STATUS_PLLCLK) && (__HAL_RCC_GET_PLL
 357              		.loc 1 366 5 is_stmt 1 view .LVU92
 366:Drivers/STM32F1xx_HAL_Driver/Src/stm32f1xx_hal_rcc.c ****         || ((__HAL_RCC_GET_SYSCLK_SOURCE() == RCC_SYSCLKSOURCE_STATUS_PLLCLK) && (__HAL_RCC_GET_PLL
 358              		.loc 1 366 10 is_stmt 0 view .LVU93
 359 002e 9C4B     		ldr	r3, .L141
 360 0030 5B68     		ldr	r3, [r3, #4]
 361 0032 03F00C03 		and	r3, r3, #12
 366:Drivers/STM32F1xx_HAL_Driver/Src/stm32f1xx_hal_rcc.c ****         || ((__HAL_RCC_GET_SYSCLK_SOURCE() == RCC_SYSCLKSOURCE_STATUS_PLLCLK) && (__HAL_RCC_GET_PLL
 362              		.loc 1 366 8 view .LVU94
 363 0036 042B     		cmp	r3, #4
 364 0038 29D0     		beq	.L34
 367:Drivers/STM32F1xx_HAL_Driver/Src/stm32f1xx_hal_rcc.c ****     {
 365              		.loc 1 367 14 view .LVU95
 366 003a 994B     		ldr	r3, .L141
 367 003c 5B68     		ldr	r3, [r3, #4]
 368 003e 03F00C03 		and	r3, r3, #12
 367:Drivers/STM32F1xx_HAL_Driver/Src/stm32f1xx_hal_rcc.c ****     {
ARM GAS  C:\Users\begre\AppData\Local\Temp\ccwT0kAZ.s 			page 33


 369              		.loc 1 367 9 view .LVU96
 370 0042 082B     		cmp	r3, #8
 371 0044 1ED0     		beq	.L118
 372              	.L35:
 377:Drivers/STM32F1xx_HAL_Driver/Src/stm32f1xx_hal_rcc.c **** 
 373              		.loc 1 377 7 is_stmt 1 view .LVU97
 377:Drivers/STM32F1xx_HAL_Driver/Src/stm32f1xx_hal_rcc.c **** 
 374              		.loc 1 377 7 view .LVU98
 375 0046 6368     		ldr	r3, [r4, #4]
 376 0048 B3F5803F 		cmp	r3, #65536
 377 004c 55D0     		beq	.L119
 377:Drivers/STM32F1xx_HAL_Driver/Src/stm32f1xx_hal_rcc.c **** 
 378              		.loc 1 377 7 discriminator 2 view .LVU99
 379 004e 002B     		cmp	r3, #0
 380 0050 69D1     		bne	.L38
 377:Drivers/STM32F1xx_HAL_Driver/Src/stm32f1xx_hal_rcc.c **** 
 381              		.loc 1 377 7 discriminator 4 view .LVU100
 382 0052 03F18043 		add	r3, r3, #1073741824
 383 0056 03F50433 		add	r3, r3, #135168
 384 005a 1A68     		ldr	r2, [r3]
 385 005c 22F48032 		bic	r2, r2, #65536
 386 0060 1A60     		str	r2, [r3]
 377:Drivers/STM32F1xx_HAL_Driver/Src/stm32f1xx_hal_rcc.c **** 
 387              		.loc 1 377 7 discriminator 4 view .LVU101
 388 0062 1A68     		ldr	r2, [r3]
 389 0064 22F48022 		bic	r2, r2, #262144
 390 0068 1A60     		str	r2, [r3]
 391 006a 4BE0     		b	.L37
 392              	.LVL25:
 393              	.L116:
 357:Drivers/STM32F1xx_HAL_Driver/Src/stm32f1xx_hal_rcc.c **** 
 394              		.loc 1 357 3 is_stmt 0 discriminator 2 view .LVU102
 395 006c 40F26511 		movw	r1, #357
 396 0070 8C48     		ldr	r0, .L141+4
 397              	.LVL26:
 357:Drivers/STM32F1xx_HAL_Driver/Src/stm32f1xx_hal_rcc.c **** 
 398              		.loc 1 357 3 discriminator 2 view .LVU103
 399 0072 FFF7FEFF 		bl	assert_failed
 400              	.LVL27:
 401 0076 CEE7     		b	.L31
 402              	.L117:
 363:Drivers/STM32F1xx_HAL_Driver/Src/stm32f1xx_hal_rcc.c **** 
 403              		.loc 1 363 5 discriminator 3 view .LVU104
 404 0078 40F26B11 		movw	r1, #363
 405 007c 8948     		ldr	r0, .L141+4
 406 007e FFF7FEFF 		bl	assert_failed
 407              	.LVL28:
 408 0082 D4E7     		b	.L33
 409              	.L118:
 367:Drivers/STM32F1xx_HAL_Driver/Src/stm32f1xx_hal_rcc.c ****     {
 410              		.loc 1 367 83 discriminator 1 view .LVU105
 411 0084 864B     		ldr	r3, .L141
 412 0086 5B68     		ldr	r3, [r3, #4]
 367:Drivers/STM32F1xx_HAL_Driver/Src/stm32f1xx_hal_rcc.c ****     {
 413              		.loc 1 367 79 discriminator 1 view .LVU106
 414 0088 13F4803F 		tst	r3, #65536
 415 008c DBD0     		beq	.L35
ARM GAS  C:\Users\begre\AppData\Local\Temp\ccwT0kAZ.s 			page 34


 416              	.L34:
 369:Drivers/STM32F1xx_HAL_Driver/Src/stm32f1xx_hal_rcc.c ****       {
 417              		.loc 1 369 7 is_stmt 1 view .LVU107
 369:Drivers/STM32F1xx_HAL_Driver/Src/stm32f1xx_hal_rcc.c ****       {
 418              		.loc 1 369 12 is_stmt 0 view .LVU108
 419 008e 844B     		ldr	r3, .L141
 420 0090 1B68     		ldr	r3, [r3]
 369:Drivers/STM32F1xx_HAL_Driver/Src/stm32f1xx_hal_rcc.c ****       {
 421              		.loc 1 369 10 view .LVU109
 422 0092 13F4003F 		tst	r3, #131072
 423 0096 03D0     		beq	.L32
 369:Drivers/STM32F1xx_HAL_Driver/Src/stm32f1xx_hal_rcc.c ****       {
 424              		.loc 1 369 79 discriminator 1 view .LVU110
 425 0098 6368     		ldr	r3, [r4, #4]
 369:Drivers/STM32F1xx_HAL_Driver/Src/stm32f1xx_hal_rcc.c ****       {
 426              		.loc 1 369 58 discriminator 1 view .LVU111
 427 009a 002B     		cmp	r3, #0
 428 009c 00F03E82 		beq	.L120
 429              	.L32:
 412:Drivers/STM32F1xx_HAL_Driver/Src/stm32f1xx_hal_rcc.c ****   {
 430              		.loc 1 412 3 is_stmt 1 view .LVU112
 412:Drivers/STM32F1xx_HAL_Driver/Src/stm32f1xx_hal_rcc.c ****   {
 431              		.loc 1 412 26 is_stmt 0 view .LVU113
 432 00a0 2368     		ldr	r3, [r4]
 412:Drivers/STM32F1xx_HAL_Driver/Src/stm32f1xx_hal_rcc.c ****   {
 433              		.loc 1 412 6 view .LVU114
 434 00a2 13F0020F 		tst	r3, #2
 435 00a6 00F08980 		beq	.L45
 415:Drivers/STM32F1xx_HAL_Driver/Src/stm32f1xx_hal_rcc.c ****     assert_param(IS_RCC_CALIBRATION_VALUE(RCC_OscInitStruct->HSICalibrationValue));
 436              		.loc 1 415 5 is_stmt 1 view .LVU115
 437 00aa 2369     		ldr	r3, [r4, #16]
 438 00ac 012B     		cmp	r3, #1
 439 00ae 63D8     		bhi	.L121
 440              	.L46:
 416:Drivers/STM32F1xx_HAL_Driver/Src/stm32f1xx_hal_rcc.c **** 
 441              		.loc 1 416 5 view .LVU116
 442 00b0 6369     		ldr	r3, [r4, #20]
 443 00b2 1F2B     		cmp	r3, #31
 444 00b4 66D8     		bhi	.L122
 445              	.L47:
 419:Drivers/STM32F1xx_HAL_Driver/Src/stm32f1xx_hal_rcc.c ****         || ((__HAL_RCC_GET_SYSCLK_SOURCE() == RCC_SYSCLKSOURCE_STATUS_PLLCLK) && (__HAL_RCC_GET_PLL
 446              		.loc 1 419 5 view .LVU117
 419:Drivers/STM32F1xx_HAL_Driver/Src/stm32f1xx_hal_rcc.c ****         || ((__HAL_RCC_GET_SYSCLK_SOURCE() == RCC_SYSCLKSOURCE_STATUS_PLLCLK) && (__HAL_RCC_GET_PLL
 447              		.loc 1 419 10 is_stmt 0 view .LVU118
 448 00b6 7A4B     		ldr	r3, .L141
 449 00b8 5B68     		ldr	r3, [r3, #4]
 419:Drivers/STM32F1xx_HAL_Driver/Src/stm32f1xx_hal_rcc.c ****         || ((__HAL_RCC_GET_SYSCLK_SOURCE() == RCC_SYSCLKSOURCE_STATUS_PLLCLK) && (__HAL_RCC_GET_PLL
 450              		.loc 1 419 8 view .LVU119
 451 00ba 13F00C0F 		tst	r3, #12
 452 00be 6CD0     		beq	.L48
 420:Drivers/STM32F1xx_HAL_Driver/Src/stm32f1xx_hal_rcc.c ****     {
 453              		.loc 1 420 14 view .LVU120
 454 00c0 774B     		ldr	r3, .L141
 455 00c2 5B68     		ldr	r3, [r3, #4]
 456 00c4 03F00C03 		and	r3, r3, #12
 420:Drivers/STM32F1xx_HAL_Driver/Src/stm32f1xx_hal_rcc.c ****     {
 457              		.loc 1 420 9 view .LVU121
ARM GAS  C:\Users\begre\AppData\Local\Temp\ccwT0kAZ.s 			page 35


 458 00c8 082B     		cmp	r3, #8
 459 00ca 61D0     		beq	.L123
 460              	.L49:
 437:Drivers/STM32F1xx_HAL_Driver/Src/stm32f1xx_hal_rcc.c ****       {
 461              		.loc 1 437 7 is_stmt 1 view .LVU122
 437:Drivers/STM32F1xx_HAL_Driver/Src/stm32f1xx_hal_rcc.c ****       {
 462              		.loc 1 437 28 is_stmt 0 view .LVU123
 463 00cc 2369     		ldr	r3, [r4, #16]
 437:Drivers/STM32F1xx_HAL_Driver/Src/stm32f1xx_hal_rcc.c ****       {
 464              		.loc 1 437 10 view .LVU124
 465 00ce 002B     		cmp	r3, #0
 466 00d0 00F09A80 		beq	.L51
 440:Drivers/STM32F1xx_HAL_Driver/Src/stm32f1xx_hal_rcc.c **** 
 467              		.loc 1 440 9 is_stmt 1 view .LVU125
 468 00d4 744B     		ldr	r3, .L141+8
 469 00d6 0122     		movs	r2, #1
 470 00d8 1A60     		str	r2, [r3]
 443:Drivers/STM32F1xx_HAL_Driver/Src/stm32f1xx_hal_rcc.c **** 
 471              		.loc 1 443 9 view .LVU126
 443:Drivers/STM32F1xx_HAL_Driver/Src/stm32f1xx_hal_rcc.c **** 
 472              		.loc 1 443 21 is_stmt 0 view .LVU127
 473 00da FFF7FEFF 		bl	HAL_GetTick
 474              	.LVL29:
 475 00de 0546     		mov	r5, r0
 476              	.LVL30:
 446:Drivers/STM32F1xx_HAL_Driver/Src/stm32f1xx_hal_rcc.c ****         {
 477              		.loc 1 446 9 is_stmt 1 view .LVU128
 478              	.L52:
 446:Drivers/STM32F1xx_HAL_Driver/Src/stm32f1xx_hal_rcc.c ****         {
 479              		.loc 1 446 15 view .LVU129
 446:Drivers/STM32F1xx_HAL_Driver/Src/stm32f1xx_hal_rcc.c ****         {
 480              		.loc 1 446 16 is_stmt 0 view .LVU130
 481 00e0 6F4B     		ldr	r3, .L141
 482 00e2 1B68     		ldr	r3, [r3]
 446:Drivers/STM32F1xx_HAL_Driver/Src/stm32f1xx_hal_rcc.c ****         {
 483              		.loc 1 446 15 view .LVU131
 484 00e4 13F0020F 		tst	r3, #2
 485 00e8 40F08580 		bne	.L124
 448:Drivers/STM32F1xx_HAL_Driver/Src/stm32f1xx_hal_rcc.c ****           {
 486              		.loc 1 448 11 is_stmt 1 view .LVU132
 448:Drivers/STM32F1xx_HAL_Driver/Src/stm32f1xx_hal_rcc.c ****           {
 487              		.loc 1 448 16 is_stmt 0 view .LVU133
 488 00ec FFF7FEFF 		bl	HAL_GetTick
 489              	.LVL31:
 448:Drivers/STM32F1xx_HAL_Driver/Src/stm32f1xx_hal_rcc.c ****           {
 490              		.loc 1 448 30 view .LVU134
 491 00f0 401B     		subs	r0, r0, r5
 448:Drivers/STM32F1xx_HAL_Driver/Src/stm32f1xx_hal_rcc.c ****           {
 492              		.loc 1 448 14 view .LVU135
 493 00f2 0228     		cmp	r0, #2
 494 00f4 F4D9     		bls	.L52
 450:Drivers/STM32F1xx_HAL_Driver/Src/stm32f1xx_hal_rcc.c ****           }
 495              		.loc 1 450 20 view .LVU136
 496 00f6 0320     		movs	r0, #3
 497 00f8 15E2     		b	.L30
 498              	.LVL32:
 499              	.L119:
ARM GAS  C:\Users\begre\AppData\Local\Temp\ccwT0kAZ.s 			page 36


 377:Drivers/STM32F1xx_HAL_Driver/Src/stm32f1xx_hal_rcc.c **** 
 500              		.loc 1 377 7 is_stmt 1 discriminator 1 view .LVU137
 501 00fa 694A     		ldr	r2, .L141
 502 00fc 1368     		ldr	r3, [r2]
 503 00fe 43F48033 		orr	r3, r3, #65536
 504 0102 1360     		str	r3, [r2]
 505              	.L37:
 377:Drivers/STM32F1xx_HAL_Driver/Src/stm32f1xx_hal_rcc.c **** 
 506              		.loc 1 377 7 discriminator 10 view .LVU138
 381:Drivers/STM32F1xx_HAL_Driver/Src/stm32f1xx_hal_rcc.c ****       {
 507              		.loc 1 381 7 discriminator 10 view .LVU139
 381:Drivers/STM32F1xx_HAL_Driver/Src/stm32f1xx_hal_rcc.c ****       {
 508              		.loc 1 381 28 is_stmt 0 discriminator 10 view .LVU140
 509 0104 6368     		ldr	r3, [r4, #4]
 381:Drivers/STM32F1xx_HAL_Driver/Src/stm32f1xx_hal_rcc.c ****       {
 510              		.loc 1 381 10 discriminator 10 view .LVU141
 511 0106 43B3     		cbz	r3, .L40
 384:Drivers/STM32F1xx_HAL_Driver/Src/stm32f1xx_hal_rcc.c **** 
 512              		.loc 1 384 9 is_stmt 1 view .LVU142
 384:Drivers/STM32F1xx_HAL_Driver/Src/stm32f1xx_hal_rcc.c **** 
 513              		.loc 1 384 21 is_stmt 0 view .LVU143
 514 0108 FFF7FEFF 		bl	HAL_GetTick
 515              	.LVL33:
 516 010c 0546     		mov	r5, r0
 517              	.LVL34:
 387:Drivers/STM32F1xx_HAL_Driver/Src/stm32f1xx_hal_rcc.c ****         {
 518              		.loc 1 387 9 is_stmt 1 view .LVU144
 519              	.L41:
 387:Drivers/STM32F1xx_HAL_Driver/Src/stm32f1xx_hal_rcc.c ****         {
 520              		.loc 1 387 15 view .LVU145
 387:Drivers/STM32F1xx_HAL_Driver/Src/stm32f1xx_hal_rcc.c ****         {
 521              		.loc 1 387 16 is_stmt 0 view .LVU146
 522 010e 644B     		ldr	r3, .L141
 523 0110 1B68     		ldr	r3, [r3]
 387:Drivers/STM32F1xx_HAL_Driver/Src/stm32f1xx_hal_rcc.c ****         {
 524              		.loc 1 387 15 view .LVU147
 525 0112 13F4003F 		tst	r3, #131072
 526 0116 C3D1     		bne	.L32
 389:Drivers/STM32F1xx_HAL_Driver/Src/stm32f1xx_hal_rcc.c ****           {
 527              		.loc 1 389 11 is_stmt 1 view .LVU148
 389:Drivers/STM32F1xx_HAL_Driver/Src/stm32f1xx_hal_rcc.c ****           {
 528              		.loc 1 389 16 is_stmt 0 view .LVU149
 529 0118 FFF7FEFF 		bl	HAL_GetTick
 530              	.LVL35:
 389:Drivers/STM32F1xx_HAL_Driver/Src/stm32f1xx_hal_rcc.c ****           {
 531              		.loc 1 389 30 view .LVU150
 532 011c 401B     		subs	r0, r0, r5
 389:Drivers/STM32F1xx_HAL_Driver/Src/stm32f1xx_hal_rcc.c ****           {
 533              		.loc 1 389 14 view .LVU151
 534 011e 6428     		cmp	r0, #100
 535 0120 F5D9     		bls	.L41
 391:Drivers/STM32F1xx_HAL_Driver/Src/stm32f1xx_hal_rcc.c ****           }
 536              		.loc 1 391 20 view .LVU152
 537 0122 0320     		movs	r0, #3
 538 0124 FFE1     		b	.L30
 539              	.LVL36:
 540              	.L38:
ARM GAS  C:\Users\begre\AppData\Local\Temp\ccwT0kAZ.s 			page 37


 377:Drivers/STM32F1xx_HAL_Driver/Src/stm32f1xx_hal_rcc.c **** 
 541              		.loc 1 377 7 is_stmt 1 discriminator 5 view .LVU153
 542 0126 B3F5A02F 		cmp	r3, #327680
 543 012a 09D0     		beq	.L125
 377:Drivers/STM32F1xx_HAL_Driver/Src/stm32f1xx_hal_rcc.c **** 
 544              		.loc 1 377 7 discriminator 8 view .LVU154
 545 012c 5C4B     		ldr	r3, .L141
 546 012e 1A68     		ldr	r2, [r3]
 547 0130 22F48032 		bic	r2, r2, #65536
 548 0134 1A60     		str	r2, [r3]
 377:Drivers/STM32F1xx_HAL_Driver/Src/stm32f1xx_hal_rcc.c **** 
 549              		.loc 1 377 7 discriminator 8 view .LVU155
 550 0136 1A68     		ldr	r2, [r3]
 551 0138 22F48022 		bic	r2, r2, #262144
 552 013c 1A60     		str	r2, [r3]
 553 013e E1E7     		b	.L37
 554              	.L125:
 377:Drivers/STM32F1xx_HAL_Driver/Src/stm32f1xx_hal_rcc.c **** 
 555              		.loc 1 377 7 discriminator 7 view .LVU156
 556 0140 03F18043 		add	r3, r3, #1073741824
 557 0144 A3F53C33 		sub	r3, r3, #192512
 558 0148 1A68     		ldr	r2, [r3]
 559 014a 42F48022 		orr	r2, r2, #262144
 560 014e 1A60     		str	r2, [r3]
 377:Drivers/STM32F1xx_HAL_Driver/Src/stm32f1xx_hal_rcc.c **** 
 561              		.loc 1 377 7 discriminator 7 view .LVU157
 562 0150 1A68     		ldr	r2, [r3]
 563 0152 42F48032 		orr	r2, r2, #65536
 564 0156 1A60     		str	r2, [r3]
 565 0158 D4E7     		b	.L37
 566              	.L40:
 398:Drivers/STM32F1xx_HAL_Driver/Src/stm32f1xx_hal_rcc.c **** 
 567              		.loc 1 398 9 view .LVU158
 398:Drivers/STM32F1xx_HAL_Driver/Src/stm32f1xx_hal_rcc.c **** 
 568              		.loc 1 398 21 is_stmt 0 view .LVU159
 569 015a FFF7FEFF 		bl	HAL_GetTick
 570              	.LVL37:
 571 015e 0546     		mov	r5, r0
 572              	.LVL38:
 401:Drivers/STM32F1xx_HAL_Driver/Src/stm32f1xx_hal_rcc.c ****         {
 573              		.loc 1 401 9 is_stmt 1 view .LVU160
 574              	.L43:
 401:Drivers/STM32F1xx_HAL_Driver/Src/stm32f1xx_hal_rcc.c ****         {
 575              		.loc 1 401 15 view .LVU161
 401:Drivers/STM32F1xx_HAL_Driver/Src/stm32f1xx_hal_rcc.c ****         {
 576              		.loc 1 401 16 is_stmt 0 view .LVU162
 577 0160 4F4B     		ldr	r3, .L141
 578 0162 1B68     		ldr	r3, [r3]
 401:Drivers/STM32F1xx_HAL_Driver/Src/stm32f1xx_hal_rcc.c ****         {
 579              		.loc 1 401 15 view .LVU163
 580 0164 13F4003F 		tst	r3, #131072
 581 0168 9AD0     		beq	.L32
 403:Drivers/STM32F1xx_HAL_Driver/Src/stm32f1xx_hal_rcc.c ****           {
 582              		.loc 1 403 11 is_stmt 1 view .LVU164
 403:Drivers/STM32F1xx_HAL_Driver/Src/stm32f1xx_hal_rcc.c ****           {
 583              		.loc 1 403 16 is_stmt 0 view .LVU165
 584 016a FFF7FEFF 		bl	HAL_GetTick
ARM GAS  C:\Users\begre\AppData\Local\Temp\ccwT0kAZ.s 			page 38


 585              	.LVL39:
 403:Drivers/STM32F1xx_HAL_Driver/Src/stm32f1xx_hal_rcc.c ****           {
 586              		.loc 1 403 30 view .LVU166
 587 016e 401B     		subs	r0, r0, r5
 403:Drivers/STM32F1xx_HAL_Driver/Src/stm32f1xx_hal_rcc.c ****           {
 588              		.loc 1 403 14 view .LVU167
 589 0170 6428     		cmp	r0, #100
 590 0172 F5D9     		bls	.L43
 405:Drivers/STM32F1xx_HAL_Driver/Src/stm32f1xx_hal_rcc.c ****           }
 591              		.loc 1 405 20 view .LVU168
 592 0174 0320     		movs	r0, #3
 593 0176 D6E1     		b	.L30
 594              	.LVL40:
 595              	.L121:
 415:Drivers/STM32F1xx_HAL_Driver/Src/stm32f1xx_hal_rcc.c ****     assert_param(IS_RCC_CALIBRATION_VALUE(RCC_OscInitStruct->HSICalibrationValue));
 596              		.loc 1 415 5 discriminator 1 view .LVU169
 597 0178 40F29F11 		movw	r1, #415
 598 017c 4948     		ldr	r0, .L141+4
 599 017e FFF7FEFF 		bl	assert_failed
 600              	.LVL41:
 601 0182 95E7     		b	.L46
 602              	.L122:
 416:Drivers/STM32F1xx_HAL_Driver/Src/stm32f1xx_hal_rcc.c **** 
 603              		.loc 1 416 5 discriminator 1 view .LVU170
 604 0184 4FF4D071 		mov	r1, #416
 605 0188 4648     		ldr	r0, .L141+4
 606 018a FFF7FEFF 		bl	assert_failed
 607              	.LVL42:
 608 018e 92E7     		b	.L47
 609              	.L123:
 420:Drivers/STM32F1xx_HAL_Driver/Src/stm32f1xx_hal_rcc.c ****     {
 610              		.loc 1 420 83 discriminator 1 view .LVU171
 611 0190 434B     		ldr	r3, .L141
 612 0192 5B68     		ldr	r3, [r3, #4]
 420:Drivers/STM32F1xx_HAL_Driver/Src/stm32f1xx_hal_rcc.c ****     {
 613              		.loc 1 420 79 discriminator 1 view .LVU172
 614 0194 13F4803F 		tst	r3, #65536
 615 0198 98D1     		bne	.L49
 616              	.L48:
 423:Drivers/STM32F1xx_HAL_Driver/Src/stm32f1xx_hal_rcc.c ****       {
 617              		.loc 1 423 7 is_stmt 1 view .LVU173
 423:Drivers/STM32F1xx_HAL_Driver/Src/stm32f1xx_hal_rcc.c ****       {
 618              		.loc 1 423 12 is_stmt 0 view .LVU174
 619 019a 414B     		ldr	r3, .L141
 620 019c 1B68     		ldr	r3, [r3]
 423:Drivers/STM32F1xx_HAL_Driver/Src/stm32f1xx_hal_rcc.c ****       {
 621              		.loc 1 423 10 view .LVU175
 622 019e 13F0020F 		tst	r3, #2
 623 01a2 03D0     		beq	.L50
 423:Drivers/STM32F1xx_HAL_Driver/Src/stm32f1xx_hal_rcc.c ****       {
 624              		.loc 1 423 79 discriminator 1 view .LVU176
 625 01a4 2369     		ldr	r3, [r4, #16]
 423:Drivers/STM32F1xx_HAL_Driver/Src/stm32f1xx_hal_rcc.c ****       {
 626              		.loc 1 423 58 discriminator 1 view .LVU177
 627 01a6 012B     		cmp	r3, #1
 628 01a8 40F0BA81 		bne	.L96
 629              	.L50:
ARM GAS  C:\Users\begre\AppData\Local\Temp\ccwT0kAZ.s 			page 39


 431:Drivers/STM32F1xx_HAL_Driver/Src/stm32f1xx_hal_rcc.c ****       }
 630              		.loc 1 431 9 is_stmt 1 view .LVU178
 631 01ac 3C4A     		ldr	r2, .L141
 632 01ae 1368     		ldr	r3, [r2]
 633 01b0 23F0F803 		bic	r3, r3, #248
 634 01b4 6169     		ldr	r1, [r4, #20]
 635 01b6 43EAC103 		orr	r3, r3, r1, lsl #3
 636 01ba 1360     		str	r3, [r2]
 637              	.L45:
 477:Drivers/STM32F1xx_HAL_Driver/Src/stm32f1xx_hal_rcc.c ****   {
 638              		.loc 1 477 3 view .LVU179
 477:Drivers/STM32F1xx_HAL_Driver/Src/stm32f1xx_hal_rcc.c ****   {
 639              		.loc 1 477 26 is_stmt 0 view .LVU180
 640 01bc 2368     		ldr	r3, [r4]
 477:Drivers/STM32F1xx_HAL_Driver/Src/stm32f1xx_hal_rcc.c ****   {
 641              		.loc 1 477 6 view .LVU181
 642 01be 13F0080F 		tst	r3, #8
 643 01c2 3CD0     		beq	.L56
 480:Drivers/STM32F1xx_HAL_Driver/Src/stm32f1xx_hal_rcc.c **** 
 644              		.loc 1 480 5 is_stmt 1 view .LVU182
 645 01c4 A369     		ldr	r3, [r4, #24]
 646 01c6 012B     		cmp	r3, #1
 647 01c8 30D8     		bhi	.L126
 648              	.L57:
 483:Drivers/STM32F1xx_HAL_Driver/Src/stm32f1xx_hal_rcc.c ****     {
 649              		.loc 1 483 5 view .LVU183
 483:Drivers/STM32F1xx_HAL_Driver/Src/stm32f1xx_hal_rcc.c ****     {
 650              		.loc 1 483 26 is_stmt 0 view .LVU184
 651 01ca A369     		ldr	r3, [r4, #24]
 483:Drivers/STM32F1xx_HAL_Driver/Src/stm32f1xx_hal_rcc.c ****     {
 652              		.loc 1 483 8 view .LVU185
 653 01cc 002B     		cmp	r3, #0
 654 01ce 6FD0     		beq	.L58
 486:Drivers/STM32F1xx_HAL_Driver/Src/stm32f1xx_hal_rcc.c **** 
 655              		.loc 1 486 7 is_stmt 1 view .LVU186
 656 01d0 354B     		ldr	r3, .L141+8
 657 01d2 0122     		movs	r2, #1
 658 01d4 C3F88024 		str	r2, [r3, #1152]
 489:Drivers/STM32F1xx_HAL_Driver/Src/stm32f1xx_hal_rcc.c **** 
 659              		.loc 1 489 7 view .LVU187
 489:Drivers/STM32F1xx_HAL_Driver/Src/stm32f1xx_hal_rcc.c **** 
 660              		.loc 1 489 19 is_stmt 0 view .LVU188
 661 01d8 FFF7FEFF 		bl	HAL_GetTick
 662              	.LVL43:
 663 01dc 0546     		mov	r5, r0
 664              	.LVL44:
 492:Drivers/STM32F1xx_HAL_Driver/Src/stm32f1xx_hal_rcc.c ****       {
 665              		.loc 1 492 7 is_stmt 1 view .LVU189
 666              	.L59:
 492:Drivers/STM32F1xx_HAL_Driver/Src/stm32f1xx_hal_rcc.c ****       {
 667              		.loc 1 492 13 view .LVU190
 492:Drivers/STM32F1xx_HAL_Driver/Src/stm32f1xx_hal_rcc.c ****       {
 668              		.loc 1 492 14 is_stmt 0 view .LVU191
 669 01de 304B     		ldr	r3, .L141
 670 01e0 5B6A     		ldr	r3, [r3, #36]
 492:Drivers/STM32F1xx_HAL_Driver/Src/stm32f1xx_hal_rcc.c ****       {
 671              		.loc 1 492 13 view .LVU192
ARM GAS  C:\Users\begre\AppData\Local\Temp\ccwT0kAZ.s 			page 40


 672 01e2 13F0020F 		tst	r3, #2
 673 01e6 27D1     		bne	.L127
 494:Drivers/STM32F1xx_HAL_Driver/Src/stm32f1xx_hal_rcc.c ****         {
 674              		.loc 1 494 9 is_stmt 1 view .LVU193
 494:Drivers/STM32F1xx_HAL_Driver/Src/stm32f1xx_hal_rcc.c ****         {
 675              		.loc 1 494 14 is_stmt 0 view .LVU194
 676 01e8 FFF7FEFF 		bl	HAL_GetTick
 677              	.LVL45:
 494:Drivers/STM32F1xx_HAL_Driver/Src/stm32f1xx_hal_rcc.c ****         {
 678              		.loc 1 494 28 view .LVU195
 679 01ec 401B     		subs	r0, r0, r5
 494:Drivers/STM32F1xx_HAL_Driver/Src/stm32f1xx_hal_rcc.c ****         {
 680              		.loc 1 494 12 view .LVU196
 681 01ee 0228     		cmp	r0, #2
 682 01f0 F5D9     		bls	.L59
 496:Drivers/STM32F1xx_HAL_Driver/Src/stm32f1xx_hal_rcc.c ****         }
 683              		.loc 1 496 18 view .LVU197
 684 01f2 0320     		movs	r0, #3
 685 01f4 97E1     		b	.L30
 686              	.L124:
 455:Drivers/STM32F1xx_HAL_Driver/Src/stm32f1xx_hal_rcc.c ****       }
 687              		.loc 1 455 9 is_stmt 1 view .LVU198
 688 01f6 2A4A     		ldr	r2, .L141
 689 01f8 1368     		ldr	r3, [r2]
 690 01fa 23F0F803 		bic	r3, r3, #248
 691 01fe 6169     		ldr	r1, [r4, #20]
 692 0200 43EAC103 		orr	r3, r3, r1, lsl #3
 693 0204 1360     		str	r3, [r2]
 694 0206 D9E7     		b	.L45
 695              	.LVL46:
 696              	.L51:
 460:Drivers/STM32F1xx_HAL_Driver/Src/stm32f1xx_hal_rcc.c **** 
 697              		.loc 1 460 9 view .LVU199
 698 0208 274B     		ldr	r3, .L141+8
 699 020a 0022     		movs	r2, #0
 700 020c 1A60     		str	r2, [r3]
 463:Drivers/STM32F1xx_HAL_Driver/Src/stm32f1xx_hal_rcc.c **** 
 701              		.loc 1 463 9 view .LVU200
 463:Drivers/STM32F1xx_HAL_Driver/Src/stm32f1xx_hal_rcc.c **** 
 702              		.loc 1 463 21 is_stmt 0 view .LVU201
 703 020e FFF7FEFF 		bl	HAL_GetTick
 704              	.LVL47:
 705 0212 0546     		mov	r5, r0
 706              	.LVL48:
 466:Drivers/STM32F1xx_HAL_Driver/Src/stm32f1xx_hal_rcc.c ****         {
 707              		.loc 1 466 9 is_stmt 1 view .LVU202
 708              	.L54:
 466:Drivers/STM32F1xx_HAL_Driver/Src/stm32f1xx_hal_rcc.c ****         {
 709              		.loc 1 466 15 view .LVU203
 466:Drivers/STM32F1xx_HAL_Driver/Src/stm32f1xx_hal_rcc.c ****         {
 710              		.loc 1 466 16 is_stmt 0 view .LVU204
 711 0214 224B     		ldr	r3, .L141
 712 0216 1B68     		ldr	r3, [r3]
 466:Drivers/STM32F1xx_HAL_Driver/Src/stm32f1xx_hal_rcc.c ****         {
 713              		.loc 1 466 15 view .LVU205
 714 0218 13F0020F 		tst	r3, #2
 715 021c CED0     		beq	.L45
ARM GAS  C:\Users\begre\AppData\Local\Temp\ccwT0kAZ.s 			page 41


 468:Drivers/STM32F1xx_HAL_Driver/Src/stm32f1xx_hal_rcc.c ****           {
 716              		.loc 1 468 11 is_stmt 1 view .LVU206
 468:Drivers/STM32F1xx_HAL_Driver/Src/stm32f1xx_hal_rcc.c ****           {
 717              		.loc 1 468 16 is_stmt 0 view .LVU207
 718 021e FFF7FEFF 		bl	HAL_GetTick
 719              	.LVL49:
 468:Drivers/STM32F1xx_HAL_Driver/Src/stm32f1xx_hal_rcc.c ****           {
 720              		.loc 1 468 30 view .LVU208
 721 0222 401B     		subs	r0, r0, r5
 468:Drivers/STM32F1xx_HAL_Driver/Src/stm32f1xx_hal_rcc.c ****           {
 722              		.loc 1 468 14 view .LVU209
 723 0224 0228     		cmp	r0, #2
 724 0226 F5D9     		bls	.L54
 470:Drivers/STM32F1xx_HAL_Driver/Src/stm32f1xx_hal_rcc.c ****           }
 725              		.loc 1 470 20 view .LVU210
 726 0228 0320     		movs	r0, #3
 727 022a 7CE1     		b	.L30
 728              	.LVL50:
 729              	.L126:
 480:Drivers/STM32F1xx_HAL_Driver/Src/stm32f1xx_hal_rcc.c **** 
 730              		.loc 1 480 5 discriminator 1 view .LVU211
 731 022c 4FF4F071 		mov	r1, #480
 732 0230 1C48     		ldr	r0, .L141+4
 733 0232 FFF7FEFF 		bl	assert_failed
 734              	.LVL51:
 735 0236 C8E7     		b	.L57
 736              	.LVL52:
 737              	.L127:
 501:Drivers/STM32F1xx_HAL_Driver/Src/stm32f1xx_hal_rcc.c ****     }
 738              		.loc 1 501 7 is_stmt 1 view .LVU212
 739 0238 0120     		movs	r0, #1
 740 023a FFF7FEFF 		bl	RCC_Delay
 741              	.LVL53:
 742              	.L56:
 522:Drivers/STM32F1xx_HAL_Driver/Src/stm32f1xx_hal_rcc.c ****   {
 743              		.loc 1 522 3 view .LVU213
 522:Drivers/STM32F1xx_HAL_Driver/Src/stm32f1xx_hal_rcc.c ****   {
 744              		.loc 1 522 26 is_stmt 0 view .LVU214
 745 023e 2368     		ldr	r3, [r4]
 522:Drivers/STM32F1xx_HAL_Driver/Src/stm32f1xx_hal_rcc.c ****   {
 746              		.loc 1 522 6 view .LVU215
 747 0240 13F0040F 		tst	r3, #4
 748 0244 00F0A480 		beq	.L63
 749              	.LBB2:
 524:Drivers/STM32F1xx_HAL_Driver/Src/stm32f1xx_hal_rcc.c **** 
 750              		.loc 1 524 5 is_stmt 1 view .LVU216
 751              	.LVL54:
 527:Drivers/STM32F1xx_HAL_Driver/Src/stm32f1xx_hal_rcc.c **** 
 752              		.loc 1 527 5 view .LVU217
 753 0248 E368     		ldr	r3, [r4, #12]
 754 024a 012B     		cmp	r3, #1
 755 024c 01D9     		bls	.L64
 527:Drivers/STM32F1xx_HAL_Driver/Src/stm32f1xx_hal_rcc.c **** 
 756              		.loc 1 527 5 is_stmt 0 discriminator 1 view .LVU218
 757 024e 052B     		cmp	r3, #5
 758 0250 41D1     		bne	.L128
 759              	.L64:
ARM GAS  C:\Users\begre\AppData\Local\Temp\ccwT0kAZ.s 			page 42


 531:Drivers/STM32F1xx_HAL_Driver/Src/stm32f1xx_hal_rcc.c ****     {
 760              		.loc 1 531 5 is_stmt 1 view .LVU219
 531:Drivers/STM32F1xx_HAL_Driver/Src/stm32f1xx_hal_rcc.c ****     {
 761              		.loc 1 531 9 is_stmt 0 view .LVU220
 762 0252 134B     		ldr	r3, .L141
 763 0254 DB69     		ldr	r3, [r3, #28]
 531:Drivers/STM32F1xx_HAL_Driver/Src/stm32f1xx_hal_rcc.c ****     {
 764              		.loc 1 531 8 view .LVU221
 765 0256 13F0805F 		tst	r3, #268435456
 766 025a 42D1     		bne	.L101
 533:Drivers/STM32F1xx_HAL_Driver/Src/stm32f1xx_hal_rcc.c ****       pwrclkchanged = SET;
 767              		.loc 1 533 7 is_stmt 1 view .LVU222
 768              	.LBB3:
 533:Drivers/STM32F1xx_HAL_Driver/Src/stm32f1xx_hal_rcc.c ****       pwrclkchanged = SET;
 769              		.loc 1 533 7 view .LVU223
 533:Drivers/STM32F1xx_HAL_Driver/Src/stm32f1xx_hal_rcc.c ****       pwrclkchanged = SET;
 770              		.loc 1 533 7 view .LVU224
 771 025c 104B     		ldr	r3, .L141
 772 025e DA69     		ldr	r2, [r3, #28]
 773 0260 42F08052 		orr	r2, r2, #268435456
 774 0264 DA61     		str	r2, [r3, #28]
 533:Drivers/STM32F1xx_HAL_Driver/Src/stm32f1xx_hal_rcc.c ****       pwrclkchanged = SET;
 775              		.loc 1 533 7 view .LVU225
 776 0266 DB69     		ldr	r3, [r3, #28]
 777 0268 03F08053 		and	r3, r3, #268435456
 778 026c 0193     		str	r3, [sp, #4]
 533:Drivers/STM32F1xx_HAL_Driver/Src/stm32f1xx_hal_rcc.c ****       pwrclkchanged = SET;
 779              		.loc 1 533 7 view .LVU226
 780 026e 019B     		ldr	r3, [sp, #4]
 781              	.LBE3:
 533:Drivers/STM32F1xx_HAL_Driver/Src/stm32f1xx_hal_rcc.c ****       pwrclkchanged = SET;
 782              		.loc 1 533 7 view .LVU227
 534:Drivers/STM32F1xx_HAL_Driver/Src/stm32f1xx_hal_rcc.c ****     }
 783              		.loc 1 534 7 view .LVU228
 784              	.LVL55:
 534:Drivers/STM32F1xx_HAL_Driver/Src/stm32f1xx_hal_rcc.c ****     }
 785              		.loc 1 534 21 is_stmt 0 view .LVU229
 786 0270 0125     		movs	r5, #1
 787              	.LVL56:
 788              	.L65:
 537:Drivers/STM32F1xx_HAL_Driver/Src/stm32f1xx_hal_rcc.c ****     {
 789              		.loc 1 537 5 is_stmt 1 view .LVU230
 537:Drivers/STM32F1xx_HAL_Driver/Src/stm32f1xx_hal_rcc.c ****     {
 790              		.loc 1 537 9 is_stmt 0 view .LVU231
 791 0272 0E4B     		ldr	r3, .L141+12
 792 0274 1B68     		ldr	r3, [r3]
 537:Drivers/STM32F1xx_HAL_Driver/Src/stm32f1xx_hal_rcc.c ****     {
 793              		.loc 1 537 8 view .LVU232
 794 0276 13F4807F 		tst	r3, #256
 795 027a 34D0     		beq	.L129
 796              	.L66:
 555:Drivers/STM32F1xx_HAL_Driver/Src/stm32f1xx_hal_rcc.c ****     /* Check the LSE State */
 797              		.loc 1 555 5 is_stmt 1 view .LVU233
 555:Drivers/STM32F1xx_HAL_Driver/Src/stm32f1xx_hal_rcc.c ****     /* Check the LSE State */
 798              		.loc 1 555 5 view .LVU234
 799 027c E368     		ldr	r3, [r4, #12]
 800 027e 012B     		cmp	r3, #1
ARM GAS  C:\Users\begre\AppData\Local\Temp\ccwT0kAZ.s 			page 43


 801 0280 45D0     		beq	.L130
 555:Drivers/STM32F1xx_HAL_Driver/Src/stm32f1xx_hal_rcc.c ****     /* Check the LSE State */
 802              		.loc 1 555 5 discriminator 2 view .LVU235
 803 0282 002B     		cmp	r3, #0
 804 0284 5BD1     		bne	.L71
 555:Drivers/STM32F1xx_HAL_Driver/Src/stm32f1xx_hal_rcc.c ****     /* Check the LSE State */
 805              		.loc 1 555 5 discriminator 4 view .LVU236
 806 0286 03F18043 		add	r3, r3, #1073741824
 807 028a 03F50433 		add	r3, r3, #135168
 808 028e 1A6A     		ldr	r2, [r3, #32]
 809 0290 22F00102 		bic	r2, r2, #1
 810 0294 1A62     		str	r2, [r3, #32]
 555:Drivers/STM32F1xx_HAL_Driver/Src/stm32f1xx_hal_rcc.c ****     /* Check the LSE State */
 811              		.loc 1 555 5 discriminator 4 view .LVU237
 812 0296 1A6A     		ldr	r2, [r3, #32]
 813 0298 22F00402 		bic	r2, r2, #4
 814 029c 1A62     		str	r2, [r3, #32]
 815 029e 3BE0     		b	.L70
 816              	.L142:
 817              		.align	2
 818              	.L141:
 819 02a0 00100240 		.word	1073876992
 820 02a4 00000000 		.word	.LC0
 821 02a8 00004242 		.word	1111621632
 822 02ac 00700040 		.word	1073770496
 823              	.LVL57:
 824              	.L58:
 555:Drivers/STM32F1xx_HAL_Driver/Src/stm32f1xx_hal_rcc.c ****     /* Check the LSE State */
 825              		.loc 1 555 5 is_stmt 0 discriminator 4 view .LVU238
 826              	.LBE2:
 506:Drivers/STM32F1xx_HAL_Driver/Src/stm32f1xx_hal_rcc.c **** 
 827              		.loc 1 506 7 is_stmt 1 view .LVU239
 828 02b0 A14B     		ldr	r3, .L143
 829 02b2 0022     		movs	r2, #0
 830 02b4 C3F88024 		str	r2, [r3, #1152]
 509:Drivers/STM32F1xx_HAL_Driver/Src/stm32f1xx_hal_rcc.c **** 
 831              		.loc 1 509 7 view .LVU240
 509:Drivers/STM32F1xx_HAL_Driver/Src/stm32f1xx_hal_rcc.c **** 
 832              		.loc 1 509 19 is_stmt 0 view .LVU241
 833 02b8 FFF7FEFF 		bl	HAL_GetTick
 834              	.LVL58:
 835 02bc 0546     		mov	r5, r0
 836              	.LVL59:
 512:Drivers/STM32F1xx_HAL_Driver/Src/stm32f1xx_hal_rcc.c ****       {
 837              		.loc 1 512 7 is_stmt 1 view .LVU242
 838              	.L61:
 512:Drivers/STM32F1xx_HAL_Driver/Src/stm32f1xx_hal_rcc.c ****       {
 839              		.loc 1 512 13 view .LVU243
 512:Drivers/STM32F1xx_HAL_Driver/Src/stm32f1xx_hal_rcc.c ****       {
 840              		.loc 1 512 14 is_stmt 0 view .LVU244
 841 02be 9F4B     		ldr	r3, .L143+4
 842 02c0 5B6A     		ldr	r3, [r3, #36]
 512:Drivers/STM32F1xx_HAL_Driver/Src/stm32f1xx_hal_rcc.c ****       {
 843              		.loc 1 512 13 view .LVU245
 844 02c2 13F0020F 		tst	r3, #2
 845 02c6 BAD0     		beq	.L56
 514:Drivers/STM32F1xx_HAL_Driver/Src/stm32f1xx_hal_rcc.c ****         {
ARM GAS  C:\Users\begre\AppData\Local\Temp\ccwT0kAZ.s 			page 44


 846              		.loc 1 514 9 is_stmt 1 view .LVU246
 514:Drivers/STM32F1xx_HAL_Driver/Src/stm32f1xx_hal_rcc.c ****         {
 847              		.loc 1 514 14 is_stmt 0 view .LVU247
 848 02c8 FFF7FEFF 		bl	HAL_GetTick
 849              	.LVL60:
 514:Drivers/STM32F1xx_HAL_Driver/Src/stm32f1xx_hal_rcc.c ****         {
 850              		.loc 1 514 28 view .LVU248
 851 02cc 401B     		subs	r0, r0, r5
 514:Drivers/STM32F1xx_HAL_Driver/Src/stm32f1xx_hal_rcc.c ****         {
 852              		.loc 1 514 12 view .LVU249
 853 02ce 0228     		cmp	r0, #2
 854 02d0 F5D9     		bls	.L61
 516:Drivers/STM32F1xx_HAL_Driver/Src/stm32f1xx_hal_rcc.c ****         }
 855              		.loc 1 516 18 view .LVU250
 856 02d2 0320     		movs	r0, #3
 857 02d4 27E1     		b	.L30
 858              	.LVL61:
 859              	.L128:
 860              	.LBB4:
 527:Drivers/STM32F1xx_HAL_Driver/Src/stm32f1xx_hal_rcc.c **** 
 861              		.loc 1 527 5 discriminator 2 view .LVU251
 862 02d6 40F20F21 		movw	r1, #527
 863 02da 9948     		ldr	r0, .L143+8
 864 02dc FFF7FEFF 		bl	assert_failed
 865              	.LVL62:
 866 02e0 B7E7     		b	.L64
 867              	.L101:
 524:Drivers/STM32F1xx_HAL_Driver/Src/stm32f1xx_hal_rcc.c **** 
 868              		.loc 1 524 22 view .LVU252
 869 02e2 0025     		movs	r5, #0
 870 02e4 C5E7     		b	.L65
 871              	.LVL63:
 872              	.L129:
 540:Drivers/STM32F1xx_HAL_Driver/Src/stm32f1xx_hal_rcc.c **** 
 873              		.loc 1 540 7 is_stmt 1 view .LVU253
 874 02e6 974A     		ldr	r2, .L143+12
 875 02e8 1368     		ldr	r3, [r2]
 876 02ea 43F48073 		orr	r3, r3, #256
 877 02ee 1360     		str	r3, [r2]
 543:Drivers/STM32F1xx_HAL_Driver/Src/stm32f1xx_hal_rcc.c **** 
 878              		.loc 1 543 7 view .LVU254
 543:Drivers/STM32F1xx_HAL_Driver/Src/stm32f1xx_hal_rcc.c **** 
 879              		.loc 1 543 19 is_stmt 0 view .LVU255
 880 02f0 FFF7FEFF 		bl	HAL_GetTick
 881              	.LVL64:
 882 02f4 0646     		mov	r6, r0
 883              	.LVL65:
 545:Drivers/STM32F1xx_HAL_Driver/Src/stm32f1xx_hal_rcc.c ****       {
 884              		.loc 1 545 7 is_stmt 1 view .LVU256
 885              	.L67:
 545:Drivers/STM32F1xx_HAL_Driver/Src/stm32f1xx_hal_rcc.c ****       {
 886              		.loc 1 545 13 view .LVU257
 545:Drivers/STM32F1xx_HAL_Driver/Src/stm32f1xx_hal_rcc.c ****       {
 887              		.loc 1 545 14 is_stmt 0 view .LVU258
 888 02f6 934B     		ldr	r3, .L143+12
 889 02f8 1B68     		ldr	r3, [r3]
 545:Drivers/STM32F1xx_HAL_Driver/Src/stm32f1xx_hal_rcc.c ****       {
ARM GAS  C:\Users\begre\AppData\Local\Temp\ccwT0kAZ.s 			page 45


 890              		.loc 1 545 13 view .LVU259
 891 02fa 13F4807F 		tst	r3, #256
 892 02fe BDD1     		bne	.L66
 547:Drivers/STM32F1xx_HAL_Driver/Src/stm32f1xx_hal_rcc.c ****         {
 893              		.loc 1 547 9 is_stmt 1 view .LVU260
 547:Drivers/STM32F1xx_HAL_Driver/Src/stm32f1xx_hal_rcc.c ****         {
 894              		.loc 1 547 14 is_stmt 0 view .LVU261
 895 0300 FFF7FEFF 		bl	HAL_GetTick
 896              	.LVL66:
 547:Drivers/STM32F1xx_HAL_Driver/Src/stm32f1xx_hal_rcc.c ****         {
 897              		.loc 1 547 28 view .LVU262
 898 0304 801B     		subs	r0, r0, r6
 547:Drivers/STM32F1xx_HAL_Driver/Src/stm32f1xx_hal_rcc.c ****         {
 899              		.loc 1 547 12 view .LVU263
 900 0306 6428     		cmp	r0, #100
 901 0308 F5D9     		bls	.L67
 549:Drivers/STM32F1xx_HAL_Driver/Src/stm32f1xx_hal_rcc.c ****         }
 902              		.loc 1 549 18 view .LVU264
 903 030a 0320     		movs	r0, #3
 904 030c 0BE1     		b	.L30
 905              	.LVL67:
 906              	.L130:
 555:Drivers/STM32F1xx_HAL_Driver/Src/stm32f1xx_hal_rcc.c ****     /* Check the LSE State */
 907              		.loc 1 555 5 is_stmt 1 discriminator 1 view .LVU265
 908 030e 8B4A     		ldr	r2, .L143+4
 909 0310 136A     		ldr	r3, [r2, #32]
 910 0312 43F00103 		orr	r3, r3, #1
 911 0316 1362     		str	r3, [r2, #32]
 912              	.L70:
 555:Drivers/STM32F1xx_HAL_Driver/Src/stm32f1xx_hal_rcc.c ****     /* Check the LSE State */
 913              		.loc 1 555 5 discriminator 10 view .LVU266
 557:Drivers/STM32F1xx_HAL_Driver/Src/stm32f1xx_hal_rcc.c ****     {
 914              		.loc 1 557 5 discriminator 10 view .LVU267
 557:Drivers/STM32F1xx_HAL_Driver/Src/stm32f1xx_hal_rcc.c ****     {
 915              		.loc 1 557 26 is_stmt 0 discriminator 10 view .LVU268
 916 0318 E368     		ldr	r3, [r4, #12]
 557:Drivers/STM32F1xx_HAL_Driver/Src/stm32f1xx_hal_rcc.c ****     {
 917              		.loc 1 557 8 discriminator 10 view .LVU269
 918 031a 33B3     		cbz	r3, .L73
 560:Drivers/STM32F1xx_HAL_Driver/Src/stm32f1xx_hal_rcc.c **** 
 919              		.loc 1 560 7 is_stmt 1 view .LVU270
 560:Drivers/STM32F1xx_HAL_Driver/Src/stm32f1xx_hal_rcc.c **** 
 920              		.loc 1 560 19 is_stmt 0 view .LVU271
 921 031c FFF7FEFF 		bl	HAL_GetTick
 922              	.LVL68:
 923 0320 0646     		mov	r6, r0
 924              	.LVL69:
 563:Drivers/STM32F1xx_HAL_Driver/Src/stm32f1xx_hal_rcc.c ****       {
 925              		.loc 1 563 7 is_stmt 1 view .LVU272
 926              	.L74:
 563:Drivers/STM32F1xx_HAL_Driver/Src/stm32f1xx_hal_rcc.c ****       {
 927              		.loc 1 563 13 view .LVU273
 563:Drivers/STM32F1xx_HAL_Driver/Src/stm32f1xx_hal_rcc.c ****       {
 928              		.loc 1 563 14 is_stmt 0 view .LVU274
 929 0322 864B     		ldr	r3, .L143+4
 930 0324 1B6A     		ldr	r3, [r3, #32]
 563:Drivers/STM32F1xx_HAL_Driver/Src/stm32f1xx_hal_rcc.c ****       {
ARM GAS  C:\Users\begre\AppData\Local\Temp\ccwT0kAZ.s 			page 46


 931              		.loc 1 563 13 view .LVU275
 932 0326 13F0020F 		tst	r3, #2
 933 032a 2FD1     		bne	.L76
 565:Drivers/STM32F1xx_HAL_Driver/Src/stm32f1xx_hal_rcc.c ****         {
 934              		.loc 1 565 9 is_stmt 1 view .LVU276
 565:Drivers/STM32F1xx_HAL_Driver/Src/stm32f1xx_hal_rcc.c ****         {
 935              		.loc 1 565 14 is_stmt 0 view .LVU277
 936 032c FFF7FEFF 		bl	HAL_GetTick
 937              	.LVL70:
 565:Drivers/STM32F1xx_HAL_Driver/Src/stm32f1xx_hal_rcc.c ****         {
 938              		.loc 1 565 28 view .LVU278
 939 0330 801B     		subs	r0, r0, r6
 565:Drivers/STM32F1xx_HAL_Driver/Src/stm32f1xx_hal_rcc.c ****         {
 940              		.loc 1 565 12 view .LVU279
 941 0332 41F28833 		movw	r3, #5000
 942 0336 9842     		cmp	r0, r3
 943 0338 F3D9     		bls	.L74
 567:Drivers/STM32F1xx_HAL_Driver/Src/stm32f1xx_hal_rcc.c ****         }
 944              		.loc 1 567 18 view .LVU280
 945 033a 0320     		movs	r0, #3
 946 033c F3E0     		b	.L30
 947              	.LVL71:
 948              	.L71:
 555:Drivers/STM32F1xx_HAL_Driver/Src/stm32f1xx_hal_rcc.c ****     /* Check the LSE State */
 949              		.loc 1 555 5 is_stmt 1 discriminator 5 view .LVU281
 950 033e 052B     		cmp	r3, #5
 951 0340 09D0     		beq	.L131
 555:Drivers/STM32F1xx_HAL_Driver/Src/stm32f1xx_hal_rcc.c ****     /* Check the LSE State */
 952              		.loc 1 555 5 discriminator 8 view .LVU282
 953 0342 7E4B     		ldr	r3, .L143+4
 954 0344 1A6A     		ldr	r2, [r3, #32]
 955 0346 22F00102 		bic	r2, r2, #1
 956 034a 1A62     		str	r2, [r3, #32]
 555:Drivers/STM32F1xx_HAL_Driver/Src/stm32f1xx_hal_rcc.c ****     /* Check the LSE State */
 957              		.loc 1 555 5 discriminator 8 view .LVU283
 958 034c 1A6A     		ldr	r2, [r3, #32]
 959 034e 22F00402 		bic	r2, r2, #4
 960 0352 1A62     		str	r2, [r3, #32]
 961 0354 E0E7     		b	.L70
 962              	.L131:
 555:Drivers/STM32F1xx_HAL_Driver/Src/stm32f1xx_hal_rcc.c ****     /* Check the LSE State */
 963              		.loc 1 555 5 discriminator 7 view .LVU284
 964 0356 794B     		ldr	r3, .L143+4
 965 0358 1A6A     		ldr	r2, [r3, #32]
 966 035a 42F00402 		orr	r2, r2, #4
 967 035e 1A62     		str	r2, [r3, #32]
 555:Drivers/STM32F1xx_HAL_Driver/Src/stm32f1xx_hal_rcc.c ****     /* Check the LSE State */
 968              		.loc 1 555 5 discriminator 7 view .LVU285
 969 0360 1A6A     		ldr	r2, [r3, #32]
 970 0362 42F00102 		orr	r2, r2, #1
 971 0366 1A62     		str	r2, [r3, #32]
 972 0368 D6E7     		b	.L70
 973              	.L73:
 574:Drivers/STM32F1xx_HAL_Driver/Src/stm32f1xx_hal_rcc.c **** 
 974              		.loc 1 574 7 view .LVU286
 574:Drivers/STM32F1xx_HAL_Driver/Src/stm32f1xx_hal_rcc.c **** 
 975              		.loc 1 574 19 is_stmt 0 view .LVU287
ARM GAS  C:\Users\begre\AppData\Local\Temp\ccwT0kAZ.s 			page 47


 976 036a FFF7FEFF 		bl	HAL_GetTick
 977              	.LVL72:
 978 036e 0646     		mov	r6, r0
 979              	.LVL73:
 577:Drivers/STM32F1xx_HAL_Driver/Src/stm32f1xx_hal_rcc.c ****       {
 980              		.loc 1 577 7 is_stmt 1 view .LVU288
 981              	.L77:
 577:Drivers/STM32F1xx_HAL_Driver/Src/stm32f1xx_hal_rcc.c ****       {
 982              		.loc 1 577 13 view .LVU289
 577:Drivers/STM32F1xx_HAL_Driver/Src/stm32f1xx_hal_rcc.c ****       {
 983              		.loc 1 577 14 is_stmt 0 view .LVU290
 984 0370 724B     		ldr	r3, .L143+4
 985 0372 1B6A     		ldr	r3, [r3, #32]
 577:Drivers/STM32F1xx_HAL_Driver/Src/stm32f1xx_hal_rcc.c ****       {
 986              		.loc 1 577 13 view .LVU291
 987 0374 13F0020F 		tst	r3, #2
 988 0378 08D0     		beq	.L76
 579:Drivers/STM32F1xx_HAL_Driver/Src/stm32f1xx_hal_rcc.c ****         {
 989              		.loc 1 579 9 is_stmt 1 view .LVU292
 579:Drivers/STM32F1xx_HAL_Driver/Src/stm32f1xx_hal_rcc.c ****         {
 990              		.loc 1 579 14 is_stmt 0 view .LVU293
 991 037a FFF7FEFF 		bl	HAL_GetTick
 992              	.LVL74:
 579:Drivers/STM32F1xx_HAL_Driver/Src/stm32f1xx_hal_rcc.c ****         {
 993              		.loc 1 579 28 view .LVU294
 994 037e 801B     		subs	r0, r0, r6
 579:Drivers/STM32F1xx_HAL_Driver/Src/stm32f1xx_hal_rcc.c ****         {
 995              		.loc 1 579 12 view .LVU295
 996 0380 41F28833 		movw	r3, #5000
 997 0384 9842     		cmp	r0, r3
 998 0386 F3D9     		bls	.L77
 581:Drivers/STM32F1xx_HAL_Driver/Src/stm32f1xx_hal_rcc.c ****         }
 999              		.loc 1 581 18 view .LVU296
 1000 0388 0320     		movs	r0, #3
 1001 038a CCE0     		b	.L30
 1002              	.L76:
 587:Drivers/STM32F1xx_HAL_Driver/Src/stm32f1xx_hal_rcc.c ****     {
 1003              		.loc 1 587 5 is_stmt 1 view .LVU297
 587:Drivers/STM32F1xx_HAL_Driver/Src/stm32f1xx_hal_rcc.c ****     {
 1004              		.loc 1 587 8 is_stmt 0 view .LVU298
 1005 038c 002D     		cmp	r5, #0
 1006 038e 53D1     		bne	.L132
 1007              	.LVL75:
 1008              	.L63:
 587:Drivers/STM32F1xx_HAL_Driver/Src/stm32f1xx_hal_rcc.c ****     {
 1009              		.loc 1 587 8 view .LVU299
 1010              	.LBE4:
 685:Drivers/STM32F1xx_HAL_Driver/Src/stm32f1xx_hal_rcc.c ****   if ((RCC_OscInitStruct->PLL.PLLState) != RCC_PLL_NONE)
 1011              		.loc 1 685 3 is_stmt 1 view .LVU300
 1012 0390 E369     		ldr	r3, [r4, #28]
 1013 0392 022B     		cmp	r3, #2
 1014 0394 56D8     		bhi	.L133
 1015              	.L79:
 686:Drivers/STM32F1xx_HAL_Driver/Src/stm32f1xx_hal_rcc.c ****   {
 1016              		.loc 1 686 3 view .LVU301
 686:Drivers/STM32F1xx_HAL_Driver/Src/stm32f1xx_hal_rcc.c ****   {
 1017              		.loc 1 686 30 is_stmt 0 view .LVU302
ARM GAS  C:\Users\begre\AppData\Local\Temp\ccwT0kAZ.s 			page 48


 1018 0396 E369     		ldr	r3, [r4, #28]
 686:Drivers/STM32F1xx_HAL_Driver/Src/stm32f1xx_hal_rcc.c ****   {
 1019              		.loc 1 686 6 view .LVU303
 1020 0398 002B     		cmp	r3, #0
 1021 039a 00F0C380 		beq	.L105
 689:Drivers/STM32F1xx_HAL_Driver/Src/stm32f1xx_hal_rcc.c ****     {
 1022              		.loc 1 689 5 is_stmt 1 view .LVU304
 689:Drivers/STM32F1xx_HAL_Driver/Src/stm32f1xx_hal_rcc.c ****     {
 1023              		.loc 1 689 9 is_stmt 0 view .LVU305
 1024 039e 674A     		ldr	r2, .L143+4
 1025 03a0 5268     		ldr	r2, [r2, #4]
 1026 03a2 02F00C02 		and	r2, r2, #12
 689:Drivers/STM32F1xx_HAL_Driver/Src/stm32f1xx_hal_rcc.c ****     {
 1027              		.loc 1 689 8 view .LVU306
 1028 03a6 082A     		cmp	r2, #8
 1029 03a8 00F0A680 		beq	.L80
 691:Drivers/STM32F1xx_HAL_Driver/Src/stm32f1xx_hal_rcc.c ****       {
 1030              		.loc 1 691 7 is_stmt 1 view .LVU307
 691:Drivers/STM32F1xx_HAL_Driver/Src/stm32f1xx_hal_rcc.c ****       {
 1031              		.loc 1 691 10 is_stmt 0 view .LVU308
 1032 03ac 022B     		cmp	r3, #2
 1033 03ae 40F08F80 		bne	.L81
 694:Drivers/STM32F1xx_HAL_Driver/Src/stm32f1xx_hal_rcc.c ****         assert_param(IS_RCC_PLL_MUL(RCC_OscInitStruct->PLL.PLLMUL));
 1034              		.loc 1 694 9 is_stmt 1 view .LVU309
 1035 03b2 236A     		ldr	r3, [r4, #32]
 1036 03b4 13B1     		cbz	r3, .L82
 694:Drivers/STM32F1xx_HAL_Driver/Src/stm32f1xx_hal_rcc.c ****         assert_param(IS_RCC_PLL_MUL(RCC_OscInitStruct->PLL.PLLMUL));
 1037              		.loc 1 694 9 is_stmt 0 discriminator 1 view .LVU310
 1038 03b6 B3F5803F 		cmp	r3, #65536
 1039 03ba 49D1     		bne	.L134
 1040              	.L82:
 695:Drivers/STM32F1xx_HAL_Driver/Src/stm32f1xx_hal_rcc.c **** 
 1041              		.loc 1 695 9 is_stmt 1 view .LVU311
 1042 03bc 636A     		ldr	r3, [r4, #36]
 1043 03be 4BB3     		cbz	r3, .L83
 695:Drivers/STM32F1xx_HAL_Driver/Src/stm32f1xx_hal_rcc.c **** 
 1044              		.loc 1 695 9 is_stmt 0 discriminator 1 view .LVU312
 1045 03c0 B3F5802F 		cmp	r3, #262144
 1046 03c4 26D0     		beq	.L83
 695:Drivers/STM32F1xx_HAL_Driver/Src/stm32f1xx_hal_rcc.c **** 
 1047              		.loc 1 695 9 discriminator 2 view .LVU313
 1048 03c6 B3F5002F 		cmp	r3, #524288
 1049 03ca 23D0     		beq	.L83
 695:Drivers/STM32F1xx_HAL_Driver/Src/stm32f1xx_hal_rcc.c **** 
 1050              		.loc 1 695 9 discriminator 3 view .LVU314
 1051 03cc B3F5402F 		cmp	r3, #786432
 1052 03d0 20D0     		beq	.L83
 695:Drivers/STM32F1xx_HAL_Driver/Src/stm32f1xx_hal_rcc.c **** 
 1053              		.loc 1 695 9 discriminator 4 view .LVU315
 1054 03d2 B3F5801F 		cmp	r3, #1048576
 1055 03d6 1DD0     		beq	.L83
 695:Drivers/STM32F1xx_HAL_Driver/Src/stm32f1xx_hal_rcc.c **** 
 1056              		.loc 1 695 9 discriminator 5 view .LVU316
 1057 03d8 B3F5A01F 		cmp	r3, #1310720
 1058 03dc 1AD0     		beq	.L83
 695:Drivers/STM32F1xx_HAL_Driver/Src/stm32f1xx_hal_rcc.c **** 
 1059              		.loc 1 695 9 discriminator 6 view .LVU317
ARM GAS  C:\Users\begre\AppData\Local\Temp\ccwT0kAZ.s 			page 49


 1060 03de B3F5C01F 		cmp	r3, #1572864
 1061 03e2 17D0     		beq	.L83
 695:Drivers/STM32F1xx_HAL_Driver/Src/stm32f1xx_hal_rcc.c **** 
 1062              		.loc 1 695 9 discriminator 7 view .LVU318
 1063 03e4 B3F5E01F 		cmp	r3, #1835008
 1064 03e8 14D0     		beq	.L83
 695:Drivers/STM32F1xx_HAL_Driver/Src/stm32f1xx_hal_rcc.c **** 
 1065              		.loc 1 695 9 discriminator 8 view .LVU319
 1066 03ea B3F5001F 		cmp	r3, #2097152
 1067 03ee 11D0     		beq	.L83
 695:Drivers/STM32F1xx_HAL_Driver/Src/stm32f1xx_hal_rcc.c **** 
 1068              		.loc 1 695 9 discriminator 9 view .LVU320
 1069 03f0 B3F5101F 		cmp	r3, #2359296
 1070 03f4 0ED0     		beq	.L83
 695:Drivers/STM32F1xx_HAL_Driver/Src/stm32f1xx_hal_rcc.c **** 
 1071              		.loc 1 695 9 discriminator 10 view .LVU321
 1072 03f6 B3F5201F 		cmp	r3, #2621440
 1073 03fa 0BD0     		beq	.L83
 695:Drivers/STM32F1xx_HAL_Driver/Src/stm32f1xx_hal_rcc.c **** 
 1074              		.loc 1 695 9 discriminator 11 view .LVU322
 1075 03fc B3F5301F 		cmp	r3, #2883584
 1076 0400 08D0     		beq	.L83
 695:Drivers/STM32F1xx_HAL_Driver/Src/stm32f1xx_hal_rcc.c **** 
 1077              		.loc 1 695 9 discriminator 12 view .LVU323
 1078 0402 B3F5401F 		cmp	r3, #3145728
 1079 0406 05D0     		beq	.L83
 695:Drivers/STM32F1xx_HAL_Driver/Src/stm32f1xx_hal_rcc.c **** 
 1080              		.loc 1 695 9 discriminator 13 view .LVU324
 1081 0408 B3F5501F 		cmp	r3, #3407872
 1082 040c 02D0     		beq	.L83
 695:Drivers/STM32F1xx_HAL_Driver/Src/stm32f1xx_hal_rcc.c **** 
 1083              		.loc 1 695 9 discriminator 14 view .LVU325
 1084 040e B3F5601F 		cmp	r3, #3670016
 1085 0412 23D1     		bne	.L135
 1086              	.L83:
 698:Drivers/STM32F1xx_HAL_Driver/Src/stm32f1xx_hal_rcc.c **** 
 1087              		.loc 1 698 9 is_stmt 1 view .LVU326
 1088 0414 484B     		ldr	r3, .L143
 1089 0416 0022     		movs	r2, #0
 1090 0418 1A66     		str	r2, [r3, #96]
 701:Drivers/STM32F1xx_HAL_Driver/Src/stm32f1xx_hal_rcc.c **** 
 1091              		.loc 1 701 9 view .LVU327
 701:Drivers/STM32F1xx_HAL_Driver/Src/stm32f1xx_hal_rcc.c **** 
 1092              		.loc 1 701 21 is_stmt 0 view .LVU328
 1093 041a FFF7FEFF 		bl	HAL_GetTick
 1094              	.LVL76:
 1095 041e 0546     		mov	r5, r0
 1096              	.LVL77:
 704:Drivers/STM32F1xx_HAL_Driver/Src/stm32f1xx_hal_rcc.c ****         {
 1097              		.loc 1 704 9 is_stmt 1 view .LVU329
 1098              	.L84:
 704:Drivers/STM32F1xx_HAL_Driver/Src/stm32f1xx_hal_rcc.c ****         {
 1099              		.loc 1 704 15 view .LVU330
 704:Drivers/STM32F1xx_HAL_Driver/Src/stm32f1xx_hal_rcc.c ****         {
 1100              		.loc 1 704 16 is_stmt 0 view .LVU331
 1101 0420 464B     		ldr	r3, .L143+4
 1102 0422 1B68     		ldr	r3, [r3]
ARM GAS  C:\Users\begre\AppData\Local\Temp\ccwT0kAZ.s 			page 50


 704:Drivers/STM32F1xx_HAL_Driver/Src/stm32f1xx_hal_rcc.c ****         {
 1103              		.loc 1 704 15 view .LVU332
 1104 0424 13F0007F 		tst	r3, #33554432
 1105 0428 1ED0     		beq	.L136
 706:Drivers/STM32F1xx_HAL_Driver/Src/stm32f1xx_hal_rcc.c ****           {
 1106              		.loc 1 706 11 is_stmt 1 view .LVU333
 706:Drivers/STM32F1xx_HAL_Driver/Src/stm32f1xx_hal_rcc.c ****           {
 1107              		.loc 1 706 16 is_stmt 0 view .LVU334
 1108 042a FFF7FEFF 		bl	HAL_GetTick
 1109              	.LVL78:
 706:Drivers/STM32F1xx_HAL_Driver/Src/stm32f1xx_hal_rcc.c ****           {
 1110              		.loc 1 706 30 view .LVU335
 1111 042e 401B     		subs	r0, r0, r5
 706:Drivers/STM32F1xx_HAL_Driver/Src/stm32f1xx_hal_rcc.c ****           {
 1112              		.loc 1 706 14 view .LVU336
 1113 0430 0228     		cmp	r0, #2
 1114 0432 F5D9     		bls	.L84
 708:Drivers/STM32F1xx_HAL_Driver/Src/stm32f1xx_hal_rcc.c ****           }
 1115              		.loc 1 708 20 view .LVU337
 1116 0434 0320     		movs	r0, #3
 1117 0436 76E0     		b	.L30
 1118              	.LVL79:
 1119              	.L132:
 1120              	.LBB5:
 589:Drivers/STM32F1xx_HAL_Driver/Src/stm32f1xx_hal_rcc.c ****     }
 1121              		.loc 1 589 7 is_stmt 1 view .LVU338
 1122 0438 404A     		ldr	r2, .L143+4
 1123 043a D369     		ldr	r3, [r2, #28]
 1124 043c 23F08053 		bic	r3, r3, #268435456
 1125 0440 D361     		str	r3, [r2, #28]
 1126 0442 A5E7     		b	.L63
 1127              	.LVL80:
 1128              	.L133:
 589:Drivers/STM32F1xx_HAL_Driver/Src/stm32f1xx_hal_rcc.c ****     }
 1129              		.loc 1 589 7 is_stmt 0 view .LVU339
 1130              	.LBE5:
 685:Drivers/STM32F1xx_HAL_Driver/Src/stm32f1xx_hal_rcc.c ****   if ((RCC_OscInitStruct->PLL.PLLState) != RCC_PLL_NONE)
 1131              		.loc 1 685 3 discriminator 1 view .LVU340
 1132 0444 40F2AD21 		movw	r1, #685
 1133 0448 3D48     		ldr	r0, .L143+8
 1134 044a FFF7FEFF 		bl	assert_failed
 1135              	.LVL81:
 1136 044e A2E7     		b	.L79
 1137              	.L134:
 694:Drivers/STM32F1xx_HAL_Driver/Src/stm32f1xx_hal_rcc.c ****         assert_param(IS_RCC_PLL_MUL(RCC_OscInitStruct->PLL.PLLMUL));
 1138              		.loc 1 694 9 discriminator 2 view .LVU341
 1139 0450 40F2B621 		movw	r1, #694
 1140 0454 3A48     		ldr	r0, .L143+8
 1141 0456 FFF7FEFF 		bl	assert_failed
 1142              	.LVL82:
 1143 045a AFE7     		b	.L82
 1144              	.L135:
 695:Drivers/STM32F1xx_HAL_Driver/Src/stm32f1xx_hal_rcc.c **** 
 1145              		.loc 1 695 9 discriminator 15 view .LVU342
 1146 045c 40F2B721 		movw	r1, #695
 1147 0460 3748     		ldr	r0, .L143+8
 1148 0462 FFF7FEFF 		bl	assert_failed
ARM GAS  C:\Users\begre\AppData\Local\Temp\ccwT0kAZ.s 			page 51


 1149              	.LVL83:
 1150 0466 D5E7     		b	.L83
 1151              	.LVL84:
 1152              	.L136:
 714:Drivers/STM32F1xx_HAL_Driver/Src/stm32f1xx_hal_rcc.c ****         {
 1153              		.loc 1 714 9 is_stmt 1 view .LVU343
 714:Drivers/STM32F1xx_HAL_Driver/Src/stm32f1xx_hal_rcc.c ****         {
 1154              		.loc 1 714 35 is_stmt 0 view .LVU344
 1155 0468 236A     		ldr	r3, [r4, #32]
 714:Drivers/STM32F1xx_HAL_Driver/Src/stm32f1xx_hal_rcc.c ****         {
 1156              		.loc 1 714 12 view .LVU345
 1157 046a B3F5803F 		cmp	r3, #65536
 1158 046e 1AD0     		beq	.L137
 1159              	.L86:
 730:Drivers/STM32F1xx_HAL_Driver/Src/stm32f1xx_hal_rcc.c ****                              RCC_OscInitStruct->PLL.PLLMUL);
 1160              		.loc 1 730 9 is_stmt 1 view .LVU346
 1161 0470 3249     		ldr	r1, .L143+4
 1162 0472 4B68     		ldr	r3, [r1, #4]
 1163 0474 23F47413 		bic	r3, r3, #3997696
 1164 0478 226A     		ldr	r2, [r4, #32]
 1165 047a 606A     		ldr	r0, [r4, #36]
 1166 047c 0243     		orrs	r2, r2, r0
 1167 047e 1343     		orrs	r3, r3, r2
 1168 0480 4B60     		str	r3, [r1, #4]
 733:Drivers/STM32F1xx_HAL_Driver/Src/stm32f1xx_hal_rcc.c **** 
 1169              		.loc 1 733 9 view .LVU347
 1170 0482 2D4B     		ldr	r3, .L143
 1171 0484 0122     		movs	r2, #1
 1172 0486 1A66     		str	r2, [r3, #96]
 736:Drivers/STM32F1xx_HAL_Driver/Src/stm32f1xx_hal_rcc.c **** 
 1173              		.loc 1 736 9 view .LVU348
 736:Drivers/STM32F1xx_HAL_Driver/Src/stm32f1xx_hal_rcc.c **** 
 1174              		.loc 1 736 21 is_stmt 0 view .LVU349
 1175 0488 FFF7FEFF 		bl	HAL_GetTick
 1176              	.LVL85:
 1177 048c 0446     		mov	r4, r0
 1178              	.LVL86:
 739:Drivers/STM32F1xx_HAL_Driver/Src/stm32f1xx_hal_rcc.c ****         {
 1179              		.loc 1 739 9 is_stmt 1 view .LVU350
 1180              	.L88:
 739:Drivers/STM32F1xx_HAL_Driver/Src/stm32f1xx_hal_rcc.c ****         {
 1181              		.loc 1 739 15 view .LVU351
 739:Drivers/STM32F1xx_HAL_Driver/Src/stm32f1xx_hal_rcc.c ****         {
 1182              		.loc 1 739 16 is_stmt 0 view .LVU352
 1183 048e 2B4B     		ldr	r3, .L143+4
 1184 0490 1B68     		ldr	r3, [r3]
 739:Drivers/STM32F1xx_HAL_Driver/Src/stm32f1xx_hal_rcc.c ****         {
 1185              		.loc 1 739 15 view .LVU353
 1186 0492 13F0007F 		tst	r3, #33554432
 1187 0496 19D1     		bne	.L138
 741:Drivers/STM32F1xx_HAL_Driver/Src/stm32f1xx_hal_rcc.c ****           {
 1188              		.loc 1 741 11 is_stmt 1 view .LVU354
 741:Drivers/STM32F1xx_HAL_Driver/Src/stm32f1xx_hal_rcc.c ****           {
 1189              		.loc 1 741 16 is_stmt 0 view .LVU355
 1190 0498 FFF7FEFF 		bl	HAL_GetTick
 1191              	.LVL87:
 741:Drivers/STM32F1xx_HAL_Driver/Src/stm32f1xx_hal_rcc.c ****           {
ARM GAS  C:\Users\begre\AppData\Local\Temp\ccwT0kAZ.s 			page 52


 1192              		.loc 1 741 30 view .LVU356
 1193 049c 001B     		subs	r0, r0, r4
 741:Drivers/STM32F1xx_HAL_Driver/Src/stm32f1xx_hal_rcc.c ****           {
 1194              		.loc 1 741 14 view .LVU357
 1195 049e 0228     		cmp	r0, #2
 1196 04a0 F5D9     		bls	.L88
 743:Drivers/STM32F1xx_HAL_Driver/Src/stm32f1xx_hal_rcc.c ****           }
 1197              		.loc 1 743 20 view .LVU358
 1198 04a2 0320     		movs	r0, #3
 1199 04a4 3FE0     		b	.L30
 1200              	.LVL88:
 1201              	.L137:
 717:Drivers/STM32F1xx_HAL_Driver/Src/stm32f1xx_hal_rcc.c **** #if defined(RCC_CFGR2_PREDIV1SRC)
 1202              		.loc 1 717 11 is_stmt 1 view .LVU359
 1203 04a6 A368     		ldr	r3, [r4, #8]
 1204 04a8 13B1     		cbz	r3, .L87
 717:Drivers/STM32F1xx_HAL_Driver/Src/stm32f1xx_hal_rcc.c **** #if defined(RCC_CFGR2_PREDIV1SRC)
 1205              		.loc 1 717 11 is_stmt 0 discriminator 1 view .LVU360
 1206 04aa B3F5003F 		cmp	r3, #131072
 1207 04ae 07D1     		bne	.L139
 1208              	.L87:
 726:Drivers/STM32F1xx_HAL_Driver/Src/stm32f1xx_hal_rcc.c ****         }
 1209              		.loc 1 726 11 is_stmt 1 view .LVU361
 1210 04b0 224A     		ldr	r2, .L143+4
 1211 04b2 5368     		ldr	r3, [r2, #4]
 1212 04b4 23F40033 		bic	r3, r3, #131072
 1213 04b8 A168     		ldr	r1, [r4, #8]
 1214 04ba 0B43     		orrs	r3, r3, r1
 1215 04bc 5360     		str	r3, [r2, #4]
 1216 04be D7E7     		b	.L86
 1217              	.L139:
 717:Drivers/STM32F1xx_HAL_Driver/Src/stm32f1xx_hal_rcc.c **** #if defined(RCC_CFGR2_PREDIV1SRC)
 1218              		.loc 1 717 11 is_stmt 0 discriminator 2 view .LVU362
 1219 04c0 40F2CD21 		movw	r1, #717
 1220 04c4 1E48     		ldr	r0, .L143+8
 1221 04c6 FFF7FEFF 		bl	assert_failed
 1222              	.LVL89:
 1223 04ca F1E7     		b	.L87
 1224              	.LVL90:
 1225              	.L138:
 785:Drivers/STM32F1xx_HAL_Driver/Src/stm32f1xx_hal_rcc.c **** }
 1226              		.loc 1 785 10 view .LVU363
 1227 04cc 0020     		movs	r0, #0
 1228 04ce 2AE0     		b	.L30
 1229              	.LVL91:
 1230              	.L81:
 750:Drivers/STM32F1xx_HAL_Driver/Src/stm32f1xx_hal_rcc.c **** 
 1231              		.loc 1 750 9 is_stmt 1 view .LVU364
 1232 04d0 194B     		ldr	r3, .L143
 1233 04d2 0022     		movs	r2, #0
 1234 04d4 1A66     		str	r2, [r3, #96]
 753:Drivers/STM32F1xx_HAL_Driver/Src/stm32f1xx_hal_rcc.c **** 
 1235              		.loc 1 753 9 view .LVU365
 753:Drivers/STM32F1xx_HAL_Driver/Src/stm32f1xx_hal_rcc.c **** 
 1236              		.loc 1 753 21 is_stmt 0 view .LVU366
 1237 04d6 FFF7FEFF 		bl	HAL_GetTick
 1238              	.LVL92:
ARM GAS  C:\Users\begre\AppData\Local\Temp\ccwT0kAZ.s 			page 53


 1239 04da 0446     		mov	r4, r0
 1240              	.LVL93:
 756:Drivers/STM32F1xx_HAL_Driver/Src/stm32f1xx_hal_rcc.c ****         {
 1241              		.loc 1 756 9 is_stmt 1 view .LVU367
 1242              	.L90:
 756:Drivers/STM32F1xx_HAL_Driver/Src/stm32f1xx_hal_rcc.c ****         {
 1243              		.loc 1 756 15 view .LVU368
 756:Drivers/STM32F1xx_HAL_Driver/Src/stm32f1xx_hal_rcc.c ****         {
 1244              		.loc 1 756 16 is_stmt 0 view .LVU369
 1245 04dc 174B     		ldr	r3, .L143+4
 1246 04de 1B68     		ldr	r3, [r3]
 756:Drivers/STM32F1xx_HAL_Driver/Src/stm32f1xx_hal_rcc.c ****         {
 1247              		.loc 1 756 15 view .LVU370
 1248 04e0 13F0007F 		tst	r3, #33554432
 1249 04e4 06D0     		beq	.L140
 758:Drivers/STM32F1xx_HAL_Driver/Src/stm32f1xx_hal_rcc.c ****           {
 1250              		.loc 1 758 11 is_stmt 1 view .LVU371
 758:Drivers/STM32F1xx_HAL_Driver/Src/stm32f1xx_hal_rcc.c ****           {
 1251              		.loc 1 758 16 is_stmt 0 view .LVU372
 1252 04e6 FFF7FEFF 		bl	HAL_GetTick
 1253              	.LVL94:
 758:Drivers/STM32F1xx_HAL_Driver/Src/stm32f1xx_hal_rcc.c ****           {
 1254              		.loc 1 758 30 view .LVU373
 1255 04ea 001B     		subs	r0, r0, r4
 758:Drivers/STM32F1xx_HAL_Driver/Src/stm32f1xx_hal_rcc.c ****           {
 1256              		.loc 1 758 14 view .LVU374
 1257 04ec 0228     		cmp	r0, #2
 1258 04ee F5D9     		bls	.L90
 760:Drivers/STM32F1xx_HAL_Driver/Src/stm32f1xx_hal_rcc.c ****           }
 1259              		.loc 1 760 20 view .LVU375
 1260 04f0 0320     		movs	r0, #3
 1261 04f2 18E0     		b	.L30
 1262              	.L140:
 785:Drivers/STM32F1xx_HAL_Driver/Src/stm32f1xx_hal_rcc.c **** }
 1263              		.loc 1 785 10 view .LVU376
 1264 04f4 0020     		movs	r0, #0
 1265 04f6 16E0     		b	.L30
 1266              	.LVL95:
 1267              	.L80:
 768:Drivers/STM32F1xx_HAL_Driver/Src/stm32f1xx_hal_rcc.c ****       {
 1268              		.loc 1 768 7 is_stmt 1 view .LVU377
 768:Drivers/STM32F1xx_HAL_Driver/Src/stm32f1xx_hal_rcc.c ****       {
 1269              		.loc 1 768 10 is_stmt 0 view .LVU378
 1270 04f8 012B     		cmp	r3, #1
 1271 04fa 16D0     		beq	.L109
 775:Drivers/STM32F1xx_HAL_Driver/Src/stm32f1xx_hal_rcc.c ****         if ((READ_BIT(pll_config, RCC_CFGR_PLLSRC) != RCC_OscInitStruct->PLL.PLLSource) ||
 1272              		.loc 1 775 9 is_stmt 1 view .LVU379
 775:Drivers/STM32F1xx_HAL_Driver/Src/stm32f1xx_hal_rcc.c ****         if ((READ_BIT(pll_config, RCC_CFGR_PLLSRC) != RCC_OscInitStruct->PLL.PLLSource) ||
 1273              		.loc 1 775 20 is_stmt 0 view .LVU380
 1274 04fc 0F4B     		ldr	r3, .L143+4
 1275 04fe 5B68     		ldr	r3, [r3, #4]
 1276              	.LVL96:
 776:Drivers/STM32F1xx_HAL_Driver/Src/stm32f1xx_hal_rcc.c ****             (READ_BIT(pll_config, RCC_CFGR_PLLMULL) != RCC_OscInitStruct->PLL.PLLMUL))
 1277              		.loc 1 776 9 is_stmt 1 view .LVU381
 776:Drivers/STM32F1xx_HAL_Driver/Src/stm32f1xx_hal_rcc.c ****             (READ_BIT(pll_config, RCC_CFGR_PLLMULL) != RCC_OscInitStruct->PLL.PLLMUL))
 1278              		.loc 1 776 14 is_stmt 0 view .LVU382
 1279 0500 03F48031 		and	r1, r3, #65536
ARM GAS  C:\Users\begre\AppData\Local\Temp\ccwT0kAZ.s 			page 54


 776:Drivers/STM32F1xx_HAL_Driver/Src/stm32f1xx_hal_rcc.c ****             (READ_BIT(pll_config, RCC_CFGR_PLLMULL) != RCC_OscInitStruct->PLL.PLLMUL))
 1280              		.loc 1 776 77 view .LVU383
 1281 0504 226A     		ldr	r2, [r4, #32]
 776:Drivers/STM32F1xx_HAL_Driver/Src/stm32f1xx_hal_rcc.c ****             (READ_BIT(pll_config, RCC_CFGR_PLLMULL) != RCC_OscInitStruct->PLL.PLLMUL))
 1282              		.loc 1 776 12 view .LVU384
 1283 0506 9142     		cmp	r1, r2
 1284 0508 11D1     		bne	.L110
 777:Drivers/STM32F1xx_HAL_Driver/Src/stm32f1xx_hal_rcc.c ****         {
 1285              		.loc 1 777 14 discriminator 1 view .LVU385
 1286 050a 03F47013 		and	r3, r3, #3932160
 1287              	.LVL97:
 777:Drivers/STM32F1xx_HAL_Driver/Src/stm32f1xx_hal_rcc.c ****         {
 1288              		.loc 1 777 78 discriminator 1 view .LVU386
 1289 050e 626A     		ldr	r2, [r4, #36]
 776:Drivers/STM32F1xx_HAL_Driver/Src/stm32f1xx_hal_rcc.c ****             (READ_BIT(pll_config, RCC_CFGR_PLLMULL) != RCC_OscInitStruct->PLL.PLLMUL))
 1290              		.loc 1 776 89 discriminator 1 view .LVU387
 1291 0510 9342     		cmp	r3, r2
 1292 0512 0ED1     		bne	.L111
 785:Drivers/STM32F1xx_HAL_Driver/Src/stm32f1xx_hal_rcc.c **** }
 1293              		.loc 1 785 10 view .LVU388
 1294 0514 0020     		movs	r0, #0
 1295 0516 06E0     		b	.L30
 1296              	.LVL98:
 1297              	.L92:
 1298              	.LCFI5:
 1299              		.cfi_def_cfa_offset 0
 1300              		.cfi_restore 4
 1301              		.cfi_restore 5
 1302              		.cfi_restore 6
 1303              		.cfi_restore 14
 353:Drivers/STM32F1xx_HAL_Driver/Src/stm32f1xx_hal_rcc.c ****   }
 1304              		.loc 1 353 12 view .LVU389
 1305 0518 0120     		movs	r0, #1
 1306              	.LVL99:
 786:Drivers/STM32F1xx_HAL_Driver/Src/stm32f1xx_hal_rcc.c **** 
 1307              		.loc 1 786 1 view .LVU390
 1308 051a 7047     		bx	lr
 1309              	.LVL100:
 1310              	.L120:
 1311              	.LCFI6:
 1312              		.cfi_def_cfa_offset 24
 1313              		.cfi_offset 4, -16
 1314              		.cfi_offset 5, -12
 1315              		.cfi_offset 6, -8
 1316              		.cfi_offset 14, -4
 371:Drivers/STM32F1xx_HAL_Driver/Src/stm32f1xx_hal_rcc.c ****       }
 1317              		.loc 1 371 16 view .LVU391
 1318 051c 0120     		movs	r0, #1
 1319 051e 02E0     		b	.L30
 1320              	.L96:
 425:Drivers/STM32F1xx_HAL_Driver/Src/stm32f1xx_hal_rcc.c ****       }
 1321              		.loc 1 425 16 view .LVU392
 1322 0520 0120     		movs	r0, #1
 1323 0522 00E0     		b	.L30
 1324              	.L105:
 785:Drivers/STM32F1xx_HAL_Driver/Src/stm32f1xx_hal_rcc.c **** }
 1325              		.loc 1 785 10 view .LVU393
ARM GAS  C:\Users\begre\AppData\Local\Temp\ccwT0kAZ.s 			page 55


 1326 0524 0020     		movs	r0, #0
 1327              	.LVL101:
 1328              	.L30:
 786:Drivers/STM32F1xx_HAL_Driver/Src/stm32f1xx_hal_rcc.c **** 
 1329              		.loc 1 786 1 view .LVU394
 1330 0526 02B0     		add	sp, sp, #8
 1331              	.LCFI7:
 1332              		.cfi_remember_state
 1333              		.cfi_def_cfa_offset 16
 1334              		@ sp needed
 1335 0528 70BD     		pop	{r4, r5, r6, pc}
 1336              	.LVL102:
 1337              	.L109:
 1338              	.LCFI8:
 1339              		.cfi_restore_state
 770:Drivers/STM32F1xx_HAL_Driver/Src/stm32f1xx_hal_rcc.c ****       }
 1340              		.loc 1 770 16 view .LVU395
 1341 052a 0120     		movs	r0, #1
 1342 052c FBE7     		b	.L30
 1343              	.LVL103:
 1344              	.L110:
 779:Drivers/STM32F1xx_HAL_Driver/Src/stm32f1xx_hal_rcc.c ****         }
 1345              		.loc 1 779 18 view .LVU396
 1346 052e 0120     		movs	r0, #1
 1347 0530 F9E7     		b	.L30
 1348              	.LVL104:
 1349              	.L111:
 779:Drivers/STM32F1xx_HAL_Driver/Src/stm32f1xx_hal_rcc.c ****         }
 1350              		.loc 1 779 18 view .LVU397
 1351 0532 0120     		movs	r0, #1
 1352 0534 F7E7     		b	.L30
 1353              	.L144:
 1354 0536 00BF     		.align	2
 1355              	.L143:
 1356 0538 00004242 		.word	1111621632
 1357 053c 00100240 		.word	1073876992
 1358 0540 00000000 		.word	.LC0
 1359 0544 00700040 		.word	1073770496
 1360              		.cfi_endproc
 1361              	.LFE66:
 1363              		.section	.text.HAL_RCC_MCOConfig,"ax",%progbits
 1364              		.align	1
 1365              		.global	HAL_RCC_MCOConfig
 1366              		.syntax unified
 1367              		.thumb
 1368              		.thumb_func
 1370              	HAL_RCC_MCOConfig:
 1371              	.LVL105:
 1372              	.LFB68:
1002:Drivers/STM32F1xx_HAL_Driver/Src/stm32f1xx_hal_rcc.c ****   GPIO_InitTypeDef gpio = {0U};
 1373              		.loc 1 1002 1 is_stmt 1 view -0
 1374              		.cfi_startproc
 1375              		@ args = 0, pretend = 0, frame = 24
 1376              		@ frame_needed = 0, uses_anonymous_args = 0
1002:Drivers/STM32F1xx_HAL_Driver/Src/stm32f1xx_hal_rcc.c ****   GPIO_InitTypeDef gpio = {0U};
 1377              		.loc 1 1002 1 is_stmt 0 view .LVU399
 1378 0000 30B5     		push	{r4, r5, lr}
ARM GAS  C:\Users\begre\AppData\Local\Temp\ccwT0kAZ.s 			page 56


 1379              	.LCFI9:
 1380              		.cfi_def_cfa_offset 12
 1381              		.cfi_offset 4, -12
 1382              		.cfi_offset 5, -8
 1383              		.cfi_offset 14, -4
 1384 0002 87B0     		sub	sp, sp, #28
 1385              	.LCFI10:
 1386              		.cfi_def_cfa_offset 40
 1387 0004 0C46     		mov	r4, r1
 1388 0006 1546     		mov	r5, r2
1003:Drivers/STM32F1xx_HAL_Driver/Src/stm32f1xx_hal_rcc.c **** 
 1389              		.loc 1 1003 3 is_stmt 1 view .LVU400
1003:Drivers/STM32F1xx_HAL_Driver/Src/stm32f1xx_hal_rcc.c **** 
 1390              		.loc 1 1003 20 is_stmt 0 view .LVU401
 1391 0008 0023     		movs	r3, #0
 1392 000a 0293     		str	r3, [sp, #8]
 1393 000c 0393     		str	r3, [sp, #12]
 1394 000e 0493     		str	r3, [sp, #16]
 1395 0010 0593     		str	r3, [sp, #20]
1006:Drivers/STM32F1xx_HAL_Driver/Src/stm32f1xx_hal_rcc.c ****   assert_param(IS_RCC_MCODIV(RCC_MCODiv));
 1396              		.loc 1 1006 3 is_stmt 1 view .LVU402
 1397 0012 60BB     		cbnz	r0, .L150
 1398              	.LVL106:
 1399              	.L146:
1007:Drivers/STM32F1xx_HAL_Driver/Src/stm32f1xx_hal_rcc.c ****   assert_param(IS_RCC_MCO1SOURCE(RCC_MCOSource));
 1400              		.loc 1 1007 3 view .LVU403
 1401 0014 002D     		cmp	r5, #0
 1402 0016 30D1     		bne	.L151
 1403              	.L147:
1008:Drivers/STM32F1xx_HAL_Driver/Src/stm32f1xx_hal_rcc.c **** 
 1404              		.loc 1 1008 3 view .LVU404
 1405 0018 B4F1806F 		cmp	r4, #67108864
 1406 001c 09D0     		beq	.L148
1008:Drivers/STM32F1xx_HAL_Driver/Src/stm32f1xx_hal_rcc.c **** 
 1407              		.loc 1 1008 3 is_stmt 0 discriminator 1 view .LVU405
 1408 001e B4F1A06F 		cmp	r4, #83886080
 1409 0022 06D0     		beq	.L148
1008:Drivers/STM32F1xx_HAL_Driver/Src/stm32f1xx_hal_rcc.c **** 
 1410              		.loc 1 1008 3 discriminator 2 view .LVU406
 1411 0024 B4F1C06F 		cmp	r4, #100663296
 1412 0028 03D0     		beq	.L148
1008:Drivers/STM32F1xx_HAL_Driver/Src/stm32f1xx_hal_rcc.c **** 
 1413              		.loc 1 1008 3 discriminator 3 view .LVU407
 1414 002a B4F1E06F 		cmp	r4, #117440512
 1415 002e 00D0     		beq	.L148
1008:Drivers/STM32F1xx_HAL_Driver/Src/stm32f1xx_hal_rcc.c **** 
 1416              		.loc 1 1008 3 discriminator 4 view .LVU408
 1417 0030 4CBB     		cbnz	r4, .L152
 1418              	.L148:
1011:Drivers/STM32F1xx_HAL_Driver/Src/stm32f1xx_hal_rcc.c ****   UNUSED(RCC_MCODiv);
 1419              		.loc 1 1011 3 is_stmt 1 view .LVU409
1012:Drivers/STM32F1xx_HAL_Driver/Src/stm32f1xx_hal_rcc.c **** 
 1420              		.loc 1 1012 3 view .LVU410
1015:Drivers/STM32F1xx_HAL_Driver/Src/stm32f1xx_hal_rcc.c ****   gpio.Speed     = GPIO_SPEED_FREQ_HIGH;
 1421              		.loc 1 1015 3 view .LVU411
1015:Drivers/STM32F1xx_HAL_Driver/Src/stm32f1xx_hal_rcc.c ****   gpio.Speed     = GPIO_SPEED_FREQ_HIGH;
 1422              		.loc 1 1015 18 is_stmt 0 view .LVU412
ARM GAS  C:\Users\begre\AppData\Local\Temp\ccwT0kAZ.s 			page 57


 1423 0032 0223     		movs	r3, #2
 1424 0034 0393     		str	r3, [sp, #12]
1016:Drivers/STM32F1xx_HAL_Driver/Src/stm32f1xx_hal_rcc.c ****   gpio.Pull      = GPIO_NOPULL;
 1425              		.loc 1 1016 3 is_stmt 1 view .LVU413
1016:Drivers/STM32F1xx_HAL_Driver/Src/stm32f1xx_hal_rcc.c ****   gpio.Pull      = GPIO_NOPULL;
 1426              		.loc 1 1016 18 is_stmt 0 view .LVU414
 1427 0036 0323     		movs	r3, #3
 1428 0038 0593     		str	r3, [sp, #20]
1017:Drivers/STM32F1xx_HAL_Driver/Src/stm32f1xx_hal_rcc.c ****   gpio.Pin       = MCO1_PIN;
 1429              		.loc 1 1017 3 is_stmt 1 view .LVU415
1017:Drivers/STM32F1xx_HAL_Driver/Src/stm32f1xx_hal_rcc.c ****   gpio.Pin       = MCO1_PIN;
 1430              		.loc 1 1017 18 is_stmt 0 view .LVU416
 1431 003a 0023     		movs	r3, #0
 1432 003c 0493     		str	r3, [sp, #16]
1018:Drivers/STM32F1xx_HAL_Driver/Src/stm32f1xx_hal_rcc.c **** 
 1433              		.loc 1 1018 3 is_stmt 1 view .LVU417
1018:Drivers/STM32F1xx_HAL_Driver/Src/stm32f1xx_hal_rcc.c **** 
 1434              		.loc 1 1018 18 is_stmt 0 view .LVU418
 1435 003e 4FF48073 		mov	r3, #256
 1436 0042 0293     		str	r3, [sp, #8]
1021:Drivers/STM32F1xx_HAL_Driver/Src/stm32f1xx_hal_rcc.c **** 
 1437              		.loc 1 1021 3 is_stmt 1 view .LVU419
 1438              	.LBB6:
1021:Drivers/STM32F1xx_HAL_Driver/Src/stm32f1xx_hal_rcc.c **** 
 1439              		.loc 1 1021 3 view .LVU420
1021:Drivers/STM32F1xx_HAL_Driver/Src/stm32f1xx_hal_rcc.c **** 
 1440              		.loc 1 1021 3 view .LVU421
 1441 0044 134D     		ldr	r5, .L153
 1442              	.LVL107:
1021:Drivers/STM32F1xx_HAL_Driver/Src/stm32f1xx_hal_rcc.c **** 
 1443              		.loc 1 1021 3 is_stmt 0 view .LVU422
 1444 0046 AB69     		ldr	r3, [r5, #24]
 1445 0048 43F00403 		orr	r3, r3, #4
 1446 004c AB61     		str	r3, [r5, #24]
1021:Drivers/STM32F1xx_HAL_Driver/Src/stm32f1xx_hal_rcc.c **** 
 1447              		.loc 1 1021 3 is_stmt 1 view .LVU423
 1448 004e AB69     		ldr	r3, [r5, #24]
 1449 0050 03F00403 		and	r3, r3, #4
 1450 0054 0193     		str	r3, [sp, #4]
1021:Drivers/STM32F1xx_HAL_Driver/Src/stm32f1xx_hal_rcc.c **** 
 1451              		.loc 1 1021 3 view .LVU424
 1452 0056 019B     		ldr	r3, [sp, #4]
 1453              	.LBE6:
1021:Drivers/STM32F1xx_HAL_Driver/Src/stm32f1xx_hal_rcc.c **** 
 1454              		.loc 1 1021 3 view .LVU425
1023:Drivers/STM32F1xx_HAL_Driver/Src/stm32f1xx_hal_rcc.c **** 
 1455              		.loc 1 1023 3 view .LVU426
 1456 0058 02A9     		add	r1, sp, #8
 1457 005a 0F48     		ldr	r0, .L153+4
 1458 005c FFF7FEFF 		bl	HAL_GPIO_Init
 1459              	.LVL108:
1026:Drivers/STM32F1xx_HAL_Driver/Src/stm32f1xx_hal_rcc.c **** }
 1460              		.loc 1 1026 3 view .LVU427
 1461 0060 6968     		ldr	r1, [r5, #4]
 1462 0062 21F0E061 		bic	r1, r1, #117440512
 1463 0066 0C43     		orrs	r4, r4, r1
 1464              	.LVL109:
ARM GAS  C:\Users\begre\AppData\Local\Temp\ccwT0kAZ.s 			page 58


1026:Drivers/STM32F1xx_HAL_Driver/Src/stm32f1xx_hal_rcc.c **** }
 1465              		.loc 1 1026 3 is_stmt 0 view .LVU428
 1466 0068 6C60     		str	r4, [r5, #4]
1027:Drivers/STM32F1xx_HAL_Driver/Src/stm32f1xx_hal_rcc.c **** 
 1467              		.loc 1 1027 1 view .LVU429
 1468 006a 07B0     		add	sp, sp, #28
 1469              	.LCFI11:
 1470              		.cfi_remember_state
 1471              		.cfi_def_cfa_offset 12
 1472              		@ sp needed
 1473 006c 30BD     		pop	{r4, r5, pc}
 1474              	.LVL110:
 1475              	.L150:
 1476              	.LCFI12:
 1477              		.cfi_restore_state
1006:Drivers/STM32F1xx_HAL_Driver/Src/stm32f1xx_hal_rcc.c ****   assert_param(IS_RCC_MCODIV(RCC_MCODiv));
 1478              		.loc 1 1006 3 discriminator 1 view .LVU430
 1479 006e 40F2EE31 		movw	r1, #1006
 1480              	.LVL111:
1006:Drivers/STM32F1xx_HAL_Driver/Src/stm32f1xx_hal_rcc.c ****   assert_param(IS_RCC_MCODIV(RCC_MCODiv));
 1481              		.loc 1 1006 3 discriminator 1 view .LVU431
 1482 0072 0A48     		ldr	r0, .L153+8
 1483              	.LVL112:
1006:Drivers/STM32F1xx_HAL_Driver/Src/stm32f1xx_hal_rcc.c ****   assert_param(IS_RCC_MCODIV(RCC_MCODiv));
 1484              		.loc 1 1006 3 discriminator 1 view .LVU432
 1485 0074 FFF7FEFF 		bl	assert_failed
 1486              	.LVL113:
1006:Drivers/STM32F1xx_HAL_Driver/Src/stm32f1xx_hal_rcc.c ****   assert_param(IS_RCC_MCODIV(RCC_MCODiv));
 1487              		.loc 1 1006 3 discriminator 1 view .LVU433
 1488 0078 CCE7     		b	.L146
 1489              	.L151:
1007:Drivers/STM32F1xx_HAL_Driver/Src/stm32f1xx_hal_rcc.c ****   assert_param(IS_RCC_MCO1SOURCE(RCC_MCOSource));
 1490              		.loc 1 1007 3 discriminator 1 view .LVU434
 1491 007a 40F2EF31 		movw	r1, #1007
 1492 007e 0748     		ldr	r0, .L153+8
 1493 0080 FFF7FEFF 		bl	assert_failed
 1494              	.LVL114:
 1495 0084 C8E7     		b	.L147
 1496              	.L152:
1008:Drivers/STM32F1xx_HAL_Driver/Src/stm32f1xx_hal_rcc.c **** 
 1497              		.loc 1 1008 3 discriminator 5 view .LVU435
 1498 0086 4FF47C71 		mov	r1, #1008
 1499 008a 0448     		ldr	r0, .L153+8
 1500 008c FFF7FEFF 		bl	assert_failed
 1501              	.LVL115:
 1502 0090 CFE7     		b	.L148
 1503              	.L154:
 1504 0092 00BF     		.align	2
 1505              	.L153:
 1506 0094 00100240 		.word	1073876992
 1507 0098 00080140 		.word	1073809408
 1508 009c 00000000 		.word	.LC0
 1509              		.cfi_endproc
 1510              	.LFE68:
 1512              		.section	.text.HAL_RCC_EnableCSS,"ax",%progbits
 1513              		.align	1
 1514              		.global	HAL_RCC_EnableCSS
ARM GAS  C:\Users\begre\AppData\Local\Temp\ccwT0kAZ.s 			page 59


 1515              		.syntax unified
 1516              		.thumb
 1517              		.thumb_func
 1519              	HAL_RCC_EnableCSS:
 1520              	.LFB69:
1039:Drivers/STM32F1xx_HAL_Driver/Src/stm32f1xx_hal_rcc.c ****   *(__IO uint32_t *) RCC_CR_CSSON_BB = (uint32_t)ENABLE;
 1521              		.loc 1 1039 1 is_stmt 1 view -0
 1522              		.cfi_startproc
 1523              		@ args = 0, pretend = 0, frame = 0
 1524              		@ frame_needed = 0, uses_anonymous_args = 0
 1525              		@ link register save eliminated.
1040:Drivers/STM32F1xx_HAL_Driver/Src/stm32f1xx_hal_rcc.c **** }
 1526              		.loc 1 1040 3 view .LVU437
1040:Drivers/STM32F1xx_HAL_Driver/Src/stm32f1xx_hal_rcc.c **** }
 1527              		.loc 1 1040 38 is_stmt 0 view .LVU438
 1528 0000 014B     		ldr	r3, .L156
 1529 0002 0122     		movs	r2, #1
 1530 0004 DA64     		str	r2, [r3, #76]
1041:Drivers/STM32F1xx_HAL_Driver/Src/stm32f1xx_hal_rcc.c **** 
 1531              		.loc 1 1041 1 view .LVU439
 1532 0006 7047     		bx	lr
 1533              	.L157:
 1534              		.align	2
 1535              	.L156:
 1536 0008 00004242 		.word	1111621632
 1537              		.cfi_endproc
 1538              	.LFE69:
 1540              		.section	.text.HAL_RCC_DisableCSS,"ax",%progbits
 1541              		.align	1
 1542              		.global	HAL_RCC_DisableCSS
 1543              		.syntax unified
 1544              		.thumb
 1545              		.thumb_func
 1547              	HAL_RCC_DisableCSS:
 1548              	.LFB70:
1048:Drivers/STM32F1xx_HAL_Driver/Src/stm32f1xx_hal_rcc.c ****   *(__IO uint32_t *) RCC_CR_CSSON_BB = (uint32_t)DISABLE;
 1549              		.loc 1 1048 1 is_stmt 1 view -0
 1550              		.cfi_startproc
 1551              		@ args = 0, pretend = 0, frame = 0
 1552              		@ frame_needed = 0, uses_anonymous_args = 0
 1553              		@ link register save eliminated.
1049:Drivers/STM32F1xx_HAL_Driver/Src/stm32f1xx_hal_rcc.c **** }
 1554              		.loc 1 1049 3 view .LVU441
1049:Drivers/STM32F1xx_HAL_Driver/Src/stm32f1xx_hal_rcc.c **** }
 1555              		.loc 1 1049 38 is_stmt 0 view .LVU442
 1556 0000 014B     		ldr	r3, .L159
 1557 0002 0022     		movs	r2, #0
 1558 0004 DA64     		str	r2, [r3, #76]
1050:Drivers/STM32F1xx_HAL_Driver/Src/stm32f1xx_hal_rcc.c **** 
 1559              		.loc 1 1050 1 view .LVU443
 1560 0006 7047     		bx	lr
 1561              	.L160:
 1562              		.align	2
 1563              	.L159:
 1564 0008 00004242 		.word	1111621632
 1565              		.cfi_endproc
 1566              	.LFE70:
ARM GAS  C:\Users\begre\AppData\Local\Temp\ccwT0kAZ.s 			page 60


 1568              		.section	.text.HAL_RCC_GetSysClockFreq,"ax",%progbits
 1569              		.align	1
 1570              		.global	HAL_RCC_GetSysClockFreq
 1571              		.syntax unified
 1572              		.thumb
 1573              		.thumb_func
 1575              	HAL_RCC_GetSysClockFreq:
 1576              	.LFB71:
1082:Drivers/STM32F1xx_HAL_Driver/Src/stm32f1xx_hal_rcc.c **** #if defined(RCC_CFGR2_PREDIV1SRC)
 1577              		.loc 1 1082 1 is_stmt 1 view -0
 1578              		.cfi_startproc
 1579              		@ args = 0, pretend = 0, frame = 0
 1580              		@ frame_needed = 0, uses_anonymous_args = 0
 1581              		@ link register save eliminated.
1087:Drivers/STM32F1xx_HAL_Driver/Src/stm32f1xx_hal_rcc.c **** #if defined(RCC_CFGR2_PREDIV1)
 1582              		.loc 1 1087 3 view .LVU445
1091:Drivers/STM32F1xx_HAL_Driver/Src/stm32f1xx_hal_rcc.c **** #endif /*RCC_CFGR2_PREDIV1*/
 1583              		.loc 1 1091 3 view .LVU446
1095:Drivers/STM32F1xx_HAL_Driver/Src/stm32f1xx_hal_rcc.c ****   uint32_t sysclockfreq = 0U;
 1584              		.loc 1 1095 3 view .LVU447
 1585              	.LVL116:
1096:Drivers/STM32F1xx_HAL_Driver/Src/stm32f1xx_hal_rcc.c **** #if defined(RCC_CFGR2_PREDIV1SRC)
 1586              		.loc 1 1096 3 view .LVU448
1101:Drivers/STM32F1xx_HAL_Driver/Src/stm32f1xx_hal_rcc.c **** 
 1587              		.loc 1 1101 3 view .LVU449
1101:Drivers/STM32F1xx_HAL_Driver/Src/stm32f1xx_hal_rcc.c **** 
 1588              		.loc 1 1101 10 is_stmt 0 view .LVU450
 1589 0000 0F4B     		ldr	r3, .L166
 1590 0002 5B68     		ldr	r3, [r3, #4]
 1591              	.LVL117:
1104:Drivers/STM32F1xx_HAL_Driver/Src/stm32f1xx_hal_rcc.c ****   {
 1592              		.loc 1 1104 3 is_stmt 1 view .LVU451
1104:Drivers/STM32F1xx_HAL_Driver/Src/stm32f1xx_hal_rcc.c ****   {
 1593              		.loc 1 1104 18 is_stmt 0 view .LVU452
 1594 0004 03F00C02 		and	r2, r3, #12
1104:Drivers/STM32F1xx_HAL_Driver/Src/stm32f1xx_hal_rcc.c ****   {
 1595              		.loc 1 1104 3 view .LVU453
 1596 0008 082A     		cmp	r2, #8
 1597 000a 01D0     		beq	.L165
1108:Drivers/STM32F1xx_HAL_Driver/Src/stm32f1xx_hal_rcc.c ****       break;
 1598              		.loc 1 1108 20 view .LVU454
 1599 000c 0D48     		ldr	r0, .L166+4
 1600              	.LVL118:
1163:Drivers/STM32F1xx_HAL_Driver/Src/stm32f1xx_hal_rcc.c **** }
 1601              		.loc 1 1163 3 is_stmt 1 view .LVU455
1164:Drivers/STM32F1xx_HAL_Driver/Src/stm32f1xx_hal_rcc.c **** 
 1602              		.loc 1 1164 1 is_stmt 0 view .LVU456
 1603 000e 7047     		bx	lr
 1604              	.LVL119:
 1605              	.L165:
1113:Drivers/STM32F1xx_HAL_Driver/Src/stm32f1xx_hal_rcc.c ****       if ((tmpreg & RCC_CFGR_PLLSRC) != RCC_PLLSOURCE_HSI_DIV2)
 1606              		.loc 1 1113 7 is_stmt 1 view .LVU457
1113:Drivers/STM32F1xx_HAL_Driver/Src/stm32f1xx_hal_rcc.c ****       if ((tmpreg & RCC_CFGR_PLLSRC) != RCC_PLLSOURCE_HSI_DIV2)
 1607              		.loc 1 1113 73 is_stmt 0 view .LVU458
 1608 0010 C3F38342 		ubfx	r2, r3, #18, #4
1113:Drivers/STM32F1xx_HAL_Driver/Src/stm32f1xx_hal_rcc.c ****       if ((tmpreg & RCC_CFGR_PLLSRC) != RCC_PLLSOURCE_HSI_DIV2)
 1609              		.loc 1 1113 34 view .LVU459
ARM GAS  C:\Users\begre\AppData\Local\Temp\ccwT0kAZ.s 			page 61


 1610 0014 0C49     		ldr	r1, .L166+8
 1611 0016 885C     		ldrb	r0, [r1, r2]	@ zero_extendqisi2
 1612              	.LVL120:
1114:Drivers/STM32F1xx_HAL_Driver/Src/stm32f1xx_hal_rcc.c ****       {
 1613              		.loc 1 1114 7 is_stmt 1 view .LVU460
1114:Drivers/STM32F1xx_HAL_Driver/Src/stm32f1xx_hal_rcc.c ****       {
 1614              		.loc 1 1114 10 is_stmt 0 view .LVU461
 1615 0018 13F4803F 		tst	r3, #65536
 1616 001c 0BD0     		beq	.L163
1119:Drivers/STM32F1xx_HAL_Driver/Src/stm32f1xx_hal_rcc.c **** #endif /*RCC_CFGR2_PREDIV1*/
 1617              		.loc 1 1119 9 is_stmt 1 view .LVU462
1119:Drivers/STM32F1xx_HAL_Driver/Src/stm32f1xx_hal_rcc.c **** #endif /*RCC_CFGR2_PREDIV1*/
 1618              		.loc 1 1119 51 is_stmt 0 view .LVU463
 1619 001e 084B     		ldr	r3, .L166
 1620              	.LVL121:
1119:Drivers/STM32F1xx_HAL_Driver/Src/stm32f1xx_hal_rcc.c **** #endif /*RCC_CFGR2_PREDIV1*/
 1621              		.loc 1 1119 51 view .LVU464
 1622 0020 5B68     		ldr	r3, [r3, #4]
1119:Drivers/STM32F1xx_HAL_Driver/Src/stm32f1xx_hal_rcc.c **** #endif /*RCC_CFGR2_PREDIV1*/
 1623              		.loc 1 1119 79 view .LVU465
 1624 0022 C3F34043 		ubfx	r3, r3, #17, #1
1119:Drivers/STM32F1xx_HAL_Driver/Src/stm32f1xx_hal_rcc.c **** #endif /*RCC_CFGR2_PREDIV1*/
 1625              		.loc 1 1119 36 view .LVU466
 1626 0026 094A     		ldr	r2, .L166+12
 1627 0028 D35C     		ldrb	r3, [r2, r3]	@ zero_extendqisi2
 1628              	.LVL122:
1145:Drivers/STM32F1xx_HAL_Driver/Src/stm32f1xx_hal_rcc.c **** #endif /*RCC_CFGR2_PREDIV1SRC*/
 1629              		.loc 1 1145 9 is_stmt 1 view .LVU467
1145:Drivers/STM32F1xx_HAL_Driver/Src/stm32f1xx_hal_rcc.c **** #endif /*RCC_CFGR2_PREDIV1SRC*/
 1630              		.loc 1 1145 41 is_stmt 0 view .LVU468
 1631 002a 064A     		ldr	r2, .L166+4
 1632 002c 02FB00F0 		mul	r0, r2, r0
 1633              	.LVL123:
1145:Drivers/STM32F1xx_HAL_Driver/Src/stm32f1xx_hal_rcc.c **** #endif /*RCC_CFGR2_PREDIV1SRC*/
 1634              		.loc 1 1145 16 view .LVU469
 1635 0030 B0FBF3F0 		udiv	r0, r0, r3
 1636              	.LVL124:
1145:Drivers/STM32F1xx_HAL_Driver/Src/stm32f1xx_hal_rcc.c **** #endif /*RCC_CFGR2_PREDIV1SRC*/
 1637              		.loc 1 1145 16 view .LVU470
 1638 0034 7047     		bx	lr
 1639              	.LVL125:
 1640              	.L163:
1151:Drivers/STM32F1xx_HAL_Driver/Src/stm32f1xx_hal_rcc.c ****       }
 1641              		.loc 1 1151 9 is_stmt 1 view .LVU471
1151:Drivers/STM32F1xx_HAL_Driver/Src/stm32f1xx_hal_rcc.c ****       }
 1642              		.loc 1 1151 16 is_stmt 0 view .LVU472
 1643 0036 064B     		ldr	r3, .L166+16
 1644              	.LVL126:
1151:Drivers/STM32F1xx_HAL_Driver/Src/stm32f1xx_hal_rcc.c ****       }
 1645              		.loc 1 1151 16 view .LVU473
 1646 0038 03FB00F0 		mul	r0, r3, r0
 1647              	.LVL127:
1151:Drivers/STM32F1xx_HAL_Driver/Src/stm32f1xx_hal_rcc.c ****       }
 1648              		.loc 1 1151 16 view .LVU474
 1649 003c 7047     		bx	lr
 1650              	.L167:
 1651 003e 00BF     		.align	2
ARM GAS  C:\Users\begre\AppData\Local\Temp\ccwT0kAZ.s 			page 62


 1652              	.L166:
 1653 0040 00100240 		.word	1073876992
 1654 0044 00127A00 		.word	8000000
 1655 0048 00000000 		.word	.LANCHOR0
 1656 004c 00000000 		.word	.LANCHOR1
 1657 0050 00093D00 		.word	4000000
 1658              		.cfi_endproc
 1659              	.LFE71:
 1661              		.section	.text.HAL_RCC_ClockConfig,"ax",%progbits
 1662              		.align	1
 1663              		.global	HAL_RCC_ClockConfig
 1664              		.syntax unified
 1665              		.thumb
 1666              		.thumb_func
 1668              	HAL_RCC_ClockConfig:
 1669              	.LVL128:
 1670              	.LFB67:
 812:Drivers/STM32F1xx_HAL_Driver/Src/stm32f1xx_hal_rcc.c ****   uint32_t tickstart;
 1671              		.loc 1 812 1 is_stmt 1 view -0
 1672              		.cfi_startproc
 1673              		@ args = 0, pretend = 0, frame = 0
 1674              		@ frame_needed = 0, uses_anonymous_args = 0
 813:Drivers/STM32F1xx_HAL_Driver/Src/stm32f1xx_hal_rcc.c **** 
 1675              		.loc 1 813 3 view .LVU476
 816:Drivers/STM32F1xx_HAL_Driver/Src/stm32f1xx_hal_rcc.c ****   {
 1676              		.loc 1 816 3 view .LVU477
 816:Drivers/STM32F1xx_HAL_Driver/Src/stm32f1xx_hal_rcc.c ****   {
 1677              		.loc 1 816 6 is_stmt 0 view .LVU478
 1678 0000 0028     		cmp	r0, #0
 1679 0002 00F0FC80 		beq	.L189
 812:Drivers/STM32F1xx_HAL_Driver/Src/stm32f1xx_hal_rcc.c ****   uint32_t tickstart;
 1680              		.loc 1 812 1 view .LVU479
 1681 0006 70B5     		push	{r4, r5, r6, lr}
 1682              	.LCFI13:
 1683              		.cfi_def_cfa_offset 16
 1684              		.cfi_offset 4, -16
 1685              		.cfi_offset 5, -12
 1686              		.cfi_offset 6, -8
 1687              		.cfi_offset 14, -4
 1688 0008 0D46     		mov	r5, r1
 1689 000a 0446     		mov	r4, r0
 822:Drivers/STM32F1xx_HAL_Driver/Src/stm32f1xx_hal_rcc.c ****   assert_param(IS_FLASH_LATENCY(FLatency));
 1690              		.loc 1 822 3 is_stmt 1 view .LVU480
 1691 000c 0368     		ldr	r3, [r0]
 1692 000e 13F00F0F 		tst	r3, #15
 1693 0012 6DD0     		beq	.L200
 1694              	.LVL129:
 1695              	.L170:
 823:Drivers/STM32F1xx_HAL_Driver/Src/stm32f1xx_hal_rcc.c **** 
 1696              		.loc 1 823 3 view .LVU481
 1697 0014 022D     		cmp	r5, #2
 1698 0016 71D8     		bhi	.L201
 1699              	.L171:
 831:Drivers/STM32F1xx_HAL_Driver/Src/stm32f1xx_hal_rcc.c ****   {
 1700              		.loc 1 831 3 view .LVU482
 831:Drivers/STM32F1xx_HAL_Driver/Src/stm32f1xx_hal_rcc.c ****   {
 1701              		.loc 1 831 18 is_stmt 0 view .LVU483
ARM GAS  C:\Users\begre\AppData\Local\Temp\ccwT0kAZ.s 			page 63


 1702 0018 7D4B     		ldr	r3, .L208
 1703 001a 1B68     		ldr	r3, [r3]
 1704 001c 03F00703 		and	r3, r3, #7
 831:Drivers/STM32F1xx_HAL_Driver/Src/stm32f1xx_hal_rcc.c ****   {
 1705              		.loc 1 831 6 view .LVU484
 1706 0020 AB42     		cmp	r3, r5
 1707 0022 0BD2     		bcs	.L172
 834:Drivers/STM32F1xx_HAL_Driver/Src/stm32f1xx_hal_rcc.c **** 
 1708              		.loc 1 834 5 is_stmt 1 view .LVU485
 1709 0024 7A4A     		ldr	r2, .L208
 1710 0026 1368     		ldr	r3, [r2]
 1711 0028 23F00703 		bic	r3, r3, #7
 1712 002c 2B43     		orrs	r3, r3, r5
 1713 002e 1360     		str	r3, [r2]
 838:Drivers/STM32F1xx_HAL_Driver/Src/stm32f1xx_hal_rcc.c ****   {
 1714              		.loc 1 838 5 view .LVU486
 838:Drivers/STM32F1xx_HAL_Driver/Src/stm32f1xx_hal_rcc.c ****   {
 1715              		.loc 1 838 9 is_stmt 0 view .LVU487
 1716 0030 1368     		ldr	r3, [r2]
 1717 0032 03F00703 		and	r3, r3, #7
 838:Drivers/STM32F1xx_HAL_Driver/Src/stm32f1xx_hal_rcc.c ****   {
 1718              		.loc 1 838 8 view .LVU488
 1719 0036 AB42     		cmp	r3, r5
 1720 0038 40F0E380 		bne	.L190
 1721              	.L172:
 846:Drivers/STM32F1xx_HAL_Driver/Src/stm32f1xx_hal_rcc.c ****   {
 1722              		.loc 1 846 1 is_stmt 1 view .LVU489
 846:Drivers/STM32F1xx_HAL_Driver/Src/stm32f1xx_hal_rcc.c ****   {
 1723              		.loc 1 846 24 is_stmt 0 view .LVU490
 1724 003c 2368     		ldr	r3, [r4]
 846:Drivers/STM32F1xx_HAL_Driver/Src/stm32f1xx_hal_rcc.c ****   {
 1725              		.loc 1 846 4 view .LVU491
 1726 003e 13F0020F 		tst	r3, #2
 1727 0042 29D0     		beq	.L173
 850:Drivers/STM32F1xx_HAL_Driver/Src/stm32f1xx_hal_rcc.c ****     {
 1728              		.loc 1 850 5 is_stmt 1 view .LVU492
 850:Drivers/STM32F1xx_HAL_Driver/Src/stm32f1xx_hal_rcc.c ****     {
 1729              		.loc 1 850 8 is_stmt 0 view .LVU493
 1730 0044 13F0040F 		tst	r3, #4
 1731 0048 04D0     		beq	.L174
 852:Drivers/STM32F1xx_HAL_Driver/Src/stm32f1xx_hal_rcc.c ****     }
 1732              		.loc 1 852 7 is_stmt 1 view .LVU494
 1733 004a 724A     		ldr	r2, .L208+4
 1734 004c 5368     		ldr	r3, [r2, #4]
 1735 004e 43F4E063 		orr	r3, r3, #1792
 1736 0052 5360     		str	r3, [r2, #4]
 1737              	.L174:
 855:Drivers/STM32F1xx_HAL_Driver/Src/stm32f1xx_hal_rcc.c ****     {
 1738              		.loc 1 855 5 view .LVU495
 855:Drivers/STM32F1xx_HAL_Driver/Src/stm32f1xx_hal_rcc.c ****     {
 1739              		.loc 1 855 28 is_stmt 0 view .LVU496
 1740 0054 2368     		ldr	r3, [r4]
 855:Drivers/STM32F1xx_HAL_Driver/Src/stm32f1xx_hal_rcc.c ****     {
 1741              		.loc 1 855 8 view .LVU497
 1742 0056 13F0080F 		tst	r3, #8
 1743 005a 04D0     		beq	.L175
 857:Drivers/STM32F1xx_HAL_Driver/Src/stm32f1xx_hal_rcc.c ****     }
ARM GAS  C:\Users\begre\AppData\Local\Temp\ccwT0kAZ.s 			page 64


 1744              		.loc 1 857 7 is_stmt 1 view .LVU498
 1745 005c 6D4A     		ldr	r2, .L208+4
 1746 005e 5368     		ldr	r3, [r2, #4]
 1747 0060 43F46053 		orr	r3, r3, #14336
 1748 0064 5360     		str	r3, [r2, #4]
 1749              	.L175:
 861:Drivers/STM32F1xx_HAL_Driver/Src/stm32f1xx_hal_rcc.c ****     MODIFY_REG(RCC->CFGR, RCC_CFGR_HPRE, RCC_ClkInitStruct->AHBCLKDivider);
 1750              		.loc 1 861 5 view .LVU499
 1751 0066 A368     		ldr	r3, [r4, #8]
 1752 0068 7BB1     		cbz	r3, .L176
 861:Drivers/STM32F1xx_HAL_Driver/Src/stm32f1xx_hal_rcc.c ****     MODIFY_REG(RCC->CFGR, RCC_CFGR_HPRE, RCC_ClkInitStruct->AHBCLKDivider);
 1753              		.loc 1 861 5 is_stmt 0 discriminator 1 view .LVU500
 1754 006a 802B     		cmp	r3, #128
 1755 006c 0DD0     		beq	.L176
 861:Drivers/STM32F1xx_HAL_Driver/Src/stm32f1xx_hal_rcc.c ****     MODIFY_REG(RCC->CFGR, RCC_CFGR_HPRE, RCC_ClkInitStruct->AHBCLKDivider);
 1756              		.loc 1 861 5 discriminator 2 view .LVU501
 1757 006e 902B     		cmp	r3, #144
 1758 0070 0BD0     		beq	.L176
 861:Drivers/STM32F1xx_HAL_Driver/Src/stm32f1xx_hal_rcc.c ****     MODIFY_REG(RCC->CFGR, RCC_CFGR_HPRE, RCC_ClkInitStruct->AHBCLKDivider);
 1759              		.loc 1 861 5 discriminator 3 view .LVU502
 1760 0072 A02B     		cmp	r3, #160
 1761 0074 09D0     		beq	.L176
 861:Drivers/STM32F1xx_HAL_Driver/Src/stm32f1xx_hal_rcc.c ****     MODIFY_REG(RCC->CFGR, RCC_CFGR_HPRE, RCC_ClkInitStruct->AHBCLKDivider);
 1762              		.loc 1 861 5 discriminator 4 view .LVU503
 1763 0076 B02B     		cmp	r3, #176
 1764 0078 07D0     		beq	.L176
 861:Drivers/STM32F1xx_HAL_Driver/Src/stm32f1xx_hal_rcc.c ****     MODIFY_REG(RCC->CFGR, RCC_CFGR_HPRE, RCC_ClkInitStruct->AHBCLKDivider);
 1765              		.loc 1 861 5 discriminator 5 view .LVU504
 1766 007a C02B     		cmp	r3, #192
 1767 007c 05D0     		beq	.L176
 861:Drivers/STM32F1xx_HAL_Driver/Src/stm32f1xx_hal_rcc.c ****     MODIFY_REG(RCC->CFGR, RCC_CFGR_HPRE, RCC_ClkInitStruct->AHBCLKDivider);
 1768              		.loc 1 861 5 discriminator 6 view .LVU505
 1769 007e D02B     		cmp	r3, #208
 1770 0080 03D0     		beq	.L176
 861:Drivers/STM32F1xx_HAL_Driver/Src/stm32f1xx_hal_rcc.c ****     MODIFY_REG(RCC->CFGR, RCC_CFGR_HPRE, RCC_ClkInitStruct->AHBCLKDivider);
 1771              		.loc 1 861 5 discriminator 7 view .LVU506
 1772 0082 E02B     		cmp	r3, #224
 1773 0084 01D0     		beq	.L176
 861:Drivers/STM32F1xx_HAL_Driver/Src/stm32f1xx_hal_rcc.c ****     MODIFY_REG(RCC->CFGR, RCC_CFGR_HPRE, RCC_ClkInitStruct->AHBCLKDivider);
 1774              		.loc 1 861 5 discriminator 8 view .LVU507
 1775 0086 F02B     		cmp	r3, #240
 1776 0088 3ED1     		bne	.L202
 1777              	.L176:
 862:Drivers/STM32F1xx_HAL_Driver/Src/stm32f1xx_hal_rcc.c ****   }
 1778              		.loc 1 862 5 is_stmt 1 view .LVU508
 1779 008a 624A     		ldr	r2, .L208+4
 1780 008c 5368     		ldr	r3, [r2, #4]
 1781 008e 23F0F003 		bic	r3, r3, #240
 1782 0092 A168     		ldr	r1, [r4, #8]
 1783 0094 0B43     		orrs	r3, r3, r1
 1784 0096 5360     		str	r3, [r2, #4]
 1785              	.L173:
 866:Drivers/STM32F1xx_HAL_Driver/Src/stm32f1xx_hal_rcc.c ****   {
 1786              		.loc 1 866 3 view .LVU509
 866:Drivers/STM32F1xx_HAL_Driver/Src/stm32f1xx_hal_rcc.c ****   {
 1787              		.loc 1 866 26 is_stmt 0 view .LVU510
 1788 0098 2368     		ldr	r3, [r4]
ARM GAS  C:\Users\begre\AppData\Local\Temp\ccwT0kAZ.s 			page 65


 866:Drivers/STM32F1xx_HAL_Driver/Src/stm32f1xx_hal_rcc.c ****   {
 1789              		.loc 1 866 6 view .LVU511
 1790 009a 13F0010F 		tst	r3, #1
 1791 009e 4DD0     		beq	.L177
 868:Drivers/STM32F1xx_HAL_Driver/Src/stm32f1xx_hal_rcc.c **** 
 1792              		.loc 1 868 5 is_stmt 1 view .LVU512
 1793 00a0 6368     		ldr	r3, [r4, #4]
 1794 00a2 022B     		cmp	r3, #2
 1795 00a4 36D8     		bhi	.L203
 1796              	.L178:
 871:Drivers/STM32F1xx_HAL_Driver/Src/stm32f1xx_hal_rcc.c ****     {
 1797              		.loc 1 871 5 view .LVU513
 871:Drivers/STM32F1xx_HAL_Driver/Src/stm32f1xx_hal_rcc.c ****     {
 1798              		.loc 1 871 26 is_stmt 0 view .LVU514
 1799 00a6 6368     		ldr	r3, [r4, #4]
 871:Drivers/STM32F1xx_HAL_Driver/Src/stm32f1xx_hal_rcc.c ****     {
 1800              		.loc 1 871 8 view .LVU515
 1801 00a8 012B     		cmp	r3, #1
 1802 00aa 39D0     		beq	.L204
 880:Drivers/STM32F1xx_HAL_Driver/Src/stm32f1xx_hal_rcc.c ****     {
 1803              		.loc 1 880 10 is_stmt 1 view .LVU516
 880:Drivers/STM32F1xx_HAL_Driver/Src/stm32f1xx_hal_rcc.c ****     {
 1804              		.loc 1 880 13 is_stmt 0 view .LVU517
 1805 00ac 022B     		cmp	r3, #2
 1806 00ae 3ED0     		beq	.L205
 892:Drivers/STM32F1xx_HAL_Driver/Src/stm32f1xx_hal_rcc.c ****       {
 1807              		.loc 1 892 7 is_stmt 1 view .LVU518
 892:Drivers/STM32F1xx_HAL_Driver/Src/stm32f1xx_hal_rcc.c ****       {
 1808              		.loc 1 892 11 is_stmt 0 view .LVU519
 1809 00b0 584A     		ldr	r2, .L208+4
 1810 00b2 1268     		ldr	r2, [r2]
 892:Drivers/STM32F1xx_HAL_Driver/Src/stm32f1xx_hal_rcc.c ****       {
 1811              		.loc 1 892 10 view .LVU520
 1812 00b4 12F0020F 		tst	r2, #2
 1813 00b8 00F0A580 		beq	.L193
 1814              	.L180:
 897:Drivers/STM32F1xx_HAL_Driver/Src/stm32f1xx_hal_rcc.c **** 
 1815              		.loc 1 897 5 is_stmt 1 view .LVU521
 1816 00bc 5549     		ldr	r1, .L208+4
 1817 00be 4A68     		ldr	r2, [r1, #4]
 1818 00c0 22F00302 		bic	r2, r2, #3
 1819 00c4 1343     		orrs	r3, r3, r2
 1820 00c6 4B60     		str	r3, [r1, #4]
 900:Drivers/STM32F1xx_HAL_Driver/Src/stm32f1xx_hal_rcc.c **** 
 1821              		.loc 1 900 5 view .LVU522
 900:Drivers/STM32F1xx_HAL_Driver/Src/stm32f1xx_hal_rcc.c **** 
 1822              		.loc 1 900 17 is_stmt 0 view .LVU523
 1823 00c8 FFF7FEFF 		bl	HAL_GetTick
 1824              	.LVL130:
 1825 00cc 0646     		mov	r6, r0
 1826              	.LVL131:
 902:Drivers/STM32F1xx_HAL_Driver/Src/stm32f1xx_hal_rcc.c ****     {
 1827              		.loc 1 902 5 is_stmt 1 view .LVU524
 1828              	.L182:
 902:Drivers/STM32F1xx_HAL_Driver/Src/stm32f1xx_hal_rcc.c ****     {
 1829              		.loc 1 902 11 view .LVU525
 902:Drivers/STM32F1xx_HAL_Driver/Src/stm32f1xx_hal_rcc.c ****     {
ARM GAS  C:\Users\begre\AppData\Local\Temp\ccwT0kAZ.s 			page 66


 1830              		.loc 1 902 12 is_stmt 0 view .LVU526
 1831 00ce 514B     		ldr	r3, .L208+4
 1832 00d0 5B68     		ldr	r3, [r3, #4]
 1833 00d2 03F00C03 		and	r3, r3, #12
 902:Drivers/STM32F1xx_HAL_Driver/Src/stm32f1xx_hal_rcc.c ****     {
 1834              		.loc 1 902 63 view .LVU527
 1835 00d6 6268     		ldr	r2, [r4, #4]
 902:Drivers/STM32F1xx_HAL_Driver/Src/stm32f1xx_hal_rcc.c ****     {
 1836              		.loc 1 902 11 view .LVU528
 1837 00d8 B3EB820F 		cmp	r3, r2, lsl #2
 1838 00dc 2ED0     		beq	.L177
 904:Drivers/STM32F1xx_HAL_Driver/Src/stm32f1xx_hal_rcc.c ****       {
 1839              		.loc 1 904 7 is_stmt 1 view .LVU529
 904:Drivers/STM32F1xx_HAL_Driver/Src/stm32f1xx_hal_rcc.c ****       {
 1840              		.loc 1 904 12 is_stmt 0 view .LVU530
 1841 00de FFF7FEFF 		bl	HAL_GetTick
 1842              	.LVL132:
 904:Drivers/STM32F1xx_HAL_Driver/Src/stm32f1xx_hal_rcc.c ****       {
 1843              		.loc 1 904 26 view .LVU531
 1844 00e2 801B     		subs	r0, r0, r6
 904:Drivers/STM32F1xx_HAL_Driver/Src/stm32f1xx_hal_rcc.c ****       {
 1845              		.loc 1 904 10 view .LVU532
 1846 00e4 41F28833 		movw	r3, #5000
 1847 00e8 9842     		cmp	r0, r3
 1848 00ea F0D9     		bls	.L182
 906:Drivers/STM32F1xx_HAL_Driver/Src/stm32f1xx_hal_rcc.c ****       }
 1849              		.loc 1 906 16 view .LVU533
 1850 00ec 0320     		movs	r0, #3
 1851 00ee 79E0     		b	.L169
 1852              	.LVL133:
 1853              	.L200:
 822:Drivers/STM32F1xx_HAL_Driver/Src/stm32f1xx_hal_rcc.c ****   assert_param(IS_FLASH_LATENCY(FLatency));
 1854              		.loc 1 822 3 discriminator 1 view .LVU534
 1855 00f0 40F23631 		movw	r1, #822
 1856              	.LVL134:
 822:Drivers/STM32F1xx_HAL_Driver/Src/stm32f1xx_hal_rcc.c ****   assert_param(IS_FLASH_LATENCY(FLatency));
 1857              		.loc 1 822 3 discriminator 1 view .LVU535
 1858 00f4 4848     		ldr	r0, .L208+8
 1859              	.LVL135:
 822:Drivers/STM32F1xx_HAL_Driver/Src/stm32f1xx_hal_rcc.c ****   assert_param(IS_FLASH_LATENCY(FLatency));
 1860              		.loc 1 822 3 discriminator 1 view .LVU536
 1861 00f6 FFF7FEFF 		bl	assert_failed
 1862              	.LVL136:
 1863 00fa 8BE7     		b	.L170
 1864              	.L201:
 823:Drivers/STM32F1xx_HAL_Driver/Src/stm32f1xx_hal_rcc.c **** 
 1865              		.loc 1 823 3 discriminator 1 view .LVU537
 1866 00fc 40F23731 		movw	r1, #823
 1867 0100 4548     		ldr	r0, .L208+8
 1868 0102 FFF7FEFF 		bl	assert_failed
 1869              	.LVL137:
 1870 0106 87E7     		b	.L171
 1871              	.L202:
 861:Drivers/STM32F1xx_HAL_Driver/Src/stm32f1xx_hal_rcc.c ****     MODIFY_REG(RCC->CFGR, RCC_CFGR_HPRE, RCC_ClkInitStruct->AHBCLKDivider);
 1872              		.loc 1 861 5 discriminator 9 view .LVU538
 1873 0108 40F25D31 		movw	r1, #861
 1874 010c 4248     		ldr	r0, .L208+8
ARM GAS  C:\Users\begre\AppData\Local\Temp\ccwT0kAZ.s 			page 67


 1875 010e FFF7FEFF 		bl	assert_failed
 1876              	.LVL138:
 1877 0112 BAE7     		b	.L176
 1878              	.L203:
 868:Drivers/STM32F1xx_HAL_Driver/Src/stm32f1xx_hal_rcc.c **** 
 1879              		.loc 1 868 5 discriminator 1 view .LVU539
 1880 0114 4FF45971 		mov	r1, #868
 1881 0118 3F48     		ldr	r0, .L208+8
 1882 011a FFF7FEFF 		bl	assert_failed
 1883              	.LVL139:
 1884 011e C2E7     		b	.L178
 1885              	.L204:
 874:Drivers/STM32F1xx_HAL_Driver/Src/stm32f1xx_hal_rcc.c ****       {
 1886              		.loc 1 874 7 is_stmt 1 view .LVU540
 874:Drivers/STM32F1xx_HAL_Driver/Src/stm32f1xx_hal_rcc.c ****       {
 1887              		.loc 1 874 11 is_stmt 0 view .LVU541
 1888 0120 3C4A     		ldr	r2, .L208+4
 1889 0122 1268     		ldr	r2, [r2]
 874:Drivers/STM32F1xx_HAL_Driver/Src/stm32f1xx_hal_rcc.c ****       {
 1890              		.loc 1 874 10 view .LVU542
 1891 0124 12F4003F 		tst	r2, #131072
 1892 0128 C8D1     		bne	.L180
 876:Drivers/STM32F1xx_HAL_Driver/Src/stm32f1xx_hal_rcc.c ****       }
 1893              		.loc 1 876 16 view .LVU543
 1894 012a 0120     		movs	r0, #1
 1895 012c 5AE0     		b	.L169
 1896              	.L205:
 883:Drivers/STM32F1xx_HAL_Driver/Src/stm32f1xx_hal_rcc.c ****       {
 1897              		.loc 1 883 7 is_stmt 1 view .LVU544
 883:Drivers/STM32F1xx_HAL_Driver/Src/stm32f1xx_hal_rcc.c ****       {
 1898              		.loc 1 883 11 is_stmt 0 view .LVU545
 1899 012e 394A     		ldr	r2, .L208+4
 1900 0130 1268     		ldr	r2, [r2]
 883:Drivers/STM32F1xx_HAL_Driver/Src/stm32f1xx_hal_rcc.c ****       {
 1901              		.loc 1 883 10 view .LVU546
 1902 0132 12F0007F 		tst	r2, #33554432
 1903 0136 C1D1     		bne	.L180
 885:Drivers/STM32F1xx_HAL_Driver/Src/stm32f1xx_hal_rcc.c ****       }
 1904              		.loc 1 885 16 view .LVU547
 1905 0138 0120     		movs	r0, #1
 1906 013a 53E0     		b	.L169
 1907              	.L177:
 913:Drivers/STM32F1xx_HAL_Driver/Src/stm32f1xx_hal_rcc.c ****   {
 1908              		.loc 1 913 3 is_stmt 1 view .LVU548
 913:Drivers/STM32F1xx_HAL_Driver/Src/stm32f1xx_hal_rcc.c ****   {
 1909              		.loc 1 913 18 is_stmt 0 view .LVU549
 1910 013c 344B     		ldr	r3, .L208
 1911 013e 1B68     		ldr	r3, [r3]
 1912 0140 03F00703 		and	r3, r3, #7
 913:Drivers/STM32F1xx_HAL_Driver/Src/stm32f1xx_hal_rcc.c ****   {
 1913              		.loc 1 913 6 view .LVU550
 1914 0144 AB42     		cmp	r3, r5
 1915 0146 0AD9     		bls	.L184
 916:Drivers/STM32F1xx_HAL_Driver/Src/stm32f1xx_hal_rcc.c **** 
 1916              		.loc 1 916 5 is_stmt 1 view .LVU551
 1917 0148 314A     		ldr	r2, .L208
 1918 014a 1368     		ldr	r3, [r2]
ARM GAS  C:\Users\begre\AppData\Local\Temp\ccwT0kAZ.s 			page 68


 1919 014c 23F00703 		bic	r3, r3, #7
 1920 0150 2B43     		orrs	r3, r3, r5
 1921 0152 1360     		str	r3, [r2]
 920:Drivers/STM32F1xx_HAL_Driver/Src/stm32f1xx_hal_rcc.c ****   {
 1922              		.loc 1 920 5 view .LVU552
 920:Drivers/STM32F1xx_HAL_Driver/Src/stm32f1xx_hal_rcc.c ****   {
 1923              		.loc 1 920 9 is_stmt 0 view .LVU553
 1924 0154 1368     		ldr	r3, [r2]
 1925 0156 03F00703 		and	r3, r3, #7
 920:Drivers/STM32F1xx_HAL_Driver/Src/stm32f1xx_hal_rcc.c ****   {
 1926              		.loc 1 920 8 view .LVU554
 1927 015a AB42     		cmp	r3, r5
 1928 015c 55D1     		bne	.L195
 1929              	.L184:
 928:Drivers/STM32F1xx_HAL_Driver/Src/stm32f1xx_hal_rcc.c ****   {
 1930              		.loc 1 928 1 is_stmt 1 view .LVU555
 928:Drivers/STM32F1xx_HAL_Driver/Src/stm32f1xx_hal_rcc.c ****   {
 1931              		.loc 1 928 24 is_stmt 0 view .LVU556
 1932 015e 2368     		ldr	r3, [r4]
 928:Drivers/STM32F1xx_HAL_Driver/Src/stm32f1xx_hal_rcc.c ****   {
 1933              		.loc 1 928 4 view .LVU557
 1934 0160 13F0040F 		tst	r3, #4
 1935 0164 14D0     		beq	.L185
 930:Drivers/STM32F1xx_HAL_Driver/Src/stm32f1xx_hal_rcc.c ****     MODIFY_REG(RCC->CFGR, RCC_CFGR_PPRE1, RCC_ClkInitStruct->APB1CLKDivider);
 1936              		.loc 1 930 5 is_stmt 1 view .LVU558
 1937 0166 E368     		ldr	r3, [r4, #12]
 1938 0168 5BB1     		cbz	r3, .L186
 930:Drivers/STM32F1xx_HAL_Driver/Src/stm32f1xx_hal_rcc.c ****     MODIFY_REG(RCC->CFGR, RCC_CFGR_PPRE1, RCC_ClkInitStruct->APB1CLKDivider);
 1939              		.loc 1 930 5 is_stmt 0 discriminator 1 view .LVU559
 1940 016a B3F5806F 		cmp	r3, #1024
 1941 016e 08D0     		beq	.L186
 930:Drivers/STM32F1xx_HAL_Driver/Src/stm32f1xx_hal_rcc.c ****     MODIFY_REG(RCC->CFGR, RCC_CFGR_PPRE1, RCC_ClkInitStruct->APB1CLKDivider);
 1942              		.loc 1 930 5 discriminator 2 view .LVU560
 1943 0170 B3F5A06F 		cmp	r3, #1280
 1944 0174 05D0     		beq	.L186
 930:Drivers/STM32F1xx_HAL_Driver/Src/stm32f1xx_hal_rcc.c ****     MODIFY_REG(RCC->CFGR, RCC_CFGR_PPRE1, RCC_ClkInitStruct->APB1CLKDivider);
 1945              		.loc 1 930 5 discriminator 3 view .LVU561
 1946 0176 B3F5C06F 		cmp	r3, #1536
 1947 017a 02D0     		beq	.L186
 930:Drivers/STM32F1xx_HAL_Driver/Src/stm32f1xx_hal_rcc.c ****     MODIFY_REG(RCC->CFGR, RCC_CFGR_PPRE1, RCC_ClkInitStruct->APB1CLKDivider);
 1948              		.loc 1 930 5 discriminator 4 view .LVU562
 1949 017c B3F5E06F 		cmp	r3, #1792
 1950 0180 31D1     		bne	.L206
 1951              	.L186:
 931:Drivers/STM32F1xx_HAL_Driver/Src/stm32f1xx_hal_rcc.c ****   }
 1952              		.loc 1 931 5 is_stmt 1 view .LVU563
 1953 0182 244A     		ldr	r2, .L208+4
 1954 0184 5368     		ldr	r3, [r2, #4]
 1955 0186 23F4E063 		bic	r3, r3, #1792
 1956 018a E168     		ldr	r1, [r4, #12]
 1957 018c 0B43     		orrs	r3, r3, r1
 1958 018e 5360     		str	r3, [r2, #4]
 1959              	.L185:
 935:Drivers/STM32F1xx_HAL_Driver/Src/stm32f1xx_hal_rcc.c ****   {
 1960              		.loc 1 935 3 view .LVU564
 935:Drivers/STM32F1xx_HAL_Driver/Src/stm32f1xx_hal_rcc.c ****   {
 1961              		.loc 1 935 26 is_stmt 0 view .LVU565
ARM GAS  C:\Users\begre\AppData\Local\Temp\ccwT0kAZ.s 			page 69


 1962 0190 2368     		ldr	r3, [r4]
 935:Drivers/STM32F1xx_HAL_Driver/Src/stm32f1xx_hal_rcc.c ****   {
 1963              		.loc 1 935 6 view .LVU566
 1964 0192 13F0080F 		tst	r3, #8
 1965 0196 15D0     		beq	.L187
 937:Drivers/STM32F1xx_HAL_Driver/Src/stm32f1xx_hal_rcc.c ****     MODIFY_REG(RCC->CFGR, RCC_CFGR_PPRE2, ((RCC_ClkInitStruct->APB2CLKDivider) << 3));
 1966              		.loc 1 937 5 is_stmt 1 view .LVU567
 1967 0198 2369     		ldr	r3, [r4, #16]
 1968 019a 5BB1     		cbz	r3, .L188
 937:Drivers/STM32F1xx_HAL_Driver/Src/stm32f1xx_hal_rcc.c ****     MODIFY_REG(RCC->CFGR, RCC_CFGR_PPRE2, ((RCC_ClkInitStruct->APB2CLKDivider) << 3));
 1969              		.loc 1 937 5 is_stmt 0 discriminator 1 view .LVU568
 1970 019c B3F5806F 		cmp	r3, #1024
 1971 01a0 08D0     		beq	.L188
 937:Drivers/STM32F1xx_HAL_Driver/Src/stm32f1xx_hal_rcc.c ****     MODIFY_REG(RCC->CFGR, RCC_CFGR_PPRE2, ((RCC_ClkInitStruct->APB2CLKDivider) << 3));
 1972              		.loc 1 937 5 discriminator 2 view .LVU569
 1973 01a2 B3F5A06F 		cmp	r3, #1280
 1974 01a6 05D0     		beq	.L188
 937:Drivers/STM32F1xx_HAL_Driver/Src/stm32f1xx_hal_rcc.c ****     MODIFY_REG(RCC->CFGR, RCC_CFGR_PPRE2, ((RCC_ClkInitStruct->APB2CLKDivider) << 3));
 1975              		.loc 1 937 5 discriminator 3 view .LVU570
 1976 01a8 B3F5C06F 		cmp	r3, #1536
 1977 01ac 02D0     		beq	.L188
 937:Drivers/STM32F1xx_HAL_Driver/Src/stm32f1xx_hal_rcc.c ****     MODIFY_REG(RCC->CFGR, RCC_CFGR_PPRE2, ((RCC_ClkInitStruct->APB2CLKDivider) << 3));
 1978              		.loc 1 937 5 discriminator 4 view .LVU571
 1979 01ae B3F5E06F 		cmp	r3, #1792
 1980 01b2 1ED1     		bne	.L207
 1981              	.L188:
 938:Drivers/STM32F1xx_HAL_Driver/Src/stm32f1xx_hal_rcc.c ****   }
 1982              		.loc 1 938 5 is_stmt 1 view .LVU572
 1983 01b4 174A     		ldr	r2, .L208+4
 1984 01b6 5368     		ldr	r3, [r2, #4]
 1985 01b8 23F46053 		bic	r3, r3, #14336
 1986 01bc 2169     		ldr	r1, [r4, #16]
 1987 01be 43EAC103 		orr	r3, r3, r1, lsl #3
 1988 01c2 5360     		str	r3, [r2, #4]
 1989              	.L187:
 942:Drivers/STM32F1xx_HAL_Driver/Src/stm32f1xx_hal_rcc.c **** 
 1990              		.loc 1 942 3 view .LVU573
 942:Drivers/STM32F1xx_HAL_Driver/Src/stm32f1xx_hal_rcc.c **** 
 1991              		.loc 1 942 21 is_stmt 0 view .LVU574
 1992 01c4 FFF7FEFF 		bl	HAL_RCC_GetSysClockFreq
 1993              	.LVL140:
 942:Drivers/STM32F1xx_HAL_Driver/Src/stm32f1xx_hal_rcc.c **** 
 1994              		.loc 1 942 68 view .LVU575
 1995 01c8 124B     		ldr	r3, .L208+4
 1996 01ca 5B68     		ldr	r3, [r3, #4]
 942:Drivers/STM32F1xx_HAL_Driver/Src/stm32f1xx_hal_rcc.c **** 
 1997              		.loc 1 942 92 view .LVU576
 1998 01cc C3F30313 		ubfx	r3, r3, #4, #4
 942:Drivers/STM32F1xx_HAL_Driver/Src/stm32f1xx_hal_rcc.c **** 
 1999              		.loc 1 942 63 view .LVU577
 2000 01d0 124A     		ldr	r2, .L208+12
 2001 01d2 D35C     		ldrb	r3, [r2, r3]	@ zero_extendqisi2
 942:Drivers/STM32F1xx_HAL_Driver/Src/stm32f1xx_hal_rcc.c **** 
 2002              		.loc 1 942 47 view .LVU578
 2003 01d4 D840     		lsrs	r0, r0, r3
 942:Drivers/STM32F1xx_HAL_Driver/Src/stm32f1xx_hal_rcc.c **** 
 2004              		.loc 1 942 19 view .LVU579
ARM GAS  C:\Users\begre\AppData\Local\Temp\ccwT0kAZ.s 			page 70


 2005 01d6 124B     		ldr	r3, .L208+16
 2006 01d8 1860     		str	r0, [r3]
 946:Drivers/STM32F1xx_HAL_Driver/Src/stm32f1xx_hal_rcc.c **** 
 2007              		.loc 1 946 3 is_stmt 1 view .LVU580
 2008 01da 124B     		ldr	r3, .L208+20
 2009 01dc 1868     		ldr	r0, [r3]
 2010 01de FFF7FEFF 		bl	HAL_InitTick
 2011              	.LVL141:
 948:Drivers/STM32F1xx_HAL_Driver/Src/stm32f1xx_hal_rcc.c **** }
 2012              		.loc 1 948 3 view .LVU581
 948:Drivers/STM32F1xx_HAL_Driver/Src/stm32f1xx_hal_rcc.c **** }
 2013              		.loc 1 948 10 is_stmt 0 view .LVU582
 2014 01e2 0020     		movs	r0, #0
 2015              	.L169:
 949:Drivers/STM32F1xx_HAL_Driver/Src/stm32f1xx_hal_rcc.c **** 
 2016              		.loc 1 949 1 view .LVU583
 2017 01e4 70BD     		pop	{r4, r5, r6, pc}
 2018              	.LVL142:
 2019              	.L206:
 930:Drivers/STM32F1xx_HAL_Driver/Src/stm32f1xx_hal_rcc.c ****     MODIFY_REG(RCC->CFGR, RCC_CFGR_PPRE1, RCC_ClkInitStruct->APB1CLKDivider);
 2020              		.loc 1 930 5 discriminator 5 view .LVU584
 2021 01e6 40F2A231 		movw	r1, #930
 2022 01ea 0B48     		ldr	r0, .L208+8
 2023 01ec FFF7FEFF 		bl	assert_failed
 2024              	.LVL143:
 2025 01f0 C7E7     		b	.L186
 2026              	.L207:
 937:Drivers/STM32F1xx_HAL_Driver/Src/stm32f1xx_hal_rcc.c ****     MODIFY_REG(RCC->CFGR, RCC_CFGR_PPRE2, ((RCC_ClkInitStruct->APB2CLKDivider) << 3));
 2027              		.loc 1 937 5 discriminator 5 view .LVU585
 2028 01f2 40F2A931 		movw	r1, #937
 2029 01f6 0848     		ldr	r0, .L208+8
 2030 01f8 FFF7FEFF 		bl	assert_failed
 2031              	.LVL144:
 2032 01fc DAE7     		b	.L188
 2033              	.LVL145:
 2034              	.L189:
 2035              	.LCFI14:
 2036              		.cfi_def_cfa_offset 0
 2037              		.cfi_restore 4
 2038              		.cfi_restore 5
 2039              		.cfi_restore 6
 2040              		.cfi_restore 14
 818:Drivers/STM32F1xx_HAL_Driver/Src/stm32f1xx_hal_rcc.c ****   }
 2041              		.loc 1 818 12 view .LVU586
 2042 01fe 0120     		movs	r0, #1
 2043              	.LVL146:
 949:Drivers/STM32F1xx_HAL_Driver/Src/stm32f1xx_hal_rcc.c **** 
 2044              		.loc 1 949 1 view .LVU587
 2045 0200 7047     		bx	lr
 2046              	.LVL147:
 2047              	.L190:
 2048              	.LCFI15:
 2049              		.cfi_def_cfa_offset 16
 2050              		.cfi_offset 4, -16
 2051              		.cfi_offset 5, -12
 2052              		.cfi_offset 6, -8
 2053              		.cfi_offset 14, -4
ARM GAS  C:\Users\begre\AppData\Local\Temp\ccwT0kAZ.s 			page 71


 840:Drivers/STM32F1xx_HAL_Driver/Src/stm32f1xx_hal_rcc.c ****   }
 2054              		.loc 1 840 12 view .LVU588
 2055 0202 0120     		movs	r0, #1
 2056 0204 EEE7     		b	.L169
 2057              	.L193:
 894:Drivers/STM32F1xx_HAL_Driver/Src/stm32f1xx_hal_rcc.c ****       }
 2058              		.loc 1 894 16 view .LVU589
 2059 0206 0120     		movs	r0, #1
 2060 0208 ECE7     		b	.L169
 2061              	.L195:
 922:Drivers/STM32F1xx_HAL_Driver/Src/stm32f1xx_hal_rcc.c ****   }
 2062              		.loc 1 922 12 view .LVU590
 2063 020a 0120     		movs	r0, #1
 2064 020c EAE7     		b	.L169
 2065              	.L209:
 2066 020e 00BF     		.align	2
 2067              	.L208:
 2068 0210 00200240 		.word	1073881088
 2069 0214 00100240 		.word	1073876992
 2070 0218 00000000 		.word	.LC0
 2071 021c 00000000 		.word	AHBPrescTable
 2072 0220 00000000 		.word	SystemCoreClock
 2073 0224 00000000 		.word	uwTickPrio
 2074              		.cfi_endproc
 2075              	.LFE67:
 2077              		.section	.text.HAL_RCC_GetHCLKFreq,"ax",%progbits
 2078              		.align	1
 2079              		.global	HAL_RCC_GetHCLKFreq
 2080              		.syntax unified
 2081              		.thumb
 2082              		.thumb_func
 2084              	HAL_RCC_GetHCLKFreq:
 2085              	.LFB72:
1176:Drivers/STM32F1xx_HAL_Driver/Src/stm32f1xx_hal_rcc.c ****   return SystemCoreClock;
 2086              		.loc 1 1176 1 is_stmt 1 view -0
 2087              		.cfi_startproc
 2088              		@ args = 0, pretend = 0, frame = 0
 2089              		@ frame_needed = 0, uses_anonymous_args = 0
 2090              		@ link register save eliminated.
1177:Drivers/STM32F1xx_HAL_Driver/Src/stm32f1xx_hal_rcc.c **** }
 2091              		.loc 1 1177 3 view .LVU592
1178:Drivers/STM32F1xx_HAL_Driver/Src/stm32f1xx_hal_rcc.c **** 
 2092              		.loc 1 1178 1 is_stmt 0 view .LVU593
 2093 0000 014B     		ldr	r3, .L211
 2094 0002 1868     		ldr	r0, [r3]
 2095 0004 7047     		bx	lr
 2096              	.L212:
 2097 0006 00BF     		.align	2
 2098              	.L211:
 2099 0008 00000000 		.word	SystemCoreClock
 2100              		.cfi_endproc
 2101              	.LFE72:
 2103              		.section	.text.HAL_RCC_GetPCLK1Freq,"ax",%progbits
 2104              		.align	1
 2105              		.global	HAL_RCC_GetPCLK1Freq
 2106              		.syntax unified
 2107              		.thumb
ARM GAS  C:\Users\begre\AppData\Local\Temp\ccwT0kAZ.s 			page 72


 2108              		.thumb_func
 2110              	HAL_RCC_GetPCLK1Freq:
 2111              	.LFB73:
1187:Drivers/STM32F1xx_HAL_Driver/Src/stm32f1xx_hal_rcc.c ****   /* Get HCLK source and Compute PCLK1 frequency ---------------------------*/
 2112              		.loc 1 1187 1 is_stmt 1 view -0
 2113              		.cfi_startproc
 2114              		@ args = 0, pretend = 0, frame = 0
 2115              		@ frame_needed = 0, uses_anonymous_args = 0
 2116 0000 08B5     		push	{r3, lr}
 2117              	.LCFI16:
 2118              		.cfi_def_cfa_offset 8
 2119              		.cfi_offset 3, -8
 2120              		.cfi_offset 14, -4
1189:Drivers/STM32F1xx_HAL_Driver/Src/stm32f1xx_hal_rcc.c **** }
 2121              		.loc 1 1189 3 view .LVU595
1189:Drivers/STM32F1xx_HAL_Driver/Src/stm32f1xx_hal_rcc.c **** }
 2122              		.loc 1 1189 11 is_stmt 0 view .LVU596
 2123 0002 FFF7FEFF 		bl	HAL_RCC_GetHCLKFreq
 2124              	.LVL148:
1189:Drivers/STM32F1xx_HAL_Driver/Src/stm32f1xx_hal_rcc.c **** }
 2125              		.loc 1 1189 54 view .LVU597
 2126 0006 044B     		ldr	r3, .L215
 2127 0008 5B68     		ldr	r3, [r3, #4]
1189:Drivers/STM32F1xx_HAL_Driver/Src/stm32f1xx_hal_rcc.c **** }
 2128              		.loc 1 1189 79 view .LVU598
 2129 000a C3F30223 		ubfx	r3, r3, #8, #3
1189:Drivers/STM32F1xx_HAL_Driver/Src/stm32f1xx_hal_rcc.c **** }
 2130              		.loc 1 1189 49 view .LVU599
 2131 000e 034A     		ldr	r2, .L215+4
 2132 0010 D35C     		ldrb	r3, [r2, r3]	@ zero_extendqisi2
1190:Drivers/STM32F1xx_HAL_Driver/Src/stm32f1xx_hal_rcc.c **** 
 2133              		.loc 1 1190 1 view .LVU600
 2134 0012 D840     		lsrs	r0, r0, r3
 2135 0014 08BD     		pop	{r3, pc}
 2136              	.L216:
 2137 0016 00BF     		.align	2
 2138              	.L215:
 2139 0018 00100240 		.word	1073876992
 2140 001c 00000000 		.word	APBPrescTable
 2141              		.cfi_endproc
 2142              	.LFE73:
 2144              		.section	.text.HAL_RCC_GetPCLK2Freq,"ax",%progbits
 2145              		.align	1
 2146              		.global	HAL_RCC_GetPCLK2Freq
 2147              		.syntax unified
 2148              		.thumb
 2149              		.thumb_func
 2151              	HAL_RCC_GetPCLK2Freq:
 2152              	.LFB74:
1199:Drivers/STM32F1xx_HAL_Driver/Src/stm32f1xx_hal_rcc.c ****   /* Get HCLK source and Compute PCLK2 frequency ---------------------------*/
 2153              		.loc 1 1199 1 is_stmt 1 view -0
 2154              		.cfi_startproc
 2155              		@ args = 0, pretend = 0, frame = 0
 2156              		@ frame_needed = 0, uses_anonymous_args = 0
 2157 0000 08B5     		push	{r3, lr}
 2158              	.LCFI17:
 2159              		.cfi_def_cfa_offset 8
ARM GAS  C:\Users\begre\AppData\Local\Temp\ccwT0kAZ.s 			page 73


 2160              		.cfi_offset 3, -8
 2161              		.cfi_offset 14, -4
1201:Drivers/STM32F1xx_HAL_Driver/Src/stm32f1xx_hal_rcc.c **** }
 2162              		.loc 1 1201 3 view .LVU602
1201:Drivers/STM32F1xx_HAL_Driver/Src/stm32f1xx_hal_rcc.c **** }
 2163              		.loc 1 1201 11 is_stmt 0 view .LVU603
 2164 0002 FFF7FEFF 		bl	HAL_RCC_GetHCLKFreq
 2165              	.LVL149:
1201:Drivers/STM32F1xx_HAL_Driver/Src/stm32f1xx_hal_rcc.c **** }
 2166              		.loc 1 1201 54 view .LVU604
 2167 0006 044B     		ldr	r3, .L219
 2168 0008 5B68     		ldr	r3, [r3, #4]
1201:Drivers/STM32F1xx_HAL_Driver/Src/stm32f1xx_hal_rcc.c **** }
 2169              		.loc 1 1201 79 view .LVU605
 2170 000a C3F3C223 		ubfx	r3, r3, #11, #3
1201:Drivers/STM32F1xx_HAL_Driver/Src/stm32f1xx_hal_rcc.c **** }
 2171              		.loc 1 1201 49 view .LVU606
 2172 000e 034A     		ldr	r2, .L219+4
 2173 0010 D35C     		ldrb	r3, [r2, r3]	@ zero_extendqisi2
1202:Drivers/STM32F1xx_HAL_Driver/Src/stm32f1xx_hal_rcc.c **** 
 2174              		.loc 1 1202 1 view .LVU607
 2175 0012 D840     		lsrs	r0, r0, r3
 2176 0014 08BD     		pop	{r3, pc}
 2177              	.L220:
 2178 0016 00BF     		.align	2
 2179              	.L219:
 2180 0018 00100240 		.word	1073876992
 2181 001c 00000000 		.word	APBPrescTable
 2182              		.cfi_endproc
 2183              	.LFE74:
 2185              		.section	.text.HAL_RCC_GetOscConfig,"ax",%progbits
 2186              		.align	1
 2187              		.global	HAL_RCC_GetOscConfig
 2188              		.syntax unified
 2189              		.thumb
 2190              		.thumb_func
 2192              	HAL_RCC_GetOscConfig:
 2193              	.LVL150:
 2194              	.LFB75:
1212:Drivers/STM32F1xx_HAL_Driver/Src/stm32f1xx_hal_rcc.c ****   /* Check the parameters */
 2195              		.loc 1 1212 1 is_stmt 1 view -0
 2196              		.cfi_startproc
 2197              		@ args = 0, pretend = 0, frame = 0
 2198              		@ frame_needed = 0, uses_anonymous_args = 0
1212:Drivers/STM32F1xx_HAL_Driver/Src/stm32f1xx_hal_rcc.c ****   /* Check the parameters */
 2199              		.loc 1 1212 1 is_stmt 0 view .LVU609
 2200 0000 10B5     		push	{r4, lr}
 2201              	.LCFI18:
 2202              		.cfi_def_cfa_offset 8
 2203              		.cfi_offset 4, -8
 2204              		.cfi_offset 14, -4
1214:Drivers/STM32F1xx_HAL_Driver/Src/stm32f1xx_hal_rcc.c **** 
 2205              		.loc 1 1214 3 is_stmt 1 view .LVU610
 2206 0002 0446     		mov	r4, r0
 2207 0004 0028     		cmp	r0, #0
 2208 0006 37D0     		beq	.L236
 2209              	.LVL151:
ARM GAS  C:\Users\begre\AppData\Local\Temp\ccwT0kAZ.s 			page 74


 2210              	.L222:
1217:Drivers/STM32F1xx_HAL_Driver/Src/stm32f1xx_hal_rcc.c ****                                       | RCC_OSCILLATORTYPE_LSE | RCC_OSCILLATORTYPE_LSI;
 2211              		.loc 1 1217 3 view .LVU611
1217:Drivers/STM32F1xx_HAL_Driver/Src/stm32f1xx_hal_rcc.c ****                                       | RCC_OSCILLATORTYPE_LSE | RCC_OSCILLATORTYPE_LSI;
 2212              		.loc 1 1217 37 is_stmt 0 view .LVU612
 2213 0008 0F23     		movs	r3, #15
 2214 000a 2360     		str	r3, [r4]
1226:Drivers/STM32F1xx_HAL_Driver/Src/stm32f1xx_hal_rcc.c ****   {
 2215              		.loc 1 1226 3 is_stmt 1 view .LVU613
1226:Drivers/STM32F1xx_HAL_Driver/Src/stm32f1xx_hal_rcc.c ****   {
 2216              		.loc 1 1226 11 is_stmt 0 view .LVU614
 2217 000c 2D4B     		ldr	r3, .L237
 2218 000e 1B68     		ldr	r3, [r3]
1226:Drivers/STM32F1xx_HAL_Driver/Src/stm32f1xx_hal_rcc.c ****   {
 2219              		.loc 1 1226 6 view .LVU615
 2220 0010 13F4802F 		tst	r3, #262144
 2221 0014 36D0     		beq	.L223
1228:Drivers/STM32F1xx_HAL_Driver/Src/stm32f1xx_hal_rcc.c ****   }
 2222              		.loc 1 1228 5 is_stmt 1 view .LVU616
1228:Drivers/STM32F1xx_HAL_Driver/Src/stm32f1xx_hal_rcc.c ****   }
 2223              		.loc 1 1228 33 is_stmt 0 view .LVU617
 2224 0016 4FF4A023 		mov	r3, #327680
 2225 001a 6360     		str	r3, [r4, #4]
 2226              	.L224:
1238:Drivers/STM32F1xx_HAL_Driver/Src/stm32f1xx_hal_rcc.c **** 
 2227              		.loc 1 1238 3 is_stmt 1 view .LVU618
1238:Drivers/STM32F1xx_HAL_Driver/Src/stm32f1xx_hal_rcc.c **** 
 2228              		.loc 1 1238 39 is_stmt 0 view .LVU619
 2229 001c 294A     		ldr	r2, .L237
 2230 001e 5368     		ldr	r3, [r2, #4]
 2231 0020 03F40033 		and	r3, r3, #131072
1238:Drivers/STM32F1xx_HAL_Driver/Src/stm32f1xx_hal_rcc.c **** 
 2232              		.loc 1 1238 37 view .LVU620
 2233 0024 A360     		str	r3, [r4, #8]
1241:Drivers/STM32F1xx_HAL_Driver/Src/stm32f1xx_hal_rcc.c ****   {
 2234              		.loc 1 1241 3 is_stmt 1 view .LVU621
1241:Drivers/STM32F1xx_HAL_Driver/Src/stm32f1xx_hal_rcc.c ****   {
 2235              		.loc 1 1241 11 is_stmt 0 view .LVU622
 2236 0026 1368     		ldr	r3, [r2]
1241:Drivers/STM32F1xx_HAL_Driver/Src/stm32f1xx_hal_rcc.c ****   {
 2237              		.loc 1 1241 6 view .LVU623
 2238 0028 13F0010F 		tst	r3, #1
 2239 002c 36D0     		beq	.L226
1243:Drivers/STM32F1xx_HAL_Driver/Src/stm32f1xx_hal_rcc.c ****   }
 2240              		.loc 1 1243 5 is_stmt 1 view .LVU624
1243:Drivers/STM32F1xx_HAL_Driver/Src/stm32f1xx_hal_rcc.c ****   }
 2241              		.loc 1 1243 33 is_stmt 0 view .LVU625
 2242 002e 0123     		movs	r3, #1
 2243 0030 2361     		str	r3, [r4, #16]
 2244              	.L227:
1250:Drivers/STM32F1xx_HAL_Driver/Src/stm32f1xx_hal_rcc.c **** 
 2245              		.loc 1 1250 3 is_stmt 1 view .LVU626
1250:Drivers/STM32F1xx_HAL_Driver/Src/stm32f1xx_hal_rcc.c **** 
 2246              		.loc 1 1250 59 is_stmt 0 view .LVU627
 2247 0032 244A     		ldr	r2, .L237
 2248 0034 1368     		ldr	r3, [r2]
1250:Drivers/STM32F1xx_HAL_Driver/Src/stm32f1xx_hal_rcc.c **** 
ARM GAS  C:\Users\begre\AppData\Local\Temp\ccwT0kAZ.s 			page 75


 2249              		.loc 1 1250 44 view .LVU628
 2250 0036 C3F3C403 		ubfx	r3, r3, #3, #5
1250:Drivers/STM32F1xx_HAL_Driver/Src/stm32f1xx_hal_rcc.c **** 
 2251              		.loc 1 1250 42 view .LVU629
 2252 003a 6361     		str	r3, [r4, #20]
1253:Drivers/STM32F1xx_HAL_Driver/Src/stm32f1xx_hal_rcc.c ****   {
 2253              		.loc 1 1253 3 is_stmt 1 view .LVU630
1253:Drivers/STM32F1xx_HAL_Driver/Src/stm32f1xx_hal_rcc.c ****   {
 2254              		.loc 1 1253 11 is_stmt 0 view .LVU631
 2255 003c 136A     		ldr	r3, [r2, #32]
1253:Drivers/STM32F1xx_HAL_Driver/Src/stm32f1xx_hal_rcc.c ****   {
 2256              		.loc 1 1253 6 view .LVU632
 2257 003e 13F0040F 		tst	r3, #4
 2258 0042 2ED0     		beq	.L228
1255:Drivers/STM32F1xx_HAL_Driver/Src/stm32f1xx_hal_rcc.c ****   }
 2259              		.loc 1 1255 5 is_stmt 1 view .LVU633
1255:Drivers/STM32F1xx_HAL_Driver/Src/stm32f1xx_hal_rcc.c ****   }
 2260              		.loc 1 1255 33 is_stmt 0 view .LVU634
 2261 0044 0523     		movs	r3, #5
 2262 0046 E360     		str	r3, [r4, #12]
 2263              	.L229:
1267:Drivers/STM32F1xx_HAL_Driver/Src/stm32f1xx_hal_rcc.c ****   {
 2264              		.loc 1 1267 3 is_stmt 1 view .LVU635
1267:Drivers/STM32F1xx_HAL_Driver/Src/stm32f1xx_hal_rcc.c ****   {
 2265              		.loc 1 1267 11 is_stmt 0 view .LVU636
 2266 0048 1E4B     		ldr	r3, .L237
 2267 004a 5B6A     		ldr	r3, [r3, #36]
1267:Drivers/STM32F1xx_HAL_Driver/Src/stm32f1xx_hal_rcc.c ****   {
 2268              		.loc 1 1267 6 view .LVU637
 2269 004c 13F0010F 		tst	r3, #1
 2270 0050 32D0     		beq	.L231
1269:Drivers/STM32F1xx_HAL_Driver/Src/stm32f1xx_hal_rcc.c ****   }
 2271              		.loc 1 1269 5 is_stmt 1 view .LVU638
1269:Drivers/STM32F1xx_HAL_Driver/Src/stm32f1xx_hal_rcc.c ****   }
 2272              		.loc 1 1269 33 is_stmt 0 view .LVU639
 2273 0052 0123     		movs	r3, #1
 2274 0054 A361     		str	r3, [r4, #24]
 2275              	.L232:
1278:Drivers/STM32F1xx_HAL_Driver/Src/stm32f1xx_hal_rcc.c ****   {
 2276              		.loc 1 1278 3 is_stmt 1 view .LVU640
1278:Drivers/STM32F1xx_HAL_Driver/Src/stm32f1xx_hal_rcc.c ****   {
 2277              		.loc 1 1278 11 is_stmt 0 view .LVU641
 2278 0056 1B4B     		ldr	r3, .L237
 2279 0058 1B68     		ldr	r3, [r3]
1278:Drivers/STM32F1xx_HAL_Driver/Src/stm32f1xx_hal_rcc.c ****   {
 2280              		.loc 1 1278 6 view .LVU642
 2281 005a 13F0807F 		tst	r3, #16777216
 2282 005e 2ED0     		beq	.L233
1280:Drivers/STM32F1xx_HAL_Driver/Src/stm32f1xx_hal_rcc.c ****   }
 2283              		.loc 1 1280 5 is_stmt 1 view .LVU643
1280:Drivers/STM32F1xx_HAL_Driver/Src/stm32f1xx_hal_rcc.c ****   }
 2284              		.loc 1 1280 37 is_stmt 0 view .LVU644
 2285 0060 0223     		movs	r3, #2
 2286 0062 E361     		str	r3, [r4, #28]
 2287              	.L234:
1286:Drivers/STM32F1xx_HAL_Driver/Src/stm32f1xx_hal_rcc.c ****   RCC_OscInitStruct->PLL.PLLMUL = (uint32_t)(RCC->CFGR & RCC_CFGR_PLLMULL);
 2288              		.loc 1 1286 3 is_stmt 1 view .LVU645
ARM GAS  C:\Users\begre\AppData\Local\Temp\ccwT0kAZ.s 			page 76


1286:Drivers/STM32F1xx_HAL_Driver/Src/stm32f1xx_hal_rcc.c ****   RCC_OscInitStruct->PLL.PLLMUL = (uint32_t)(RCC->CFGR & RCC_CFGR_PLLMULL);
 2289              		.loc 1 1286 52 is_stmt 0 view .LVU646
 2290 0064 174A     		ldr	r2, .L237
 2291 0066 5368     		ldr	r3, [r2, #4]
1286:Drivers/STM32F1xx_HAL_Driver/Src/stm32f1xx_hal_rcc.c ****   RCC_OscInitStruct->PLL.PLLMUL = (uint32_t)(RCC->CFGR & RCC_CFGR_PLLMULL);
 2292              		.loc 1 1286 38 view .LVU647
 2293 0068 03F48033 		and	r3, r3, #65536
1286:Drivers/STM32F1xx_HAL_Driver/Src/stm32f1xx_hal_rcc.c ****   RCC_OscInitStruct->PLL.PLLMUL = (uint32_t)(RCC->CFGR & RCC_CFGR_PLLMULL);
 2294              		.loc 1 1286 36 view .LVU648
 2295 006c 2362     		str	r3, [r4, #32]
1287:Drivers/STM32F1xx_HAL_Driver/Src/stm32f1xx_hal_rcc.c **** #if defined(RCC_CR_PLL2ON)
 2296              		.loc 1 1287 3 is_stmt 1 view .LVU649
1287:Drivers/STM32F1xx_HAL_Driver/Src/stm32f1xx_hal_rcc.c **** #if defined(RCC_CR_PLL2ON)
 2297              		.loc 1 1287 49 is_stmt 0 view .LVU650
 2298 006e 5368     		ldr	r3, [r2, #4]
1287:Drivers/STM32F1xx_HAL_Driver/Src/stm32f1xx_hal_rcc.c **** #if defined(RCC_CR_PLL2ON)
 2299              		.loc 1 1287 35 view .LVU651
 2300 0070 03F47013 		and	r3, r3, #3932160
1287:Drivers/STM32F1xx_HAL_Driver/Src/stm32f1xx_hal_rcc.c **** #if defined(RCC_CR_PLL2ON)
 2301              		.loc 1 1287 33 view .LVU652
 2302 0074 6362     		str	r3, [r4, #36]
1301:Drivers/STM32F1xx_HAL_Driver/Src/stm32f1xx_hal_rcc.c **** 
 2303              		.loc 1 1301 1 view .LVU653
 2304 0076 10BD     		pop	{r4, pc}
 2305              	.LVL152:
 2306              	.L236:
1214:Drivers/STM32F1xx_HAL_Driver/Src/stm32f1xx_hal_rcc.c **** 
 2307              		.loc 1 1214 3 discriminator 1 view .LVU654
 2308 0078 40F2BE41 		movw	r1, #1214
 2309 007c 1248     		ldr	r0, .L237+4
 2310              	.LVL153:
1214:Drivers/STM32F1xx_HAL_Driver/Src/stm32f1xx_hal_rcc.c **** 
 2311              		.loc 1 1214 3 discriminator 1 view .LVU655
 2312 007e FFF7FEFF 		bl	assert_failed
 2313              	.LVL154:
 2314 0082 C1E7     		b	.L222
 2315              	.L223:
1230:Drivers/STM32F1xx_HAL_Driver/Src/stm32f1xx_hal_rcc.c ****   {
 2316              		.loc 1 1230 8 is_stmt 1 view .LVU656
1230:Drivers/STM32F1xx_HAL_Driver/Src/stm32f1xx_hal_rcc.c ****   {
 2317              		.loc 1 1230 16 is_stmt 0 view .LVU657
 2318 0084 0F4B     		ldr	r3, .L237
 2319 0086 1B68     		ldr	r3, [r3]
1230:Drivers/STM32F1xx_HAL_Driver/Src/stm32f1xx_hal_rcc.c ****   {
 2320              		.loc 1 1230 11 view .LVU658
 2321 0088 13F4803F 		tst	r3, #65536
 2322 008c 03D0     		beq	.L225
1232:Drivers/STM32F1xx_HAL_Driver/Src/stm32f1xx_hal_rcc.c ****   }
 2323              		.loc 1 1232 5 is_stmt 1 view .LVU659
1232:Drivers/STM32F1xx_HAL_Driver/Src/stm32f1xx_hal_rcc.c ****   }
 2324              		.loc 1 1232 33 is_stmt 0 view .LVU660
 2325 008e 4FF48033 		mov	r3, #65536
 2326 0092 6360     		str	r3, [r4, #4]
 2327 0094 C2E7     		b	.L224
 2328              	.L225:
1236:Drivers/STM32F1xx_HAL_Driver/Src/stm32f1xx_hal_rcc.c ****   }
 2329              		.loc 1 1236 5 is_stmt 1 view .LVU661
ARM GAS  C:\Users\begre\AppData\Local\Temp\ccwT0kAZ.s 			page 77


1236:Drivers/STM32F1xx_HAL_Driver/Src/stm32f1xx_hal_rcc.c ****   }
 2330              		.loc 1 1236 33 is_stmt 0 view .LVU662
 2331 0096 0023     		movs	r3, #0
 2332 0098 6360     		str	r3, [r4, #4]
 2333 009a BFE7     		b	.L224
 2334              	.L226:
1247:Drivers/STM32F1xx_HAL_Driver/Src/stm32f1xx_hal_rcc.c ****   }
 2335              		.loc 1 1247 5 is_stmt 1 view .LVU663
1247:Drivers/STM32F1xx_HAL_Driver/Src/stm32f1xx_hal_rcc.c ****   }
 2336              		.loc 1 1247 33 is_stmt 0 view .LVU664
 2337 009c 0023     		movs	r3, #0
 2338 009e 2361     		str	r3, [r4, #16]
 2339 00a0 C7E7     		b	.L227
 2340              	.L228:
1257:Drivers/STM32F1xx_HAL_Driver/Src/stm32f1xx_hal_rcc.c ****   {
 2341              		.loc 1 1257 8 is_stmt 1 view .LVU665
1257:Drivers/STM32F1xx_HAL_Driver/Src/stm32f1xx_hal_rcc.c ****   {
 2342              		.loc 1 1257 16 is_stmt 0 view .LVU666
 2343 00a2 084B     		ldr	r3, .L237
 2344 00a4 1B6A     		ldr	r3, [r3, #32]
1257:Drivers/STM32F1xx_HAL_Driver/Src/stm32f1xx_hal_rcc.c ****   {
 2345              		.loc 1 1257 11 view .LVU667
 2346 00a6 13F0010F 		tst	r3, #1
 2347 00aa 02D0     		beq	.L230
1259:Drivers/STM32F1xx_HAL_Driver/Src/stm32f1xx_hal_rcc.c ****   }
 2348              		.loc 1 1259 5 is_stmt 1 view .LVU668
1259:Drivers/STM32F1xx_HAL_Driver/Src/stm32f1xx_hal_rcc.c ****   }
 2349              		.loc 1 1259 33 is_stmt 0 view .LVU669
 2350 00ac 0123     		movs	r3, #1
 2351 00ae E360     		str	r3, [r4, #12]
 2352 00b0 CAE7     		b	.L229
 2353              	.L230:
1263:Drivers/STM32F1xx_HAL_Driver/Src/stm32f1xx_hal_rcc.c ****   }
 2354              		.loc 1 1263 5 is_stmt 1 view .LVU670
1263:Drivers/STM32F1xx_HAL_Driver/Src/stm32f1xx_hal_rcc.c ****   }
 2355              		.loc 1 1263 33 is_stmt 0 view .LVU671
 2356 00b2 0023     		movs	r3, #0
 2357 00b4 E360     		str	r3, [r4, #12]
 2358 00b6 C7E7     		b	.L229
 2359              	.L231:
1273:Drivers/STM32F1xx_HAL_Driver/Src/stm32f1xx_hal_rcc.c ****   }
 2360              		.loc 1 1273 5 is_stmt 1 view .LVU672
1273:Drivers/STM32F1xx_HAL_Driver/Src/stm32f1xx_hal_rcc.c ****   }
 2361              		.loc 1 1273 33 is_stmt 0 view .LVU673
 2362 00b8 0023     		movs	r3, #0
 2363 00ba A361     		str	r3, [r4, #24]
 2364 00bc CBE7     		b	.L232
 2365              	.L233:
1284:Drivers/STM32F1xx_HAL_Driver/Src/stm32f1xx_hal_rcc.c ****   }
 2366              		.loc 1 1284 5 is_stmt 1 view .LVU674
1284:Drivers/STM32F1xx_HAL_Driver/Src/stm32f1xx_hal_rcc.c ****   }
 2367              		.loc 1 1284 37 is_stmt 0 view .LVU675
 2368 00be 0123     		movs	r3, #1
 2369 00c0 E361     		str	r3, [r4, #28]
 2370 00c2 CFE7     		b	.L234
 2371              	.L238:
 2372              		.align	2
ARM GAS  C:\Users\begre\AppData\Local\Temp\ccwT0kAZ.s 			page 78


 2373              	.L237:
 2374 00c4 00100240 		.word	1073876992
 2375 00c8 00000000 		.word	.LC0
 2376              		.cfi_endproc
 2377              	.LFE75:
 2379              		.section	.text.HAL_RCC_GetClockConfig,"ax",%progbits
 2380              		.align	1
 2381              		.global	HAL_RCC_GetClockConfig
 2382              		.syntax unified
 2383              		.thumb
 2384              		.thumb_func
 2386              	HAL_RCC_GetClockConfig:
 2387              	.LVL155:
 2388              	.LFB76:
1312:Drivers/STM32F1xx_HAL_Driver/Src/stm32f1xx_hal_rcc.c ****   /* Check the parameters */
 2389              		.loc 1 1312 1 is_stmt 1 view -0
 2390              		.cfi_startproc
 2391              		@ args = 0, pretend = 0, frame = 0
 2392              		@ frame_needed = 0, uses_anonymous_args = 0
1312:Drivers/STM32F1xx_HAL_Driver/Src/stm32f1xx_hal_rcc.c ****   /* Check the parameters */
 2393              		.loc 1 1312 1 is_stmt 0 view .LVU677
 2394 0000 38B5     		push	{r3, r4, r5, lr}
 2395              	.LCFI19:
 2396              		.cfi_def_cfa_offset 16
 2397              		.cfi_offset 3, -16
 2398              		.cfi_offset 4, -12
 2399              		.cfi_offset 5, -8
 2400              		.cfi_offset 14, -4
 2401 0002 0D46     		mov	r5, r1
1314:Drivers/STM32F1xx_HAL_Driver/Src/stm32f1xx_hal_rcc.c ****   assert_param(pFLatency != NULL);
 2402              		.loc 1 1314 3 is_stmt 1 view .LVU678
 2403 0004 0446     		mov	r4, r0
 2404 0006 D0B1     		cbz	r0, .L243
 2405              	.LVL156:
 2406              	.L240:
1315:Drivers/STM32F1xx_HAL_Driver/Src/stm32f1xx_hal_rcc.c **** 
 2407              		.loc 1 1315 3 view .LVU679
 2408 0008 FDB1     		cbz	r5, .L244
 2409              	.L241:
1318:Drivers/STM32F1xx_HAL_Driver/Src/stm32f1xx_hal_rcc.c **** 
 2410              		.loc 1 1318 3 view .LVU680
1318:Drivers/STM32F1xx_HAL_Driver/Src/stm32f1xx_hal_rcc.c **** 
 2411              		.loc 1 1318 32 is_stmt 0 view .LVU681
 2412 000a 0F23     		movs	r3, #15
 2413 000c 2360     		str	r3, [r4]
1321:Drivers/STM32F1xx_HAL_Driver/Src/stm32f1xx_hal_rcc.c **** 
 2414              		.loc 1 1321 3 is_stmt 1 view .LVU682
1321:Drivers/STM32F1xx_HAL_Driver/Src/stm32f1xx_hal_rcc.c **** 
 2415              		.loc 1 1321 51 is_stmt 0 view .LVU683
 2416 000e 124B     		ldr	r3, .L245
 2417 0010 5A68     		ldr	r2, [r3, #4]
1321:Drivers/STM32F1xx_HAL_Driver/Src/stm32f1xx_hal_rcc.c **** 
 2418              		.loc 1 1321 37 view .LVU684
 2419 0012 02F00302 		and	r2, r2, #3
1321:Drivers/STM32F1xx_HAL_Driver/Src/stm32f1xx_hal_rcc.c **** 
 2420              		.loc 1 1321 35 view .LVU685
 2421 0016 6260     		str	r2, [r4, #4]
ARM GAS  C:\Users\begre\AppData\Local\Temp\ccwT0kAZ.s 			page 79


1324:Drivers/STM32F1xx_HAL_Driver/Src/stm32f1xx_hal_rcc.c **** 
 2422              		.loc 1 1324 3 is_stmt 1 view .LVU686
1324:Drivers/STM32F1xx_HAL_Driver/Src/stm32f1xx_hal_rcc.c **** 
 2423              		.loc 1 1324 52 is_stmt 0 view .LVU687
 2424 0018 5A68     		ldr	r2, [r3, #4]
1324:Drivers/STM32F1xx_HAL_Driver/Src/stm32f1xx_hal_rcc.c **** 
 2425              		.loc 1 1324 38 view .LVU688
 2426 001a 02F0F002 		and	r2, r2, #240
1324:Drivers/STM32F1xx_HAL_Driver/Src/stm32f1xx_hal_rcc.c **** 
 2427              		.loc 1 1324 36 view .LVU689
 2428 001e A260     		str	r2, [r4, #8]
1327:Drivers/STM32F1xx_HAL_Driver/Src/stm32f1xx_hal_rcc.c **** 
 2429              		.loc 1 1327 3 is_stmt 1 view .LVU690
1327:Drivers/STM32F1xx_HAL_Driver/Src/stm32f1xx_hal_rcc.c **** 
 2430              		.loc 1 1327 53 is_stmt 0 view .LVU691
 2431 0020 5A68     		ldr	r2, [r3, #4]
1327:Drivers/STM32F1xx_HAL_Driver/Src/stm32f1xx_hal_rcc.c **** 
 2432              		.loc 1 1327 39 view .LVU692
 2433 0022 02F4E062 		and	r2, r2, #1792
1327:Drivers/STM32F1xx_HAL_Driver/Src/stm32f1xx_hal_rcc.c **** 
 2434              		.loc 1 1327 37 view .LVU693
 2435 0026 E260     		str	r2, [r4, #12]
1330:Drivers/STM32F1xx_HAL_Driver/Src/stm32f1xx_hal_rcc.c **** 
 2436              		.loc 1 1330 3 is_stmt 1 view .LVU694
1330:Drivers/STM32F1xx_HAL_Driver/Src/stm32f1xx_hal_rcc.c **** 
 2437              		.loc 1 1330 54 is_stmt 0 view .LVU695
 2438 0028 5B68     		ldr	r3, [r3, #4]
1330:Drivers/STM32F1xx_HAL_Driver/Src/stm32f1xx_hal_rcc.c **** 
 2439              		.loc 1 1330 39 view .LVU696
 2440 002a DB08     		lsrs	r3, r3, #3
 2441 002c 03F4E063 		and	r3, r3, #1792
1330:Drivers/STM32F1xx_HAL_Driver/Src/stm32f1xx_hal_rcc.c **** 
 2442              		.loc 1 1330 37 view .LVU697
 2443 0030 2361     		str	r3, [r4, #16]
1334:Drivers/STM32F1xx_HAL_Driver/Src/stm32f1xx_hal_rcc.c **** #else
 2444              		.loc 1 1334 3 is_stmt 1 view .LVU698
1334:Drivers/STM32F1xx_HAL_Driver/Src/stm32f1xx_hal_rcc.c **** #else
 2445              		.loc 1 1334 32 is_stmt 0 view .LVU699
 2446 0032 0A4B     		ldr	r3, .L245+4
 2447 0034 1B68     		ldr	r3, [r3]
1334:Drivers/STM32F1xx_HAL_Driver/Src/stm32f1xx_hal_rcc.c **** #else
 2448              		.loc 1 1334 16 view .LVU700
 2449 0036 03F00703 		and	r3, r3, #7
1334:Drivers/STM32F1xx_HAL_Driver/Src/stm32f1xx_hal_rcc.c **** #else
 2450              		.loc 1 1334 14 view .LVU701
 2451 003a 2B60     		str	r3, [r5]
1339:Drivers/STM32F1xx_HAL_Driver/Src/stm32f1xx_hal_rcc.c **** 
 2452              		.loc 1 1339 1 view .LVU702
 2453 003c 38BD     		pop	{r3, r4, r5, pc}
 2454              	.LVL157:
 2455              	.L243:
1314:Drivers/STM32F1xx_HAL_Driver/Src/stm32f1xx_hal_rcc.c ****   assert_param(pFLatency != NULL);
 2456              		.loc 1 1314 3 discriminator 1 view .LVU703
 2457 003e 40F22251 		movw	r1, #1314
 2458              	.LVL158:
1314:Drivers/STM32F1xx_HAL_Driver/Src/stm32f1xx_hal_rcc.c ****   assert_param(pFLatency != NULL);
 2459              		.loc 1 1314 3 discriminator 1 view .LVU704
ARM GAS  C:\Users\begre\AppData\Local\Temp\ccwT0kAZ.s 			page 80


 2460 0042 0748     		ldr	r0, .L245+8
 2461              	.LVL159:
1314:Drivers/STM32F1xx_HAL_Driver/Src/stm32f1xx_hal_rcc.c ****   assert_param(pFLatency != NULL);
 2462              		.loc 1 1314 3 discriminator 1 view .LVU705
 2463 0044 FFF7FEFF 		bl	assert_failed
 2464              	.LVL160:
 2465 0048 DEE7     		b	.L240
 2466              	.L244:
1315:Drivers/STM32F1xx_HAL_Driver/Src/stm32f1xx_hal_rcc.c **** 
 2467              		.loc 1 1315 3 discriminator 1 view .LVU706
 2468 004a 40F22351 		movw	r1, #1315
 2469 004e 0448     		ldr	r0, .L245+8
 2470 0050 FFF7FEFF 		bl	assert_failed
 2471              	.LVL161:
 2472 0054 D9E7     		b	.L241
 2473              	.L246:
 2474 0056 00BF     		.align	2
 2475              	.L245:
 2476 0058 00100240 		.word	1073876992
 2477 005c 00200240 		.word	1073881088
 2478 0060 00000000 		.word	.LC0
 2479              		.cfi_endproc
 2480              	.LFE76:
 2482              		.section	.text.HAL_RCC_CSSCallback,"ax",%progbits
 2483              		.align	1
 2484              		.weak	HAL_RCC_CSSCallback
 2485              		.syntax unified
 2486              		.thumb
 2487              		.thumb_func
 2489              	HAL_RCC_CSSCallback:
 2490              	.LFB79:
1373:Drivers/STM32F1xx_HAL_Driver/Src/stm32f1xx_hal_rcc.c **** 
1374:Drivers/STM32F1xx_HAL_Driver/Src/stm32f1xx_hal_rcc.c **** /**
1375:Drivers/STM32F1xx_HAL_Driver/Src/stm32f1xx_hal_rcc.c ****   * @brief  RCC Clock Security System interrupt callback
1376:Drivers/STM32F1xx_HAL_Driver/Src/stm32f1xx_hal_rcc.c ****   * @retval none
1377:Drivers/STM32F1xx_HAL_Driver/Src/stm32f1xx_hal_rcc.c ****   */
1378:Drivers/STM32F1xx_HAL_Driver/Src/stm32f1xx_hal_rcc.c **** __weak void HAL_RCC_CSSCallback(void)
1379:Drivers/STM32F1xx_HAL_Driver/Src/stm32f1xx_hal_rcc.c **** {
 2491              		.loc 1 1379 1 is_stmt 1 view -0
 2492              		.cfi_startproc
 2493              		@ args = 0, pretend = 0, frame = 0
 2494              		@ frame_needed = 0, uses_anonymous_args = 0
 2495              		@ link register save eliminated.
1380:Drivers/STM32F1xx_HAL_Driver/Src/stm32f1xx_hal_rcc.c ****   /* NOTE : This function Should not be modified, when the callback is needed,
1381:Drivers/STM32F1xx_HAL_Driver/Src/stm32f1xx_hal_rcc.c ****     the HAL_RCC_CSSCallback could be implemented in the user file
1382:Drivers/STM32F1xx_HAL_Driver/Src/stm32f1xx_hal_rcc.c ****     */
1383:Drivers/STM32F1xx_HAL_Driver/Src/stm32f1xx_hal_rcc.c **** }
 2496              		.loc 1 1383 1 view .LVU708
 2497 0000 7047     		bx	lr
 2498              		.cfi_endproc
 2499              	.LFE79:
 2501              		.section	.text.HAL_RCC_NMI_IRQHandler,"ax",%progbits
 2502              		.align	1
 2503              		.global	HAL_RCC_NMI_IRQHandler
 2504              		.syntax unified
 2505              		.thumb
 2506              		.thumb_func
ARM GAS  C:\Users\begre\AppData\Local\Temp\ccwT0kAZ.s 			page 81


 2508              	HAL_RCC_NMI_IRQHandler:
 2509              	.LFB77:
1347:Drivers/STM32F1xx_HAL_Driver/Src/stm32f1xx_hal_rcc.c ****   /* Check RCC CSSF flag  */
 2510              		.loc 1 1347 1 view -0
 2511              		.cfi_startproc
 2512              		@ args = 0, pretend = 0, frame = 0
 2513              		@ frame_needed = 0, uses_anonymous_args = 0
 2514 0000 08B5     		push	{r3, lr}
 2515              	.LCFI20:
 2516              		.cfi_def_cfa_offset 8
 2517              		.cfi_offset 3, -8
 2518              		.cfi_offset 14, -4
1349:Drivers/STM32F1xx_HAL_Driver/Src/stm32f1xx_hal_rcc.c ****   {
 2519              		.loc 1 1349 3 view .LVU710
1349:Drivers/STM32F1xx_HAL_Driver/Src/stm32f1xx_hal_rcc.c ****   {
 2520              		.loc 1 1349 7 is_stmt 0 view .LVU711
 2521 0002 064B     		ldr	r3, .L252
 2522 0004 9B68     		ldr	r3, [r3, #8]
1349:Drivers/STM32F1xx_HAL_Driver/Src/stm32f1xx_hal_rcc.c ****   {
 2523              		.loc 1 1349 6 view .LVU712
 2524 0006 13F0800F 		tst	r3, #128
 2525 000a 00D1     		bne	.L251
 2526              	.L248:
1357:Drivers/STM32F1xx_HAL_Driver/Src/stm32f1xx_hal_rcc.c **** 
 2527              		.loc 1 1357 1 view .LVU713
 2528 000c 08BD     		pop	{r3, pc}
 2529              	.L251:
1352:Drivers/STM32F1xx_HAL_Driver/Src/stm32f1xx_hal_rcc.c **** 
 2530              		.loc 1 1352 5 is_stmt 1 view .LVU714
 2531 000e FFF7FEFF 		bl	HAL_RCC_CSSCallback
 2532              	.LVL162:
1355:Drivers/STM32F1xx_HAL_Driver/Src/stm32f1xx_hal_rcc.c ****   }
 2533              		.loc 1 1355 5 view .LVU715
 2534 0012 024B     		ldr	r3, .L252
 2535 0014 8022     		movs	r2, #128
 2536 0016 9A72     		strb	r2, [r3, #10]
1357:Drivers/STM32F1xx_HAL_Driver/Src/stm32f1xx_hal_rcc.c **** 
 2537              		.loc 1 1357 1 is_stmt 0 view .LVU716
 2538 0018 F8E7     		b	.L248
 2539              	.L253:
 2540 001a 00BF     		.align	2
 2541              	.L252:
 2542 001c 00100240 		.word	1073876992
 2543              		.cfi_endproc
 2544              	.LFE77:
 2546              		.section	.rodata.aPLLMULFactorTable.1,"a"
 2547              		.align	2
 2548              		.set	.LANCHOR0,. + 0
 2551              	aPLLMULFactorTable.1:
 2552 0000 02030405 		.ascii	"\002\003\004\005\006\007\010\011\012\013\014\015\016"
 2552      06070809 
 2552      0A0B0C0D 
 2552      0E
 2553 000d 0F1010   		.ascii	"\017\020\020"
 2554              		.section	.rodata.aPredivFactorTable.0,"a"
 2555              		.align	2
 2556              		.set	.LANCHOR1,. + 0
ARM GAS  C:\Users\begre\AppData\Local\Temp\ccwT0kAZ.s 			page 82


 2559              	aPredivFactorTable.0:
 2560 0000 0102     		.ascii	"\001\002"
 2561              		.text
 2562              	.Letext0:
 2563              		.file 2 "f:\\software\\gcc-arm-none-eabi-10.3-2021.10\\arm-none-eabi\\include\\machine\\_default_t
 2564              		.file 3 "f:\\software\\gcc-arm-none-eabi-10.3-2021.10\\arm-none-eabi\\include\\sys\\_stdint.h"
 2565              		.file 4 "Drivers/CMSIS/Device/ST/STM32F1xx/Include/system_stm32f1xx.h"
 2566              		.file 5 "Drivers/CMSIS/Device/ST/STM32F1xx/Include/stm32f103xe.h"
 2567              		.file 6 "Drivers/CMSIS/Device/ST/STM32F1xx/Include/stm32f1xx.h"
 2568              		.file 7 "Drivers/STM32F1xx_HAL_Driver/Inc/stm32f1xx_hal_def.h"
 2569              		.file 8 "Drivers/STM32F1xx_HAL_Driver/Inc/stm32f1xx_hal_rcc.h"
 2570              		.file 9 "Drivers/STM32F1xx_HAL_Driver/Inc/stm32f1xx_hal_rcc_ex.h"
 2571              		.file 10 "Drivers/STM32F1xx_HAL_Driver/Inc/stm32f1xx_hal_gpio.h"
 2572              		.file 11 "Drivers/STM32F1xx_HAL_Driver/Inc/stm32f1xx_hal.h"
 2573              		.file 12 "Core/Inc/stm32f1xx_hal_conf.h"
ARM GAS  C:\Users\begre\AppData\Local\Temp\ccwT0kAZ.s 			page 83


DEFINED SYMBOLS
                            *ABS*:00000000 stm32f1xx_hal_rcc.c
C:\Users\begre\AppData\Local\Temp\ccwT0kAZ.s:18     .text.RCC_Delay:00000000 $t
C:\Users\begre\AppData\Local\Temp\ccwT0kAZ.s:23     .text.RCC_Delay:00000000 RCC_Delay
C:\Users\begre\AppData\Local\Temp\ccwT0kAZ.s:73     .text.RCC_Delay:00000024 $d
C:\Users\begre\AppData\Local\Temp\ccwT0kAZ.s:79     .text.HAL_RCC_DeInit:00000000 $t
C:\Users\begre\AppData\Local\Temp\ccwT0kAZ.s:85     .text.HAL_RCC_DeInit:00000000 HAL_RCC_DeInit
C:\Users\begre\AppData\Local\Temp\ccwT0kAZ.s:289    .text.HAL_RCC_DeInit:000000e4 $d
C:\Users\begre\AppData\Local\Temp\ccwT0kAZ.s:297    .rodata.HAL_RCC_OscConfig.str1.4:00000000 $d
C:\Users\begre\AppData\Local\Temp\ccwT0kAZ.s:302    .text.HAL_RCC_OscConfig:00000000 $t
C:\Users\begre\AppData\Local\Temp\ccwT0kAZ.s:308    .text.HAL_RCC_OscConfig:00000000 HAL_RCC_OscConfig
C:\Users\begre\AppData\Local\Temp\ccwT0kAZ.s:819    .text.HAL_RCC_OscConfig:000002a0 $d
C:\Users\begre\AppData\Local\Temp\ccwT0kAZ.s:828    .text.HAL_RCC_OscConfig:000002b0 $t
C:\Users\begre\AppData\Local\Temp\ccwT0kAZ.s:1356   .text.HAL_RCC_OscConfig:00000538 $d
C:\Users\begre\AppData\Local\Temp\ccwT0kAZ.s:1364   .text.HAL_RCC_MCOConfig:00000000 $t
C:\Users\begre\AppData\Local\Temp\ccwT0kAZ.s:1370   .text.HAL_RCC_MCOConfig:00000000 HAL_RCC_MCOConfig
C:\Users\begre\AppData\Local\Temp\ccwT0kAZ.s:1506   .text.HAL_RCC_MCOConfig:00000094 $d
C:\Users\begre\AppData\Local\Temp\ccwT0kAZ.s:1513   .text.HAL_RCC_EnableCSS:00000000 $t
C:\Users\begre\AppData\Local\Temp\ccwT0kAZ.s:1519   .text.HAL_RCC_EnableCSS:00000000 HAL_RCC_EnableCSS
C:\Users\begre\AppData\Local\Temp\ccwT0kAZ.s:1536   .text.HAL_RCC_EnableCSS:00000008 $d
C:\Users\begre\AppData\Local\Temp\ccwT0kAZ.s:1541   .text.HAL_RCC_DisableCSS:00000000 $t
C:\Users\begre\AppData\Local\Temp\ccwT0kAZ.s:1547   .text.HAL_RCC_DisableCSS:00000000 HAL_RCC_DisableCSS
C:\Users\begre\AppData\Local\Temp\ccwT0kAZ.s:1564   .text.HAL_RCC_DisableCSS:00000008 $d
C:\Users\begre\AppData\Local\Temp\ccwT0kAZ.s:1569   .text.HAL_RCC_GetSysClockFreq:00000000 $t
C:\Users\begre\AppData\Local\Temp\ccwT0kAZ.s:1575   .text.HAL_RCC_GetSysClockFreq:00000000 HAL_RCC_GetSysClockFreq
C:\Users\begre\AppData\Local\Temp\ccwT0kAZ.s:1653   .text.HAL_RCC_GetSysClockFreq:00000040 $d
C:\Users\begre\AppData\Local\Temp\ccwT0kAZ.s:1662   .text.HAL_RCC_ClockConfig:00000000 $t
C:\Users\begre\AppData\Local\Temp\ccwT0kAZ.s:1668   .text.HAL_RCC_ClockConfig:00000000 HAL_RCC_ClockConfig
C:\Users\begre\AppData\Local\Temp\ccwT0kAZ.s:2068   .text.HAL_RCC_ClockConfig:00000210 $d
C:\Users\begre\AppData\Local\Temp\ccwT0kAZ.s:2078   .text.HAL_RCC_GetHCLKFreq:00000000 $t
C:\Users\begre\AppData\Local\Temp\ccwT0kAZ.s:2084   .text.HAL_RCC_GetHCLKFreq:00000000 HAL_RCC_GetHCLKFreq
C:\Users\begre\AppData\Local\Temp\ccwT0kAZ.s:2099   .text.HAL_RCC_GetHCLKFreq:00000008 $d
C:\Users\begre\AppData\Local\Temp\ccwT0kAZ.s:2104   .text.HAL_RCC_GetPCLK1Freq:00000000 $t
C:\Users\begre\AppData\Local\Temp\ccwT0kAZ.s:2110   .text.HAL_RCC_GetPCLK1Freq:00000000 HAL_RCC_GetPCLK1Freq
C:\Users\begre\AppData\Local\Temp\ccwT0kAZ.s:2139   .text.HAL_RCC_GetPCLK1Freq:00000018 $d
C:\Users\begre\AppData\Local\Temp\ccwT0kAZ.s:2145   .text.HAL_RCC_GetPCLK2Freq:00000000 $t
C:\Users\begre\AppData\Local\Temp\ccwT0kAZ.s:2151   .text.HAL_RCC_GetPCLK2Freq:00000000 HAL_RCC_GetPCLK2Freq
C:\Users\begre\AppData\Local\Temp\ccwT0kAZ.s:2180   .text.HAL_RCC_GetPCLK2Freq:00000018 $d
C:\Users\begre\AppData\Local\Temp\ccwT0kAZ.s:2186   .text.HAL_RCC_GetOscConfig:00000000 $t
C:\Users\begre\AppData\Local\Temp\ccwT0kAZ.s:2192   .text.HAL_RCC_GetOscConfig:00000000 HAL_RCC_GetOscConfig
C:\Users\begre\AppData\Local\Temp\ccwT0kAZ.s:2374   .text.HAL_RCC_GetOscConfig:000000c4 $d
C:\Users\begre\AppData\Local\Temp\ccwT0kAZ.s:2380   .text.HAL_RCC_GetClockConfig:00000000 $t
C:\Users\begre\AppData\Local\Temp\ccwT0kAZ.s:2386   .text.HAL_RCC_GetClockConfig:00000000 HAL_RCC_GetClockConfig
C:\Users\begre\AppData\Local\Temp\ccwT0kAZ.s:2476   .text.HAL_RCC_GetClockConfig:00000058 $d
C:\Users\begre\AppData\Local\Temp\ccwT0kAZ.s:2483   .text.HAL_RCC_CSSCallback:00000000 $t
C:\Users\begre\AppData\Local\Temp\ccwT0kAZ.s:2489   .text.HAL_RCC_CSSCallback:00000000 HAL_RCC_CSSCallback
C:\Users\begre\AppData\Local\Temp\ccwT0kAZ.s:2502   .text.HAL_RCC_NMI_IRQHandler:00000000 $t
C:\Users\begre\AppData\Local\Temp\ccwT0kAZ.s:2508   .text.HAL_RCC_NMI_IRQHandler:00000000 HAL_RCC_NMI_IRQHandler
C:\Users\begre\AppData\Local\Temp\ccwT0kAZ.s:2542   .text.HAL_RCC_NMI_IRQHandler:0000001c $d
C:\Users\begre\AppData\Local\Temp\ccwT0kAZ.s:2547   .rodata.aPLLMULFactorTable.1:00000000 $d
C:\Users\begre\AppData\Local\Temp\ccwT0kAZ.s:2551   .rodata.aPLLMULFactorTable.1:00000000 aPLLMULFactorTable.1
C:\Users\begre\AppData\Local\Temp\ccwT0kAZ.s:2555   .rodata.aPredivFactorTable.0:00000000 $d
C:\Users\begre\AppData\Local\Temp\ccwT0kAZ.s:2559   .rodata.aPredivFactorTable.0:00000000 aPredivFactorTable.0

UNDEFINED SYMBOLS
SystemCoreClock
HAL_GetTick
ARM GAS  C:\Users\begre\AppData\Local\Temp\ccwT0kAZ.s 			page 84


HAL_InitTick
uwTickPrio
assert_failed
HAL_GPIO_Init
AHBPrescTable
APBPrescTable
