ARM GAS  C:\Users\begre\AppData\Local\Temp\ccGpVL6f.s 			page 1


   1              		.cpu cortex-m3
   2              		.arch armv7-m
   3              		.fpu softvfp
   4              		.eabi_attribute 20, 1
   5              		.eabi_attribute 21, 1
   6              		.eabi_attribute 23, 3
   7              		.eabi_attribute 24, 1
   8              		.eabi_attribute 25, 1
   9              		.eabi_attribute 26, 1
  10              		.eabi_attribute 30, 1
  11              		.eabi_attribute 34, 1
  12              		.eabi_attribute 18, 4
  13              		.file	"stm32f1xx_hal_dma.c"
  14              		.text
  15              	.Ltext0:
  16              		.cfi_sections	.debug_frame
  17              		.section	.text.DMA_SetConfig,"ax",%progbits
  18              		.align	1
  19              		.syntax unified
  20              		.thumb
  21              		.thumb_func
  23              	DMA_SetConfig:
  24              	.LVL0:
  25              	.LFB77:
  26              		.file 1 "Drivers/STM32F1xx_HAL_Driver/Src/stm32f1xx_hal_dma.c"
   1:Drivers/STM32F1xx_HAL_Driver/Src/stm32f1xx_hal_dma.c **** /**
   2:Drivers/STM32F1xx_HAL_Driver/Src/stm32f1xx_hal_dma.c ****   ******************************************************************************
   3:Drivers/STM32F1xx_HAL_Driver/Src/stm32f1xx_hal_dma.c ****   * @file    stm32f1xx_hal_dma.c
   4:Drivers/STM32F1xx_HAL_Driver/Src/stm32f1xx_hal_dma.c ****   * @author  MCD Application Team
   5:Drivers/STM32F1xx_HAL_Driver/Src/stm32f1xx_hal_dma.c ****   * @brief   DMA HAL module driver.
   6:Drivers/STM32F1xx_HAL_Driver/Src/stm32f1xx_hal_dma.c ****   *         This file provides firmware functions to manage the following
   7:Drivers/STM32F1xx_HAL_Driver/Src/stm32f1xx_hal_dma.c ****   *         functionalities of the Direct Memory Access (DMA) peripheral:
   8:Drivers/STM32F1xx_HAL_Driver/Src/stm32f1xx_hal_dma.c ****   *           + Initialization and de-initialization functions
   9:Drivers/STM32F1xx_HAL_Driver/Src/stm32f1xx_hal_dma.c ****   *           + IO operation functions
  10:Drivers/STM32F1xx_HAL_Driver/Src/stm32f1xx_hal_dma.c ****   *           + Peripheral State and errors functions
  11:Drivers/STM32F1xx_HAL_Driver/Src/stm32f1xx_hal_dma.c ****   @verbatim
  12:Drivers/STM32F1xx_HAL_Driver/Src/stm32f1xx_hal_dma.c ****   ==============================================================================
  13:Drivers/STM32F1xx_HAL_Driver/Src/stm32f1xx_hal_dma.c ****                         ##### How to use this driver #####
  14:Drivers/STM32F1xx_HAL_Driver/Src/stm32f1xx_hal_dma.c ****   ==============================================================================
  15:Drivers/STM32F1xx_HAL_Driver/Src/stm32f1xx_hal_dma.c ****   [..]
  16:Drivers/STM32F1xx_HAL_Driver/Src/stm32f1xx_hal_dma.c ****    (#) Enable and configure the peripheral to be connected to the DMA Channel
  17:Drivers/STM32F1xx_HAL_Driver/Src/stm32f1xx_hal_dma.c ****        (except for internal SRAM / FLASH memories: no initialization is 
  18:Drivers/STM32F1xx_HAL_Driver/Src/stm32f1xx_hal_dma.c ****        necessary). Please refer to the Reference manual for connection between peripherals
  19:Drivers/STM32F1xx_HAL_Driver/Src/stm32f1xx_hal_dma.c ****        and DMA requests.
  20:Drivers/STM32F1xx_HAL_Driver/Src/stm32f1xx_hal_dma.c **** 
  21:Drivers/STM32F1xx_HAL_Driver/Src/stm32f1xx_hal_dma.c ****    (#) For a given Channel, program the required configuration through the following parameters:
  22:Drivers/STM32F1xx_HAL_Driver/Src/stm32f1xx_hal_dma.c ****        Channel request, Transfer Direction, Source and Destination data formats,
  23:Drivers/STM32F1xx_HAL_Driver/Src/stm32f1xx_hal_dma.c ****        Circular or Normal mode, Channel Priority level, Source and Destination Increment mode
  24:Drivers/STM32F1xx_HAL_Driver/Src/stm32f1xx_hal_dma.c ****        using HAL_DMA_Init() function.
  25:Drivers/STM32F1xx_HAL_Driver/Src/stm32f1xx_hal_dma.c **** 
  26:Drivers/STM32F1xx_HAL_Driver/Src/stm32f1xx_hal_dma.c ****    (#) Use HAL_DMA_GetState() function to return the DMA state and HAL_DMA_GetError() in case of er
  27:Drivers/STM32F1xx_HAL_Driver/Src/stm32f1xx_hal_dma.c ****        detection.
  28:Drivers/STM32F1xx_HAL_Driver/Src/stm32f1xx_hal_dma.c ****                     
  29:Drivers/STM32F1xx_HAL_Driver/Src/stm32f1xx_hal_dma.c ****    (#) Use HAL_DMA_Abort() function to abort the current transfer
  30:Drivers/STM32F1xx_HAL_Driver/Src/stm32f1xx_hal_dma.c ****                    
  31:Drivers/STM32F1xx_HAL_Driver/Src/stm32f1xx_hal_dma.c ****      -@-   In Memory-to-Memory transfer mode, Circular mode is not allowed.
  32:Drivers/STM32F1xx_HAL_Driver/Src/stm32f1xx_hal_dma.c ****      *** Polling mode IO operation ***
ARM GAS  C:\Users\begre\AppData\Local\Temp\ccGpVL6f.s 			page 2


  33:Drivers/STM32F1xx_HAL_Driver/Src/stm32f1xx_hal_dma.c ****      =================================
  34:Drivers/STM32F1xx_HAL_Driver/Src/stm32f1xx_hal_dma.c ****     [..]
  35:Drivers/STM32F1xx_HAL_Driver/Src/stm32f1xx_hal_dma.c ****           (+) Use HAL_DMA_Start() to start DMA transfer after the configuration of Source
  36:Drivers/STM32F1xx_HAL_Driver/Src/stm32f1xx_hal_dma.c ****               address and destination address and the Length of data to be transferred
  37:Drivers/STM32F1xx_HAL_Driver/Src/stm32f1xx_hal_dma.c ****           (+) Use HAL_DMA_PollForTransfer() to poll for the end of current transfer, in this
  38:Drivers/STM32F1xx_HAL_Driver/Src/stm32f1xx_hal_dma.c ****               case a fixed Timeout can be configured by User depending from his application.
  39:Drivers/STM32F1xx_HAL_Driver/Src/stm32f1xx_hal_dma.c **** 
  40:Drivers/STM32F1xx_HAL_Driver/Src/stm32f1xx_hal_dma.c ****      *** Interrupt mode IO operation ***
  41:Drivers/STM32F1xx_HAL_Driver/Src/stm32f1xx_hal_dma.c ****      ===================================
  42:Drivers/STM32F1xx_HAL_Driver/Src/stm32f1xx_hal_dma.c ****     [..]
  43:Drivers/STM32F1xx_HAL_Driver/Src/stm32f1xx_hal_dma.c ****           (+) Configure the DMA interrupt priority using HAL_NVIC_SetPriority()
  44:Drivers/STM32F1xx_HAL_Driver/Src/stm32f1xx_hal_dma.c ****           (+) Enable the DMA IRQ handler using HAL_NVIC_EnableIRQ()
  45:Drivers/STM32F1xx_HAL_Driver/Src/stm32f1xx_hal_dma.c ****           (+) Use HAL_DMA_Start_IT() to start DMA transfer after the configuration of
  46:Drivers/STM32F1xx_HAL_Driver/Src/stm32f1xx_hal_dma.c ****               Source address and destination address and the Length of data to be transferred.
  47:Drivers/STM32F1xx_HAL_Driver/Src/stm32f1xx_hal_dma.c ****               In this case the DMA interrupt is configured
  48:Drivers/STM32F1xx_HAL_Driver/Src/stm32f1xx_hal_dma.c ****           (+) Use HAL_DMA_IRQHandler() called under DMA_IRQHandler() Interrupt subroutine
  49:Drivers/STM32F1xx_HAL_Driver/Src/stm32f1xx_hal_dma.c ****           (+) At the end of data transfer HAL_DMA_IRQHandler() function is executed and user can
  50:Drivers/STM32F1xx_HAL_Driver/Src/stm32f1xx_hal_dma.c ****               add his own function by customization of function pointer XferCpltCallback and
  51:Drivers/STM32F1xx_HAL_Driver/Src/stm32f1xx_hal_dma.c ****               XferErrorCallback (i.e. a member of DMA handle structure).
  52:Drivers/STM32F1xx_HAL_Driver/Src/stm32f1xx_hal_dma.c **** 
  53:Drivers/STM32F1xx_HAL_Driver/Src/stm32f1xx_hal_dma.c ****      *** DMA HAL driver macros list ***
  54:Drivers/STM32F1xx_HAL_Driver/Src/stm32f1xx_hal_dma.c ****      ============================================= 
  55:Drivers/STM32F1xx_HAL_Driver/Src/stm32f1xx_hal_dma.c ****       [..]
  56:Drivers/STM32F1xx_HAL_Driver/Src/stm32f1xx_hal_dma.c ****        Below the list of most used macros in DMA HAL driver.
  57:Drivers/STM32F1xx_HAL_Driver/Src/stm32f1xx_hal_dma.c **** 
  58:Drivers/STM32F1xx_HAL_Driver/Src/stm32f1xx_hal_dma.c ****        (+) __HAL_DMA_ENABLE: Enable the specified DMA Channel.
  59:Drivers/STM32F1xx_HAL_Driver/Src/stm32f1xx_hal_dma.c ****        (+) __HAL_DMA_DISABLE: Disable the specified DMA Channel.
  60:Drivers/STM32F1xx_HAL_Driver/Src/stm32f1xx_hal_dma.c ****        (+) __HAL_DMA_GET_FLAG: Get the DMA Channel pending flags.
  61:Drivers/STM32F1xx_HAL_Driver/Src/stm32f1xx_hal_dma.c ****        (+) __HAL_DMA_CLEAR_FLAG: Clear the DMA Channel pending flags.
  62:Drivers/STM32F1xx_HAL_Driver/Src/stm32f1xx_hal_dma.c ****        (+) __HAL_DMA_ENABLE_IT: Enable the specified DMA Channel interrupts.
  63:Drivers/STM32F1xx_HAL_Driver/Src/stm32f1xx_hal_dma.c ****        (+) __HAL_DMA_DISABLE_IT: Disable the specified DMA Channel interrupts.
  64:Drivers/STM32F1xx_HAL_Driver/Src/stm32f1xx_hal_dma.c ****        (+) __HAL_DMA_GET_IT_SOURCE: Check whether the specified DMA Channel interrupt has occurred 
  65:Drivers/STM32F1xx_HAL_Driver/Src/stm32f1xx_hal_dma.c **** 
  66:Drivers/STM32F1xx_HAL_Driver/Src/stm32f1xx_hal_dma.c ****      [..] 
  67:Drivers/STM32F1xx_HAL_Driver/Src/stm32f1xx_hal_dma.c ****       (@) You can refer to the DMA HAL driver header file for more useful macros  
  68:Drivers/STM32F1xx_HAL_Driver/Src/stm32f1xx_hal_dma.c **** 
  69:Drivers/STM32F1xx_HAL_Driver/Src/stm32f1xx_hal_dma.c ****   @endverbatim
  70:Drivers/STM32F1xx_HAL_Driver/Src/stm32f1xx_hal_dma.c ****   ******************************************************************************
  71:Drivers/STM32F1xx_HAL_Driver/Src/stm32f1xx_hal_dma.c ****   * @attention
  72:Drivers/STM32F1xx_HAL_Driver/Src/stm32f1xx_hal_dma.c ****   *
  73:Drivers/STM32F1xx_HAL_Driver/Src/stm32f1xx_hal_dma.c ****   * Copyright (c) 2016 STMicroelectronics.
  74:Drivers/STM32F1xx_HAL_Driver/Src/stm32f1xx_hal_dma.c ****   * All rights reserved.
  75:Drivers/STM32F1xx_HAL_Driver/Src/stm32f1xx_hal_dma.c ****   *
  76:Drivers/STM32F1xx_HAL_Driver/Src/stm32f1xx_hal_dma.c ****   * This software is licensed under terms that can be found in the LICENSE file in
  77:Drivers/STM32F1xx_HAL_Driver/Src/stm32f1xx_hal_dma.c ****   * the root directory of this software component.
  78:Drivers/STM32F1xx_HAL_Driver/Src/stm32f1xx_hal_dma.c ****   * If no LICENSE file comes with this software, it is provided AS-IS.
  79:Drivers/STM32F1xx_HAL_Driver/Src/stm32f1xx_hal_dma.c ****   *
  80:Drivers/STM32F1xx_HAL_Driver/Src/stm32f1xx_hal_dma.c ****   ******************************************************************************
  81:Drivers/STM32F1xx_HAL_Driver/Src/stm32f1xx_hal_dma.c ****   */
  82:Drivers/STM32F1xx_HAL_Driver/Src/stm32f1xx_hal_dma.c **** 
  83:Drivers/STM32F1xx_HAL_Driver/Src/stm32f1xx_hal_dma.c **** /* Includes ------------------------------------------------------------------*/
  84:Drivers/STM32F1xx_HAL_Driver/Src/stm32f1xx_hal_dma.c **** #include "stm32f1xx_hal.h"
  85:Drivers/STM32F1xx_HAL_Driver/Src/stm32f1xx_hal_dma.c **** 
  86:Drivers/STM32F1xx_HAL_Driver/Src/stm32f1xx_hal_dma.c **** /** @addtogroup STM32F1xx_HAL_Driver
  87:Drivers/STM32F1xx_HAL_Driver/Src/stm32f1xx_hal_dma.c ****   * @{
  88:Drivers/STM32F1xx_HAL_Driver/Src/stm32f1xx_hal_dma.c ****   */
  89:Drivers/STM32F1xx_HAL_Driver/Src/stm32f1xx_hal_dma.c **** 
ARM GAS  C:\Users\begre\AppData\Local\Temp\ccGpVL6f.s 			page 3


  90:Drivers/STM32F1xx_HAL_Driver/Src/stm32f1xx_hal_dma.c **** /** @defgroup DMA DMA
  91:Drivers/STM32F1xx_HAL_Driver/Src/stm32f1xx_hal_dma.c ****   * @brief DMA HAL module driver
  92:Drivers/STM32F1xx_HAL_Driver/Src/stm32f1xx_hal_dma.c ****   * @{
  93:Drivers/STM32F1xx_HAL_Driver/Src/stm32f1xx_hal_dma.c ****   */
  94:Drivers/STM32F1xx_HAL_Driver/Src/stm32f1xx_hal_dma.c **** 
  95:Drivers/STM32F1xx_HAL_Driver/Src/stm32f1xx_hal_dma.c **** #ifdef HAL_DMA_MODULE_ENABLED
  96:Drivers/STM32F1xx_HAL_Driver/Src/stm32f1xx_hal_dma.c **** 
  97:Drivers/STM32F1xx_HAL_Driver/Src/stm32f1xx_hal_dma.c **** /* Private typedef -----------------------------------------------------------*/
  98:Drivers/STM32F1xx_HAL_Driver/Src/stm32f1xx_hal_dma.c **** /* Private define ------------------------------------------------------------*/
  99:Drivers/STM32F1xx_HAL_Driver/Src/stm32f1xx_hal_dma.c **** /* Private macro -------------------------------------------------------------*/
 100:Drivers/STM32F1xx_HAL_Driver/Src/stm32f1xx_hal_dma.c **** /* Private variables ---------------------------------------------------------*/
 101:Drivers/STM32F1xx_HAL_Driver/Src/stm32f1xx_hal_dma.c **** /* Private function prototypes -----------------------------------------------*/
 102:Drivers/STM32F1xx_HAL_Driver/Src/stm32f1xx_hal_dma.c **** /** @defgroup DMA_Private_Functions DMA Private Functions
 103:Drivers/STM32F1xx_HAL_Driver/Src/stm32f1xx_hal_dma.c ****   * @{
 104:Drivers/STM32F1xx_HAL_Driver/Src/stm32f1xx_hal_dma.c ****   */
 105:Drivers/STM32F1xx_HAL_Driver/Src/stm32f1xx_hal_dma.c **** static void DMA_SetConfig(DMA_HandleTypeDef *hdma, uint32_t SrcAddress, uint32_t DstAddress, uint32
 106:Drivers/STM32F1xx_HAL_Driver/Src/stm32f1xx_hal_dma.c **** /**
 107:Drivers/STM32F1xx_HAL_Driver/Src/stm32f1xx_hal_dma.c ****   * @}
 108:Drivers/STM32F1xx_HAL_Driver/Src/stm32f1xx_hal_dma.c ****   */
 109:Drivers/STM32F1xx_HAL_Driver/Src/stm32f1xx_hal_dma.c **** 
 110:Drivers/STM32F1xx_HAL_Driver/Src/stm32f1xx_hal_dma.c **** /* Exported functions ---------------------------------------------------------*/
 111:Drivers/STM32F1xx_HAL_Driver/Src/stm32f1xx_hal_dma.c **** 
 112:Drivers/STM32F1xx_HAL_Driver/Src/stm32f1xx_hal_dma.c **** /** @defgroup DMA_Exported_Functions DMA Exported Functions
 113:Drivers/STM32F1xx_HAL_Driver/Src/stm32f1xx_hal_dma.c ****   * @{
 114:Drivers/STM32F1xx_HAL_Driver/Src/stm32f1xx_hal_dma.c ****   */
 115:Drivers/STM32F1xx_HAL_Driver/Src/stm32f1xx_hal_dma.c **** 
 116:Drivers/STM32F1xx_HAL_Driver/Src/stm32f1xx_hal_dma.c **** /** @defgroup DMA_Exported_Functions_Group1 Initialization and de-initialization functions
 117:Drivers/STM32F1xx_HAL_Driver/Src/stm32f1xx_hal_dma.c ****   *  @brief   Initialization and de-initialization functions 
 118:Drivers/STM32F1xx_HAL_Driver/Src/stm32f1xx_hal_dma.c ****   *
 119:Drivers/STM32F1xx_HAL_Driver/Src/stm32f1xx_hal_dma.c **** @verbatim
 120:Drivers/STM32F1xx_HAL_Driver/Src/stm32f1xx_hal_dma.c ****  ===============================================================================
 121:Drivers/STM32F1xx_HAL_Driver/Src/stm32f1xx_hal_dma.c ****              ##### Initialization and de-initialization functions  #####
 122:Drivers/STM32F1xx_HAL_Driver/Src/stm32f1xx_hal_dma.c ****  ===============================================================================
 123:Drivers/STM32F1xx_HAL_Driver/Src/stm32f1xx_hal_dma.c ****     [..]
 124:Drivers/STM32F1xx_HAL_Driver/Src/stm32f1xx_hal_dma.c ****     This section provides functions allowing to initialize the DMA Channel source
 125:Drivers/STM32F1xx_HAL_Driver/Src/stm32f1xx_hal_dma.c ****     and destination addresses, incrementation and data sizes, transfer direction, 
 126:Drivers/STM32F1xx_HAL_Driver/Src/stm32f1xx_hal_dma.c ****     circular/normal mode selection, memory-to-memory mode selection and Channel priority value.
 127:Drivers/STM32F1xx_HAL_Driver/Src/stm32f1xx_hal_dma.c ****     [..]
 128:Drivers/STM32F1xx_HAL_Driver/Src/stm32f1xx_hal_dma.c ****     The HAL_DMA_Init() function follows the DMA configuration procedures as described in
 129:Drivers/STM32F1xx_HAL_Driver/Src/stm32f1xx_hal_dma.c ****     reference manual.  
 130:Drivers/STM32F1xx_HAL_Driver/Src/stm32f1xx_hal_dma.c **** 
 131:Drivers/STM32F1xx_HAL_Driver/Src/stm32f1xx_hal_dma.c **** @endverbatim
 132:Drivers/STM32F1xx_HAL_Driver/Src/stm32f1xx_hal_dma.c ****   * @{
 133:Drivers/STM32F1xx_HAL_Driver/Src/stm32f1xx_hal_dma.c ****   */
 134:Drivers/STM32F1xx_HAL_Driver/Src/stm32f1xx_hal_dma.c **** 
 135:Drivers/STM32F1xx_HAL_Driver/Src/stm32f1xx_hal_dma.c **** /**
 136:Drivers/STM32F1xx_HAL_Driver/Src/stm32f1xx_hal_dma.c ****   * @brief  Initialize the DMA according to the specified
 137:Drivers/STM32F1xx_HAL_Driver/Src/stm32f1xx_hal_dma.c ****   *         parameters in the DMA_InitTypeDef and initialize the associated handle.
 138:Drivers/STM32F1xx_HAL_Driver/Src/stm32f1xx_hal_dma.c ****   * @param  hdma: Pointer to a DMA_HandleTypeDef structure that contains
 139:Drivers/STM32F1xx_HAL_Driver/Src/stm32f1xx_hal_dma.c ****   *               the configuration information for the specified DMA Channel.
 140:Drivers/STM32F1xx_HAL_Driver/Src/stm32f1xx_hal_dma.c ****   * @retval HAL status
 141:Drivers/STM32F1xx_HAL_Driver/Src/stm32f1xx_hal_dma.c ****   */
 142:Drivers/STM32F1xx_HAL_Driver/Src/stm32f1xx_hal_dma.c **** HAL_StatusTypeDef HAL_DMA_Init(DMA_HandleTypeDef *hdma)
 143:Drivers/STM32F1xx_HAL_Driver/Src/stm32f1xx_hal_dma.c **** {
 144:Drivers/STM32F1xx_HAL_Driver/Src/stm32f1xx_hal_dma.c ****   uint32_t tmp = 0U;
 145:Drivers/STM32F1xx_HAL_Driver/Src/stm32f1xx_hal_dma.c **** 
 146:Drivers/STM32F1xx_HAL_Driver/Src/stm32f1xx_hal_dma.c ****   /* Check the DMA handle allocation */
ARM GAS  C:\Users\begre\AppData\Local\Temp\ccGpVL6f.s 			page 4


 147:Drivers/STM32F1xx_HAL_Driver/Src/stm32f1xx_hal_dma.c ****   if(hdma == NULL)
 148:Drivers/STM32F1xx_HAL_Driver/Src/stm32f1xx_hal_dma.c ****   {
 149:Drivers/STM32F1xx_HAL_Driver/Src/stm32f1xx_hal_dma.c ****     return HAL_ERROR;
 150:Drivers/STM32F1xx_HAL_Driver/Src/stm32f1xx_hal_dma.c ****   }
 151:Drivers/STM32F1xx_HAL_Driver/Src/stm32f1xx_hal_dma.c **** 
 152:Drivers/STM32F1xx_HAL_Driver/Src/stm32f1xx_hal_dma.c ****   /* Check the parameters */
 153:Drivers/STM32F1xx_HAL_Driver/Src/stm32f1xx_hal_dma.c ****   assert_param(IS_DMA_ALL_INSTANCE(hdma->Instance));
 154:Drivers/STM32F1xx_HAL_Driver/Src/stm32f1xx_hal_dma.c ****   assert_param(IS_DMA_DIRECTION(hdma->Init.Direction));
 155:Drivers/STM32F1xx_HAL_Driver/Src/stm32f1xx_hal_dma.c ****   assert_param(IS_DMA_PERIPHERAL_INC_STATE(hdma->Init.PeriphInc));
 156:Drivers/STM32F1xx_HAL_Driver/Src/stm32f1xx_hal_dma.c ****   assert_param(IS_DMA_MEMORY_INC_STATE(hdma->Init.MemInc));
 157:Drivers/STM32F1xx_HAL_Driver/Src/stm32f1xx_hal_dma.c ****   assert_param(IS_DMA_PERIPHERAL_DATA_SIZE(hdma->Init.PeriphDataAlignment));
 158:Drivers/STM32F1xx_HAL_Driver/Src/stm32f1xx_hal_dma.c ****   assert_param(IS_DMA_MEMORY_DATA_SIZE(hdma->Init.MemDataAlignment));
 159:Drivers/STM32F1xx_HAL_Driver/Src/stm32f1xx_hal_dma.c ****   assert_param(IS_DMA_MODE(hdma->Init.Mode));
 160:Drivers/STM32F1xx_HAL_Driver/Src/stm32f1xx_hal_dma.c ****   assert_param(IS_DMA_PRIORITY(hdma->Init.Priority));
 161:Drivers/STM32F1xx_HAL_Driver/Src/stm32f1xx_hal_dma.c **** 
 162:Drivers/STM32F1xx_HAL_Driver/Src/stm32f1xx_hal_dma.c **** #if defined (DMA2)
 163:Drivers/STM32F1xx_HAL_Driver/Src/stm32f1xx_hal_dma.c ****   /* calculation of the channel index */
 164:Drivers/STM32F1xx_HAL_Driver/Src/stm32f1xx_hal_dma.c ****   if ((uint32_t)(hdma->Instance) < (uint32_t)(DMA2_Channel1))
 165:Drivers/STM32F1xx_HAL_Driver/Src/stm32f1xx_hal_dma.c ****   {
 166:Drivers/STM32F1xx_HAL_Driver/Src/stm32f1xx_hal_dma.c ****     /* DMA1 */
 167:Drivers/STM32F1xx_HAL_Driver/Src/stm32f1xx_hal_dma.c ****     hdma->ChannelIndex = (((uint32_t)hdma->Instance - (uint32_t)DMA1_Channel1) / ((uint32_t)DMA1_Ch
 168:Drivers/STM32F1xx_HAL_Driver/Src/stm32f1xx_hal_dma.c ****     hdma->DmaBaseAddress = DMA1;
 169:Drivers/STM32F1xx_HAL_Driver/Src/stm32f1xx_hal_dma.c ****   }
 170:Drivers/STM32F1xx_HAL_Driver/Src/stm32f1xx_hal_dma.c ****   else 
 171:Drivers/STM32F1xx_HAL_Driver/Src/stm32f1xx_hal_dma.c ****   {
 172:Drivers/STM32F1xx_HAL_Driver/Src/stm32f1xx_hal_dma.c ****     /* DMA2 */
 173:Drivers/STM32F1xx_HAL_Driver/Src/stm32f1xx_hal_dma.c ****     hdma->ChannelIndex = (((uint32_t)hdma->Instance - (uint32_t)DMA2_Channel1) / ((uint32_t)DMA2_Ch
 174:Drivers/STM32F1xx_HAL_Driver/Src/stm32f1xx_hal_dma.c ****     hdma->DmaBaseAddress = DMA2;
 175:Drivers/STM32F1xx_HAL_Driver/Src/stm32f1xx_hal_dma.c ****   }
 176:Drivers/STM32F1xx_HAL_Driver/Src/stm32f1xx_hal_dma.c **** #else
 177:Drivers/STM32F1xx_HAL_Driver/Src/stm32f1xx_hal_dma.c ****   /* DMA1 */
 178:Drivers/STM32F1xx_HAL_Driver/Src/stm32f1xx_hal_dma.c ****   hdma->ChannelIndex = (((uint32_t)hdma->Instance - (uint32_t)DMA1_Channel1) / ((uint32_t)DMA1_Chan
 179:Drivers/STM32F1xx_HAL_Driver/Src/stm32f1xx_hal_dma.c ****   hdma->DmaBaseAddress = DMA1;
 180:Drivers/STM32F1xx_HAL_Driver/Src/stm32f1xx_hal_dma.c **** #endif /* DMA2 */
 181:Drivers/STM32F1xx_HAL_Driver/Src/stm32f1xx_hal_dma.c **** 
 182:Drivers/STM32F1xx_HAL_Driver/Src/stm32f1xx_hal_dma.c ****   /* Change DMA peripheral state */
 183:Drivers/STM32F1xx_HAL_Driver/Src/stm32f1xx_hal_dma.c ****   hdma->State = HAL_DMA_STATE_BUSY;
 184:Drivers/STM32F1xx_HAL_Driver/Src/stm32f1xx_hal_dma.c **** 
 185:Drivers/STM32F1xx_HAL_Driver/Src/stm32f1xx_hal_dma.c ****   /* Get the CR register value */
 186:Drivers/STM32F1xx_HAL_Driver/Src/stm32f1xx_hal_dma.c ****   tmp = hdma->Instance->CCR;
 187:Drivers/STM32F1xx_HAL_Driver/Src/stm32f1xx_hal_dma.c **** 
 188:Drivers/STM32F1xx_HAL_Driver/Src/stm32f1xx_hal_dma.c ****   /* Clear PL, MSIZE, PSIZE, MINC, PINC, CIRC and DIR bits */
 189:Drivers/STM32F1xx_HAL_Driver/Src/stm32f1xx_hal_dma.c ****   tmp &= ((uint32_t)~(DMA_CCR_PL    | DMA_CCR_MSIZE  | DMA_CCR_PSIZE  | \
 190:Drivers/STM32F1xx_HAL_Driver/Src/stm32f1xx_hal_dma.c ****                       DMA_CCR_MINC  | DMA_CCR_PINC   | DMA_CCR_CIRC   | \
 191:Drivers/STM32F1xx_HAL_Driver/Src/stm32f1xx_hal_dma.c ****                       DMA_CCR_DIR));
 192:Drivers/STM32F1xx_HAL_Driver/Src/stm32f1xx_hal_dma.c **** 
 193:Drivers/STM32F1xx_HAL_Driver/Src/stm32f1xx_hal_dma.c ****   /* Prepare the DMA Channel configuration */
 194:Drivers/STM32F1xx_HAL_Driver/Src/stm32f1xx_hal_dma.c ****   tmp |=  hdma->Init.Direction        |
 195:Drivers/STM32F1xx_HAL_Driver/Src/stm32f1xx_hal_dma.c ****           hdma->Init.PeriphInc           | hdma->Init.MemInc           |
 196:Drivers/STM32F1xx_HAL_Driver/Src/stm32f1xx_hal_dma.c ****           hdma->Init.PeriphDataAlignment | hdma->Init.MemDataAlignment |
 197:Drivers/STM32F1xx_HAL_Driver/Src/stm32f1xx_hal_dma.c ****           hdma->Init.Mode                | hdma->Init.Priority;
 198:Drivers/STM32F1xx_HAL_Driver/Src/stm32f1xx_hal_dma.c **** 
 199:Drivers/STM32F1xx_HAL_Driver/Src/stm32f1xx_hal_dma.c ****   /* Write to DMA Channel CR register */
 200:Drivers/STM32F1xx_HAL_Driver/Src/stm32f1xx_hal_dma.c ****   hdma->Instance->CCR = tmp;
 201:Drivers/STM32F1xx_HAL_Driver/Src/stm32f1xx_hal_dma.c **** 
 202:Drivers/STM32F1xx_HAL_Driver/Src/stm32f1xx_hal_dma.c ****   /* Initialise the error code */
 203:Drivers/STM32F1xx_HAL_Driver/Src/stm32f1xx_hal_dma.c ****   hdma->ErrorCode = HAL_DMA_ERROR_NONE;
ARM GAS  C:\Users\begre\AppData\Local\Temp\ccGpVL6f.s 			page 5


 204:Drivers/STM32F1xx_HAL_Driver/Src/stm32f1xx_hal_dma.c **** 
 205:Drivers/STM32F1xx_HAL_Driver/Src/stm32f1xx_hal_dma.c ****   /* Initialize the DMA state*/
 206:Drivers/STM32F1xx_HAL_Driver/Src/stm32f1xx_hal_dma.c ****   hdma->State = HAL_DMA_STATE_READY;
 207:Drivers/STM32F1xx_HAL_Driver/Src/stm32f1xx_hal_dma.c ****   /* Allocate lock resource and initialize it */
 208:Drivers/STM32F1xx_HAL_Driver/Src/stm32f1xx_hal_dma.c ****   hdma->Lock = HAL_UNLOCKED;
 209:Drivers/STM32F1xx_HAL_Driver/Src/stm32f1xx_hal_dma.c **** 
 210:Drivers/STM32F1xx_HAL_Driver/Src/stm32f1xx_hal_dma.c ****   return HAL_OK;
 211:Drivers/STM32F1xx_HAL_Driver/Src/stm32f1xx_hal_dma.c **** }
 212:Drivers/STM32F1xx_HAL_Driver/Src/stm32f1xx_hal_dma.c **** 
 213:Drivers/STM32F1xx_HAL_Driver/Src/stm32f1xx_hal_dma.c **** /**
 214:Drivers/STM32F1xx_HAL_Driver/Src/stm32f1xx_hal_dma.c ****   * @brief  DeInitialize the DMA peripheral.
 215:Drivers/STM32F1xx_HAL_Driver/Src/stm32f1xx_hal_dma.c ****   * @param  hdma: pointer to a DMA_HandleTypeDef structure that contains
 216:Drivers/STM32F1xx_HAL_Driver/Src/stm32f1xx_hal_dma.c ****   *               the configuration information for the specified DMA Channel.
 217:Drivers/STM32F1xx_HAL_Driver/Src/stm32f1xx_hal_dma.c ****   * @retval HAL status
 218:Drivers/STM32F1xx_HAL_Driver/Src/stm32f1xx_hal_dma.c ****   */
 219:Drivers/STM32F1xx_HAL_Driver/Src/stm32f1xx_hal_dma.c **** HAL_StatusTypeDef HAL_DMA_DeInit(DMA_HandleTypeDef *hdma)
 220:Drivers/STM32F1xx_HAL_Driver/Src/stm32f1xx_hal_dma.c **** {
 221:Drivers/STM32F1xx_HAL_Driver/Src/stm32f1xx_hal_dma.c ****   /* Check the DMA handle allocation */
 222:Drivers/STM32F1xx_HAL_Driver/Src/stm32f1xx_hal_dma.c ****   if(hdma == NULL)
 223:Drivers/STM32F1xx_HAL_Driver/Src/stm32f1xx_hal_dma.c ****   {
 224:Drivers/STM32F1xx_HAL_Driver/Src/stm32f1xx_hal_dma.c ****     return HAL_ERROR;
 225:Drivers/STM32F1xx_HAL_Driver/Src/stm32f1xx_hal_dma.c ****   }
 226:Drivers/STM32F1xx_HAL_Driver/Src/stm32f1xx_hal_dma.c **** 
 227:Drivers/STM32F1xx_HAL_Driver/Src/stm32f1xx_hal_dma.c ****   /* Check the parameters */
 228:Drivers/STM32F1xx_HAL_Driver/Src/stm32f1xx_hal_dma.c ****   assert_param(IS_DMA_ALL_INSTANCE(hdma->Instance));
 229:Drivers/STM32F1xx_HAL_Driver/Src/stm32f1xx_hal_dma.c **** 
 230:Drivers/STM32F1xx_HAL_Driver/Src/stm32f1xx_hal_dma.c ****   /* Disable the selected DMA Channelx */
 231:Drivers/STM32F1xx_HAL_Driver/Src/stm32f1xx_hal_dma.c ****   __HAL_DMA_DISABLE(hdma);
 232:Drivers/STM32F1xx_HAL_Driver/Src/stm32f1xx_hal_dma.c **** 
 233:Drivers/STM32F1xx_HAL_Driver/Src/stm32f1xx_hal_dma.c ****   /* Reset DMA Channel control register */
 234:Drivers/STM32F1xx_HAL_Driver/Src/stm32f1xx_hal_dma.c ****   hdma->Instance->CCR  = 0U;
 235:Drivers/STM32F1xx_HAL_Driver/Src/stm32f1xx_hal_dma.c **** 
 236:Drivers/STM32F1xx_HAL_Driver/Src/stm32f1xx_hal_dma.c ****   /* Reset DMA Channel Number of Data to Transfer register */
 237:Drivers/STM32F1xx_HAL_Driver/Src/stm32f1xx_hal_dma.c ****   hdma->Instance->CNDTR = 0U;
 238:Drivers/STM32F1xx_HAL_Driver/Src/stm32f1xx_hal_dma.c **** 
 239:Drivers/STM32F1xx_HAL_Driver/Src/stm32f1xx_hal_dma.c ****   /* Reset DMA Channel peripheral address register */
 240:Drivers/STM32F1xx_HAL_Driver/Src/stm32f1xx_hal_dma.c ****   hdma->Instance->CPAR  = 0U;
 241:Drivers/STM32F1xx_HAL_Driver/Src/stm32f1xx_hal_dma.c **** 
 242:Drivers/STM32F1xx_HAL_Driver/Src/stm32f1xx_hal_dma.c ****   /* Reset DMA Channel memory address register */
 243:Drivers/STM32F1xx_HAL_Driver/Src/stm32f1xx_hal_dma.c ****   hdma->Instance->CMAR = 0U;
 244:Drivers/STM32F1xx_HAL_Driver/Src/stm32f1xx_hal_dma.c **** 
 245:Drivers/STM32F1xx_HAL_Driver/Src/stm32f1xx_hal_dma.c **** #if defined (DMA2)
 246:Drivers/STM32F1xx_HAL_Driver/Src/stm32f1xx_hal_dma.c ****   /* calculation of the channel index */
 247:Drivers/STM32F1xx_HAL_Driver/Src/stm32f1xx_hal_dma.c ****   if ((uint32_t)(hdma->Instance) < (uint32_t)(DMA2_Channel1))
 248:Drivers/STM32F1xx_HAL_Driver/Src/stm32f1xx_hal_dma.c ****   {
 249:Drivers/STM32F1xx_HAL_Driver/Src/stm32f1xx_hal_dma.c ****     /* DMA1 */
 250:Drivers/STM32F1xx_HAL_Driver/Src/stm32f1xx_hal_dma.c ****     hdma->ChannelIndex = (((uint32_t)hdma->Instance - (uint32_t)DMA1_Channel1) / ((uint32_t)DMA1_Ch
 251:Drivers/STM32F1xx_HAL_Driver/Src/stm32f1xx_hal_dma.c ****     hdma->DmaBaseAddress = DMA1;
 252:Drivers/STM32F1xx_HAL_Driver/Src/stm32f1xx_hal_dma.c ****   }
 253:Drivers/STM32F1xx_HAL_Driver/Src/stm32f1xx_hal_dma.c ****   else
 254:Drivers/STM32F1xx_HAL_Driver/Src/stm32f1xx_hal_dma.c ****   {
 255:Drivers/STM32F1xx_HAL_Driver/Src/stm32f1xx_hal_dma.c ****     /* DMA2 */
 256:Drivers/STM32F1xx_HAL_Driver/Src/stm32f1xx_hal_dma.c ****     hdma->ChannelIndex = (((uint32_t)hdma->Instance - (uint32_t)DMA2_Channel1) / ((uint32_t)DMA2_Ch
 257:Drivers/STM32F1xx_HAL_Driver/Src/stm32f1xx_hal_dma.c ****     hdma->DmaBaseAddress = DMA2;
 258:Drivers/STM32F1xx_HAL_Driver/Src/stm32f1xx_hal_dma.c ****   }
 259:Drivers/STM32F1xx_HAL_Driver/Src/stm32f1xx_hal_dma.c **** #else
 260:Drivers/STM32F1xx_HAL_Driver/Src/stm32f1xx_hal_dma.c ****   /* DMA1 */
ARM GAS  C:\Users\begre\AppData\Local\Temp\ccGpVL6f.s 			page 6


 261:Drivers/STM32F1xx_HAL_Driver/Src/stm32f1xx_hal_dma.c ****   hdma->ChannelIndex = (((uint32_t)hdma->Instance - (uint32_t)DMA1_Channel1) / ((uint32_t)DMA1_Chan
 262:Drivers/STM32F1xx_HAL_Driver/Src/stm32f1xx_hal_dma.c ****   hdma->DmaBaseAddress = DMA1;
 263:Drivers/STM32F1xx_HAL_Driver/Src/stm32f1xx_hal_dma.c **** #endif /* DMA2 */
 264:Drivers/STM32F1xx_HAL_Driver/Src/stm32f1xx_hal_dma.c **** 
 265:Drivers/STM32F1xx_HAL_Driver/Src/stm32f1xx_hal_dma.c ****   /* Clear all flags */
 266:Drivers/STM32F1xx_HAL_Driver/Src/stm32f1xx_hal_dma.c ****   hdma->DmaBaseAddress->IFCR = (DMA_ISR_GIF1 << (hdma->ChannelIndex));
 267:Drivers/STM32F1xx_HAL_Driver/Src/stm32f1xx_hal_dma.c **** 
 268:Drivers/STM32F1xx_HAL_Driver/Src/stm32f1xx_hal_dma.c ****   /* Clean all callbacks */
 269:Drivers/STM32F1xx_HAL_Driver/Src/stm32f1xx_hal_dma.c ****   hdma->XferCpltCallback = NULL;
 270:Drivers/STM32F1xx_HAL_Driver/Src/stm32f1xx_hal_dma.c ****   hdma->XferHalfCpltCallback = NULL;
 271:Drivers/STM32F1xx_HAL_Driver/Src/stm32f1xx_hal_dma.c ****   hdma->XferErrorCallback = NULL;
 272:Drivers/STM32F1xx_HAL_Driver/Src/stm32f1xx_hal_dma.c ****   hdma->XferAbortCallback = NULL;
 273:Drivers/STM32F1xx_HAL_Driver/Src/stm32f1xx_hal_dma.c **** 
 274:Drivers/STM32F1xx_HAL_Driver/Src/stm32f1xx_hal_dma.c ****   /* Reset the error code */
 275:Drivers/STM32F1xx_HAL_Driver/Src/stm32f1xx_hal_dma.c ****   hdma->ErrorCode = HAL_DMA_ERROR_NONE;
 276:Drivers/STM32F1xx_HAL_Driver/Src/stm32f1xx_hal_dma.c **** 
 277:Drivers/STM32F1xx_HAL_Driver/Src/stm32f1xx_hal_dma.c ****   /* Reset the DMA state */
 278:Drivers/STM32F1xx_HAL_Driver/Src/stm32f1xx_hal_dma.c ****   hdma->State = HAL_DMA_STATE_RESET;
 279:Drivers/STM32F1xx_HAL_Driver/Src/stm32f1xx_hal_dma.c **** 
 280:Drivers/STM32F1xx_HAL_Driver/Src/stm32f1xx_hal_dma.c ****   /* Release Lock */
 281:Drivers/STM32F1xx_HAL_Driver/Src/stm32f1xx_hal_dma.c ****   __HAL_UNLOCK(hdma);
 282:Drivers/STM32F1xx_HAL_Driver/Src/stm32f1xx_hal_dma.c **** 
 283:Drivers/STM32F1xx_HAL_Driver/Src/stm32f1xx_hal_dma.c ****   return HAL_OK;
 284:Drivers/STM32F1xx_HAL_Driver/Src/stm32f1xx_hal_dma.c **** }
 285:Drivers/STM32F1xx_HAL_Driver/Src/stm32f1xx_hal_dma.c **** 
 286:Drivers/STM32F1xx_HAL_Driver/Src/stm32f1xx_hal_dma.c **** /**
 287:Drivers/STM32F1xx_HAL_Driver/Src/stm32f1xx_hal_dma.c ****   * @}
 288:Drivers/STM32F1xx_HAL_Driver/Src/stm32f1xx_hal_dma.c ****   */
 289:Drivers/STM32F1xx_HAL_Driver/Src/stm32f1xx_hal_dma.c **** 
 290:Drivers/STM32F1xx_HAL_Driver/Src/stm32f1xx_hal_dma.c **** /** @defgroup DMA_Exported_Functions_Group2 Input and Output operation functions
 291:Drivers/STM32F1xx_HAL_Driver/Src/stm32f1xx_hal_dma.c ****   *  @brief   Input and Output operation functions
 292:Drivers/STM32F1xx_HAL_Driver/Src/stm32f1xx_hal_dma.c ****   *
 293:Drivers/STM32F1xx_HAL_Driver/Src/stm32f1xx_hal_dma.c **** @verbatim
 294:Drivers/STM32F1xx_HAL_Driver/Src/stm32f1xx_hal_dma.c ****  ===============================================================================
 295:Drivers/STM32F1xx_HAL_Driver/Src/stm32f1xx_hal_dma.c ****                       #####  IO operation functions  #####
 296:Drivers/STM32F1xx_HAL_Driver/Src/stm32f1xx_hal_dma.c ****  ===============================================================================
 297:Drivers/STM32F1xx_HAL_Driver/Src/stm32f1xx_hal_dma.c ****     [..]  This section provides functions allowing to:
 298:Drivers/STM32F1xx_HAL_Driver/Src/stm32f1xx_hal_dma.c ****       (+) Configure the source, destination address and data length and Start DMA transfer
 299:Drivers/STM32F1xx_HAL_Driver/Src/stm32f1xx_hal_dma.c ****       (+) Configure the source, destination address and data length and
 300:Drivers/STM32F1xx_HAL_Driver/Src/stm32f1xx_hal_dma.c ****           Start DMA transfer with interrupt
 301:Drivers/STM32F1xx_HAL_Driver/Src/stm32f1xx_hal_dma.c ****       (+) Abort DMA transfer
 302:Drivers/STM32F1xx_HAL_Driver/Src/stm32f1xx_hal_dma.c ****       (+) Poll for transfer complete
 303:Drivers/STM32F1xx_HAL_Driver/Src/stm32f1xx_hal_dma.c ****       (+) Handle DMA interrupt request
 304:Drivers/STM32F1xx_HAL_Driver/Src/stm32f1xx_hal_dma.c **** 
 305:Drivers/STM32F1xx_HAL_Driver/Src/stm32f1xx_hal_dma.c **** @endverbatim
 306:Drivers/STM32F1xx_HAL_Driver/Src/stm32f1xx_hal_dma.c ****   * @{
 307:Drivers/STM32F1xx_HAL_Driver/Src/stm32f1xx_hal_dma.c ****   */
 308:Drivers/STM32F1xx_HAL_Driver/Src/stm32f1xx_hal_dma.c **** 
 309:Drivers/STM32F1xx_HAL_Driver/Src/stm32f1xx_hal_dma.c **** /**
 310:Drivers/STM32F1xx_HAL_Driver/Src/stm32f1xx_hal_dma.c ****   * @brief  Start the DMA Transfer.
 311:Drivers/STM32F1xx_HAL_Driver/Src/stm32f1xx_hal_dma.c ****   * @param  hdma: pointer to a DMA_HandleTypeDef structure that contains
 312:Drivers/STM32F1xx_HAL_Driver/Src/stm32f1xx_hal_dma.c ****   *               the configuration information for the specified DMA Channel.
 313:Drivers/STM32F1xx_HAL_Driver/Src/stm32f1xx_hal_dma.c ****   * @param  SrcAddress: The source memory Buffer address
 314:Drivers/STM32F1xx_HAL_Driver/Src/stm32f1xx_hal_dma.c ****   * @param  DstAddress: The destination memory Buffer address
 315:Drivers/STM32F1xx_HAL_Driver/Src/stm32f1xx_hal_dma.c ****   * @param  DataLength: The length of data to be transferred from source to destination
 316:Drivers/STM32F1xx_HAL_Driver/Src/stm32f1xx_hal_dma.c ****   * @retval HAL status
 317:Drivers/STM32F1xx_HAL_Driver/Src/stm32f1xx_hal_dma.c ****   */
ARM GAS  C:\Users\begre\AppData\Local\Temp\ccGpVL6f.s 			page 7


 318:Drivers/STM32F1xx_HAL_Driver/Src/stm32f1xx_hal_dma.c **** HAL_StatusTypeDef HAL_DMA_Start(DMA_HandleTypeDef *hdma, uint32_t SrcAddress, uint32_t DstAddress, 
 319:Drivers/STM32F1xx_HAL_Driver/Src/stm32f1xx_hal_dma.c **** {
 320:Drivers/STM32F1xx_HAL_Driver/Src/stm32f1xx_hal_dma.c ****   HAL_StatusTypeDef status = HAL_OK;
 321:Drivers/STM32F1xx_HAL_Driver/Src/stm32f1xx_hal_dma.c **** 
 322:Drivers/STM32F1xx_HAL_Driver/Src/stm32f1xx_hal_dma.c ****   /* Check the parameters */
 323:Drivers/STM32F1xx_HAL_Driver/Src/stm32f1xx_hal_dma.c ****   assert_param(IS_DMA_BUFFER_SIZE(DataLength));
 324:Drivers/STM32F1xx_HAL_Driver/Src/stm32f1xx_hal_dma.c **** 
 325:Drivers/STM32F1xx_HAL_Driver/Src/stm32f1xx_hal_dma.c ****   /* Process locked */
 326:Drivers/STM32F1xx_HAL_Driver/Src/stm32f1xx_hal_dma.c ****   __HAL_LOCK(hdma);
 327:Drivers/STM32F1xx_HAL_Driver/Src/stm32f1xx_hal_dma.c **** 
 328:Drivers/STM32F1xx_HAL_Driver/Src/stm32f1xx_hal_dma.c ****   if(HAL_DMA_STATE_READY == hdma->State)
 329:Drivers/STM32F1xx_HAL_Driver/Src/stm32f1xx_hal_dma.c ****   {
 330:Drivers/STM32F1xx_HAL_Driver/Src/stm32f1xx_hal_dma.c ****     /* Change DMA peripheral state */
 331:Drivers/STM32F1xx_HAL_Driver/Src/stm32f1xx_hal_dma.c ****     hdma->State = HAL_DMA_STATE_BUSY;
 332:Drivers/STM32F1xx_HAL_Driver/Src/stm32f1xx_hal_dma.c ****     hdma->ErrorCode = HAL_DMA_ERROR_NONE;
 333:Drivers/STM32F1xx_HAL_Driver/Src/stm32f1xx_hal_dma.c ****             
 334:Drivers/STM32F1xx_HAL_Driver/Src/stm32f1xx_hal_dma.c ****     /* Disable the peripheral */
 335:Drivers/STM32F1xx_HAL_Driver/Src/stm32f1xx_hal_dma.c ****     __HAL_DMA_DISABLE(hdma);
 336:Drivers/STM32F1xx_HAL_Driver/Src/stm32f1xx_hal_dma.c ****     
 337:Drivers/STM32F1xx_HAL_Driver/Src/stm32f1xx_hal_dma.c ****     /* Configure the source, destination address and the data length & clear flags*/
 338:Drivers/STM32F1xx_HAL_Driver/Src/stm32f1xx_hal_dma.c ****     DMA_SetConfig(hdma, SrcAddress, DstAddress, DataLength);
 339:Drivers/STM32F1xx_HAL_Driver/Src/stm32f1xx_hal_dma.c ****     
 340:Drivers/STM32F1xx_HAL_Driver/Src/stm32f1xx_hal_dma.c ****     /* Enable the Peripheral */
 341:Drivers/STM32F1xx_HAL_Driver/Src/stm32f1xx_hal_dma.c ****     __HAL_DMA_ENABLE(hdma);
 342:Drivers/STM32F1xx_HAL_Driver/Src/stm32f1xx_hal_dma.c ****   }
 343:Drivers/STM32F1xx_HAL_Driver/Src/stm32f1xx_hal_dma.c ****   else
 344:Drivers/STM32F1xx_HAL_Driver/Src/stm32f1xx_hal_dma.c ****   {
 345:Drivers/STM32F1xx_HAL_Driver/Src/stm32f1xx_hal_dma.c ****    /* Process Unlocked */
 346:Drivers/STM32F1xx_HAL_Driver/Src/stm32f1xx_hal_dma.c ****    __HAL_UNLOCK(hdma);  
 347:Drivers/STM32F1xx_HAL_Driver/Src/stm32f1xx_hal_dma.c ****    status = HAL_BUSY;
 348:Drivers/STM32F1xx_HAL_Driver/Src/stm32f1xx_hal_dma.c ****   }  
 349:Drivers/STM32F1xx_HAL_Driver/Src/stm32f1xx_hal_dma.c ****   return status;
 350:Drivers/STM32F1xx_HAL_Driver/Src/stm32f1xx_hal_dma.c **** }
 351:Drivers/STM32F1xx_HAL_Driver/Src/stm32f1xx_hal_dma.c **** 
 352:Drivers/STM32F1xx_HAL_Driver/Src/stm32f1xx_hal_dma.c **** /**
 353:Drivers/STM32F1xx_HAL_Driver/Src/stm32f1xx_hal_dma.c ****   * @brief  Start the DMA Transfer with interrupt enabled.
 354:Drivers/STM32F1xx_HAL_Driver/Src/stm32f1xx_hal_dma.c ****   * @param  hdma: pointer to a DMA_HandleTypeDef structure that contains
 355:Drivers/STM32F1xx_HAL_Driver/Src/stm32f1xx_hal_dma.c ****   *               the configuration information for the specified DMA Channel.
 356:Drivers/STM32F1xx_HAL_Driver/Src/stm32f1xx_hal_dma.c ****   * @param  SrcAddress: The source memory Buffer address
 357:Drivers/STM32F1xx_HAL_Driver/Src/stm32f1xx_hal_dma.c ****   * @param  DstAddress: The destination memory Buffer address
 358:Drivers/STM32F1xx_HAL_Driver/Src/stm32f1xx_hal_dma.c ****   * @param  DataLength: The length of data to be transferred from source to destination
 359:Drivers/STM32F1xx_HAL_Driver/Src/stm32f1xx_hal_dma.c ****   * @retval HAL status
 360:Drivers/STM32F1xx_HAL_Driver/Src/stm32f1xx_hal_dma.c ****   */
 361:Drivers/STM32F1xx_HAL_Driver/Src/stm32f1xx_hal_dma.c **** HAL_StatusTypeDef HAL_DMA_Start_IT(DMA_HandleTypeDef *hdma, uint32_t SrcAddress, uint32_t DstAddres
 362:Drivers/STM32F1xx_HAL_Driver/Src/stm32f1xx_hal_dma.c **** {
 363:Drivers/STM32F1xx_HAL_Driver/Src/stm32f1xx_hal_dma.c ****   HAL_StatusTypeDef status = HAL_OK;
 364:Drivers/STM32F1xx_HAL_Driver/Src/stm32f1xx_hal_dma.c **** 
 365:Drivers/STM32F1xx_HAL_Driver/Src/stm32f1xx_hal_dma.c ****   /* Check the parameters */
 366:Drivers/STM32F1xx_HAL_Driver/Src/stm32f1xx_hal_dma.c ****   assert_param(IS_DMA_BUFFER_SIZE(DataLength));
 367:Drivers/STM32F1xx_HAL_Driver/Src/stm32f1xx_hal_dma.c **** 
 368:Drivers/STM32F1xx_HAL_Driver/Src/stm32f1xx_hal_dma.c ****   /* Process locked */
 369:Drivers/STM32F1xx_HAL_Driver/Src/stm32f1xx_hal_dma.c ****   __HAL_LOCK(hdma);
 370:Drivers/STM32F1xx_HAL_Driver/Src/stm32f1xx_hal_dma.c ****   
 371:Drivers/STM32F1xx_HAL_Driver/Src/stm32f1xx_hal_dma.c ****   if(HAL_DMA_STATE_READY == hdma->State)
 372:Drivers/STM32F1xx_HAL_Driver/Src/stm32f1xx_hal_dma.c ****   {
 373:Drivers/STM32F1xx_HAL_Driver/Src/stm32f1xx_hal_dma.c ****     /* Change DMA peripheral state */
 374:Drivers/STM32F1xx_HAL_Driver/Src/stm32f1xx_hal_dma.c ****     hdma->State = HAL_DMA_STATE_BUSY;
ARM GAS  C:\Users\begre\AppData\Local\Temp\ccGpVL6f.s 			page 8


 375:Drivers/STM32F1xx_HAL_Driver/Src/stm32f1xx_hal_dma.c ****     hdma->ErrorCode = HAL_DMA_ERROR_NONE;
 376:Drivers/STM32F1xx_HAL_Driver/Src/stm32f1xx_hal_dma.c ****     
 377:Drivers/STM32F1xx_HAL_Driver/Src/stm32f1xx_hal_dma.c ****     /* Disable the peripheral */
 378:Drivers/STM32F1xx_HAL_Driver/Src/stm32f1xx_hal_dma.c ****     __HAL_DMA_DISABLE(hdma);
 379:Drivers/STM32F1xx_HAL_Driver/Src/stm32f1xx_hal_dma.c ****     
 380:Drivers/STM32F1xx_HAL_Driver/Src/stm32f1xx_hal_dma.c ****     /* Configure the source, destination address and the data length & clear flags*/
 381:Drivers/STM32F1xx_HAL_Driver/Src/stm32f1xx_hal_dma.c ****     DMA_SetConfig(hdma, SrcAddress, DstAddress, DataLength);
 382:Drivers/STM32F1xx_HAL_Driver/Src/stm32f1xx_hal_dma.c ****     
 383:Drivers/STM32F1xx_HAL_Driver/Src/stm32f1xx_hal_dma.c ****     /* Enable the transfer complete interrupt */
 384:Drivers/STM32F1xx_HAL_Driver/Src/stm32f1xx_hal_dma.c ****     /* Enable the transfer Error interrupt */
 385:Drivers/STM32F1xx_HAL_Driver/Src/stm32f1xx_hal_dma.c ****     if(NULL != hdma->XferHalfCpltCallback)
 386:Drivers/STM32F1xx_HAL_Driver/Src/stm32f1xx_hal_dma.c ****     {
 387:Drivers/STM32F1xx_HAL_Driver/Src/stm32f1xx_hal_dma.c ****       /* Enable the Half transfer complete interrupt as well */
 388:Drivers/STM32F1xx_HAL_Driver/Src/stm32f1xx_hal_dma.c ****       __HAL_DMA_ENABLE_IT(hdma, (DMA_IT_TC | DMA_IT_HT | DMA_IT_TE));
 389:Drivers/STM32F1xx_HAL_Driver/Src/stm32f1xx_hal_dma.c ****     }
 390:Drivers/STM32F1xx_HAL_Driver/Src/stm32f1xx_hal_dma.c ****     else
 391:Drivers/STM32F1xx_HAL_Driver/Src/stm32f1xx_hal_dma.c ****     {
 392:Drivers/STM32F1xx_HAL_Driver/Src/stm32f1xx_hal_dma.c ****       __HAL_DMA_DISABLE_IT(hdma, DMA_IT_HT);
 393:Drivers/STM32F1xx_HAL_Driver/Src/stm32f1xx_hal_dma.c ****       __HAL_DMA_ENABLE_IT(hdma, (DMA_IT_TC | DMA_IT_TE));
 394:Drivers/STM32F1xx_HAL_Driver/Src/stm32f1xx_hal_dma.c ****     }
 395:Drivers/STM32F1xx_HAL_Driver/Src/stm32f1xx_hal_dma.c ****     /* Enable the Peripheral */
 396:Drivers/STM32F1xx_HAL_Driver/Src/stm32f1xx_hal_dma.c ****     __HAL_DMA_ENABLE(hdma);
 397:Drivers/STM32F1xx_HAL_Driver/Src/stm32f1xx_hal_dma.c ****   }
 398:Drivers/STM32F1xx_HAL_Driver/Src/stm32f1xx_hal_dma.c ****   else
 399:Drivers/STM32F1xx_HAL_Driver/Src/stm32f1xx_hal_dma.c ****   {      
 400:Drivers/STM32F1xx_HAL_Driver/Src/stm32f1xx_hal_dma.c ****     /* Process Unlocked */
 401:Drivers/STM32F1xx_HAL_Driver/Src/stm32f1xx_hal_dma.c ****     __HAL_UNLOCK(hdma); 
 402:Drivers/STM32F1xx_HAL_Driver/Src/stm32f1xx_hal_dma.c **** 
 403:Drivers/STM32F1xx_HAL_Driver/Src/stm32f1xx_hal_dma.c ****     /* Remain BUSY */
 404:Drivers/STM32F1xx_HAL_Driver/Src/stm32f1xx_hal_dma.c ****     status = HAL_BUSY;
 405:Drivers/STM32F1xx_HAL_Driver/Src/stm32f1xx_hal_dma.c ****   }    
 406:Drivers/STM32F1xx_HAL_Driver/Src/stm32f1xx_hal_dma.c ****   return status;
 407:Drivers/STM32F1xx_HAL_Driver/Src/stm32f1xx_hal_dma.c **** }
 408:Drivers/STM32F1xx_HAL_Driver/Src/stm32f1xx_hal_dma.c **** 
 409:Drivers/STM32F1xx_HAL_Driver/Src/stm32f1xx_hal_dma.c **** /**
 410:Drivers/STM32F1xx_HAL_Driver/Src/stm32f1xx_hal_dma.c ****   * @brief  Abort the DMA Transfer.
 411:Drivers/STM32F1xx_HAL_Driver/Src/stm32f1xx_hal_dma.c ****   * @param  hdma: pointer to a DMA_HandleTypeDef structure that contains
 412:Drivers/STM32F1xx_HAL_Driver/Src/stm32f1xx_hal_dma.c ****   *               the configuration information for the specified DMA Channel.
 413:Drivers/STM32F1xx_HAL_Driver/Src/stm32f1xx_hal_dma.c ****   * @retval HAL status
 414:Drivers/STM32F1xx_HAL_Driver/Src/stm32f1xx_hal_dma.c ****   */
 415:Drivers/STM32F1xx_HAL_Driver/Src/stm32f1xx_hal_dma.c **** HAL_StatusTypeDef HAL_DMA_Abort(DMA_HandleTypeDef *hdma)
 416:Drivers/STM32F1xx_HAL_Driver/Src/stm32f1xx_hal_dma.c **** {
 417:Drivers/STM32F1xx_HAL_Driver/Src/stm32f1xx_hal_dma.c ****   HAL_StatusTypeDef status = HAL_OK;
 418:Drivers/STM32F1xx_HAL_Driver/Src/stm32f1xx_hal_dma.c ****   
 419:Drivers/STM32F1xx_HAL_Driver/Src/stm32f1xx_hal_dma.c ****   if(hdma->State != HAL_DMA_STATE_BUSY)
 420:Drivers/STM32F1xx_HAL_Driver/Src/stm32f1xx_hal_dma.c ****   {
 421:Drivers/STM32F1xx_HAL_Driver/Src/stm32f1xx_hal_dma.c ****     /* no transfer ongoing */
 422:Drivers/STM32F1xx_HAL_Driver/Src/stm32f1xx_hal_dma.c ****     hdma->ErrorCode = HAL_DMA_ERROR_NO_XFER;
 423:Drivers/STM32F1xx_HAL_Driver/Src/stm32f1xx_hal_dma.c ****     
 424:Drivers/STM32F1xx_HAL_Driver/Src/stm32f1xx_hal_dma.c ****     /* Process Unlocked */
 425:Drivers/STM32F1xx_HAL_Driver/Src/stm32f1xx_hal_dma.c ****     __HAL_UNLOCK(hdma);
 426:Drivers/STM32F1xx_HAL_Driver/Src/stm32f1xx_hal_dma.c ****     
 427:Drivers/STM32F1xx_HAL_Driver/Src/stm32f1xx_hal_dma.c ****     return HAL_ERROR;
 428:Drivers/STM32F1xx_HAL_Driver/Src/stm32f1xx_hal_dma.c ****   }
 429:Drivers/STM32F1xx_HAL_Driver/Src/stm32f1xx_hal_dma.c ****   else
 430:Drivers/STM32F1xx_HAL_Driver/Src/stm32f1xx_hal_dma.c **** 
 431:Drivers/STM32F1xx_HAL_Driver/Src/stm32f1xx_hal_dma.c ****   {
ARM GAS  C:\Users\begre\AppData\Local\Temp\ccGpVL6f.s 			page 9


 432:Drivers/STM32F1xx_HAL_Driver/Src/stm32f1xx_hal_dma.c ****     /* Disable DMA IT */
 433:Drivers/STM32F1xx_HAL_Driver/Src/stm32f1xx_hal_dma.c ****     __HAL_DMA_DISABLE_IT(hdma, (DMA_IT_TC | DMA_IT_HT | DMA_IT_TE));
 434:Drivers/STM32F1xx_HAL_Driver/Src/stm32f1xx_hal_dma.c ****       
 435:Drivers/STM32F1xx_HAL_Driver/Src/stm32f1xx_hal_dma.c ****     /* Disable the channel */
 436:Drivers/STM32F1xx_HAL_Driver/Src/stm32f1xx_hal_dma.c ****     __HAL_DMA_DISABLE(hdma);
 437:Drivers/STM32F1xx_HAL_Driver/Src/stm32f1xx_hal_dma.c ****       
 438:Drivers/STM32F1xx_HAL_Driver/Src/stm32f1xx_hal_dma.c ****     /* Clear all flags */
 439:Drivers/STM32F1xx_HAL_Driver/Src/stm32f1xx_hal_dma.c ****     hdma->DmaBaseAddress->IFCR = (DMA_ISR_GIF1 << hdma->ChannelIndex);
 440:Drivers/STM32F1xx_HAL_Driver/Src/stm32f1xx_hal_dma.c ****   }
 441:Drivers/STM32F1xx_HAL_Driver/Src/stm32f1xx_hal_dma.c ****   /* Change the DMA state */
 442:Drivers/STM32F1xx_HAL_Driver/Src/stm32f1xx_hal_dma.c ****   hdma->State = HAL_DMA_STATE_READY;
 443:Drivers/STM32F1xx_HAL_Driver/Src/stm32f1xx_hal_dma.c **** 
 444:Drivers/STM32F1xx_HAL_Driver/Src/stm32f1xx_hal_dma.c ****   /* Process Unlocked */
 445:Drivers/STM32F1xx_HAL_Driver/Src/stm32f1xx_hal_dma.c ****   __HAL_UNLOCK(hdma);      
 446:Drivers/STM32F1xx_HAL_Driver/Src/stm32f1xx_hal_dma.c ****   
 447:Drivers/STM32F1xx_HAL_Driver/Src/stm32f1xx_hal_dma.c ****   return status; 
 448:Drivers/STM32F1xx_HAL_Driver/Src/stm32f1xx_hal_dma.c **** }
 449:Drivers/STM32F1xx_HAL_Driver/Src/stm32f1xx_hal_dma.c **** 
 450:Drivers/STM32F1xx_HAL_Driver/Src/stm32f1xx_hal_dma.c **** /**
 451:Drivers/STM32F1xx_HAL_Driver/Src/stm32f1xx_hal_dma.c ****   * @brief  Aborts the DMA Transfer in Interrupt mode.
 452:Drivers/STM32F1xx_HAL_Driver/Src/stm32f1xx_hal_dma.c ****   * @param  hdma  : pointer to a DMA_HandleTypeDef structure that contains
 453:Drivers/STM32F1xx_HAL_Driver/Src/stm32f1xx_hal_dma.c ****   *                 the configuration information for the specified DMA Channel.
 454:Drivers/STM32F1xx_HAL_Driver/Src/stm32f1xx_hal_dma.c ****   * @retval HAL status
 455:Drivers/STM32F1xx_HAL_Driver/Src/stm32f1xx_hal_dma.c ****   */
 456:Drivers/STM32F1xx_HAL_Driver/Src/stm32f1xx_hal_dma.c **** HAL_StatusTypeDef HAL_DMA_Abort_IT(DMA_HandleTypeDef *hdma)
 457:Drivers/STM32F1xx_HAL_Driver/Src/stm32f1xx_hal_dma.c **** {  
 458:Drivers/STM32F1xx_HAL_Driver/Src/stm32f1xx_hal_dma.c ****   HAL_StatusTypeDef status = HAL_OK;
 459:Drivers/STM32F1xx_HAL_Driver/Src/stm32f1xx_hal_dma.c ****   
 460:Drivers/STM32F1xx_HAL_Driver/Src/stm32f1xx_hal_dma.c ****   if(HAL_DMA_STATE_BUSY != hdma->State)
 461:Drivers/STM32F1xx_HAL_Driver/Src/stm32f1xx_hal_dma.c ****   {
 462:Drivers/STM32F1xx_HAL_Driver/Src/stm32f1xx_hal_dma.c ****     /* no transfer ongoing */
 463:Drivers/STM32F1xx_HAL_Driver/Src/stm32f1xx_hal_dma.c ****     hdma->ErrorCode = HAL_DMA_ERROR_NO_XFER;
 464:Drivers/STM32F1xx_HAL_Driver/Src/stm32f1xx_hal_dma.c ****         
 465:Drivers/STM32F1xx_HAL_Driver/Src/stm32f1xx_hal_dma.c ****     status = HAL_ERROR;
 466:Drivers/STM32F1xx_HAL_Driver/Src/stm32f1xx_hal_dma.c ****   }
 467:Drivers/STM32F1xx_HAL_Driver/Src/stm32f1xx_hal_dma.c ****   else
 468:Drivers/STM32F1xx_HAL_Driver/Src/stm32f1xx_hal_dma.c ****   { 
 469:Drivers/STM32F1xx_HAL_Driver/Src/stm32f1xx_hal_dma.c ****     /* Disable DMA IT */
 470:Drivers/STM32F1xx_HAL_Driver/Src/stm32f1xx_hal_dma.c ****     __HAL_DMA_DISABLE_IT(hdma, (DMA_IT_TC | DMA_IT_HT | DMA_IT_TE));
 471:Drivers/STM32F1xx_HAL_Driver/Src/stm32f1xx_hal_dma.c **** 
 472:Drivers/STM32F1xx_HAL_Driver/Src/stm32f1xx_hal_dma.c ****     /* Disable the channel */
 473:Drivers/STM32F1xx_HAL_Driver/Src/stm32f1xx_hal_dma.c ****     __HAL_DMA_DISABLE(hdma);
 474:Drivers/STM32F1xx_HAL_Driver/Src/stm32f1xx_hal_dma.c **** 
 475:Drivers/STM32F1xx_HAL_Driver/Src/stm32f1xx_hal_dma.c ****     /* Clear all flags */
 476:Drivers/STM32F1xx_HAL_Driver/Src/stm32f1xx_hal_dma.c ****     __HAL_DMA_CLEAR_FLAG(hdma, __HAL_DMA_GET_GI_FLAG_INDEX(hdma));
 477:Drivers/STM32F1xx_HAL_Driver/Src/stm32f1xx_hal_dma.c **** 
 478:Drivers/STM32F1xx_HAL_Driver/Src/stm32f1xx_hal_dma.c ****     /* Change the DMA state */
 479:Drivers/STM32F1xx_HAL_Driver/Src/stm32f1xx_hal_dma.c ****     hdma->State = HAL_DMA_STATE_READY;
 480:Drivers/STM32F1xx_HAL_Driver/Src/stm32f1xx_hal_dma.c **** 
 481:Drivers/STM32F1xx_HAL_Driver/Src/stm32f1xx_hal_dma.c ****     /* Process Unlocked */
 482:Drivers/STM32F1xx_HAL_Driver/Src/stm32f1xx_hal_dma.c ****     __HAL_UNLOCK(hdma);
 483:Drivers/STM32F1xx_HAL_Driver/Src/stm32f1xx_hal_dma.c **** 
 484:Drivers/STM32F1xx_HAL_Driver/Src/stm32f1xx_hal_dma.c ****     /* Call User Abort callback */
 485:Drivers/STM32F1xx_HAL_Driver/Src/stm32f1xx_hal_dma.c ****     if(hdma->XferAbortCallback != NULL)
 486:Drivers/STM32F1xx_HAL_Driver/Src/stm32f1xx_hal_dma.c ****     {
 487:Drivers/STM32F1xx_HAL_Driver/Src/stm32f1xx_hal_dma.c ****       hdma->XferAbortCallback(hdma);
 488:Drivers/STM32F1xx_HAL_Driver/Src/stm32f1xx_hal_dma.c ****     } 
ARM GAS  C:\Users\begre\AppData\Local\Temp\ccGpVL6f.s 			page 10


 489:Drivers/STM32F1xx_HAL_Driver/Src/stm32f1xx_hal_dma.c ****   }
 490:Drivers/STM32F1xx_HAL_Driver/Src/stm32f1xx_hal_dma.c ****   return status;
 491:Drivers/STM32F1xx_HAL_Driver/Src/stm32f1xx_hal_dma.c **** }
 492:Drivers/STM32F1xx_HAL_Driver/Src/stm32f1xx_hal_dma.c **** 
 493:Drivers/STM32F1xx_HAL_Driver/Src/stm32f1xx_hal_dma.c **** /**
 494:Drivers/STM32F1xx_HAL_Driver/Src/stm32f1xx_hal_dma.c ****   * @brief  Polling for transfer complete.
 495:Drivers/STM32F1xx_HAL_Driver/Src/stm32f1xx_hal_dma.c ****   * @param  hdma:    pointer to a DMA_HandleTypeDef structure that contains
 496:Drivers/STM32F1xx_HAL_Driver/Src/stm32f1xx_hal_dma.c ****   *                  the configuration information for the specified DMA Channel.
 497:Drivers/STM32F1xx_HAL_Driver/Src/stm32f1xx_hal_dma.c ****   * @param  CompleteLevel: Specifies the DMA level complete.
 498:Drivers/STM32F1xx_HAL_Driver/Src/stm32f1xx_hal_dma.c ****   * @param  Timeout:       Timeout duration.
 499:Drivers/STM32F1xx_HAL_Driver/Src/stm32f1xx_hal_dma.c ****   * @retval HAL status
 500:Drivers/STM32F1xx_HAL_Driver/Src/stm32f1xx_hal_dma.c ****   */
 501:Drivers/STM32F1xx_HAL_Driver/Src/stm32f1xx_hal_dma.c **** HAL_StatusTypeDef HAL_DMA_PollForTransfer(DMA_HandleTypeDef *hdma, uint32_t CompleteLevel, uint32_t
 502:Drivers/STM32F1xx_HAL_Driver/Src/stm32f1xx_hal_dma.c **** {
 503:Drivers/STM32F1xx_HAL_Driver/Src/stm32f1xx_hal_dma.c ****   uint32_t temp;
 504:Drivers/STM32F1xx_HAL_Driver/Src/stm32f1xx_hal_dma.c ****   uint32_t tickstart = 0U;
 505:Drivers/STM32F1xx_HAL_Driver/Src/stm32f1xx_hal_dma.c **** 
 506:Drivers/STM32F1xx_HAL_Driver/Src/stm32f1xx_hal_dma.c ****   if(HAL_DMA_STATE_BUSY != hdma->State)
 507:Drivers/STM32F1xx_HAL_Driver/Src/stm32f1xx_hal_dma.c ****   {
 508:Drivers/STM32F1xx_HAL_Driver/Src/stm32f1xx_hal_dma.c ****     /* no transfer ongoing */
 509:Drivers/STM32F1xx_HAL_Driver/Src/stm32f1xx_hal_dma.c ****     hdma->ErrorCode = HAL_DMA_ERROR_NO_XFER;
 510:Drivers/STM32F1xx_HAL_Driver/Src/stm32f1xx_hal_dma.c ****     __HAL_UNLOCK(hdma);
 511:Drivers/STM32F1xx_HAL_Driver/Src/stm32f1xx_hal_dma.c ****     return HAL_ERROR;
 512:Drivers/STM32F1xx_HAL_Driver/Src/stm32f1xx_hal_dma.c ****   }
 513:Drivers/STM32F1xx_HAL_Driver/Src/stm32f1xx_hal_dma.c **** 
 514:Drivers/STM32F1xx_HAL_Driver/Src/stm32f1xx_hal_dma.c ****   /* Polling mode not supported in circular mode */
 515:Drivers/STM32F1xx_HAL_Driver/Src/stm32f1xx_hal_dma.c ****   if (RESET != (hdma->Instance->CCR & DMA_CCR_CIRC))
 516:Drivers/STM32F1xx_HAL_Driver/Src/stm32f1xx_hal_dma.c ****   {
 517:Drivers/STM32F1xx_HAL_Driver/Src/stm32f1xx_hal_dma.c ****     hdma->ErrorCode = HAL_DMA_ERROR_NOT_SUPPORTED;
 518:Drivers/STM32F1xx_HAL_Driver/Src/stm32f1xx_hal_dma.c ****     return HAL_ERROR;
 519:Drivers/STM32F1xx_HAL_Driver/Src/stm32f1xx_hal_dma.c ****   }
 520:Drivers/STM32F1xx_HAL_Driver/Src/stm32f1xx_hal_dma.c ****   
 521:Drivers/STM32F1xx_HAL_Driver/Src/stm32f1xx_hal_dma.c ****   /* Get the level transfer complete flag */
 522:Drivers/STM32F1xx_HAL_Driver/Src/stm32f1xx_hal_dma.c ****   if(CompleteLevel == HAL_DMA_FULL_TRANSFER)
 523:Drivers/STM32F1xx_HAL_Driver/Src/stm32f1xx_hal_dma.c ****   {
 524:Drivers/STM32F1xx_HAL_Driver/Src/stm32f1xx_hal_dma.c ****     /* Transfer Complete flag */
 525:Drivers/STM32F1xx_HAL_Driver/Src/stm32f1xx_hal_dma.c ****     temp = __HAL_DMA_GET_TC_FLAG_INDEX(hdma);
 526:Drivers/STM32F1xx_HAL_Driver/Src/stm32f1xx_hal_dma.c ****   }
 527:Drivers/STM32F1xx_HAL_Driver/Src/stm32f1xx_hal_dma.c ****   else
 528:Drivers/STM32F1xx_HAL_Driver/Src/stm32f1xx_hal_dma.c ****   {
 529:Drivers/STM32F1xx_HAL_Driver/Src/stm32f1xx_hal_dma.c ****     /* Half Transfer Complete flag */
 530:Drivers/STM32F1xx_HAL_Driver/Src/stm32f1xx_hal_dma.c ****     temp = __HAL_DMA_GET_HT_FLAG_INDEX(hdma);
 531:Drivers/STM32F1xx_HAL_Driver/Src/stm32f1xx_hal_dma.c ****   }
 532:Drivers/STM32F1xx_HAL_Driver/Src/stm32f1xx_hal_dma.c **** 
 533:Drivers/STM32F1xx_HAL_Driver/Src/stm32f1xx_hal_dma.c ****   /* Get tick */
 534:Drivers/STM32F1xx_HAL_Driver/Src/stm32f1xx_hal_dma.c ****   tickstart = HAL_GetTick();
 535:Drivers/STM32F1xx_HAL_Driver/Src/stm32f1xx_hal_dma.c **** 
 536:Drivers/STM32F1xx_HAL_Driver/Src/stm32f1xx_hal_dma.c ****   while(__HAL_DMA_GET_FLAG(hdma, temp) == RESET)
 537:Drivers/STM32F1xx_HAL_Driver/Src/stm32f1xx_hal_dma.c ****   {
 538:Drivers/STM32F1xx_HAL_Driver/Src/stm32f1xx_hal_dma.c ****     if((__HAL_DMA_GET_FLAG(hdma, __HAL_DMA_GET_TE_FLAG_INDEX(hdma)) != RESET))
 539:Drivers/STM32F1xx_HAL_Driver/Src/stm32f1xx_hal_dma.c ****     {
 540:Drivers/STM32F1xx_HAL_Driver/Src/stm32f1xx_hal_dma.c ****       /* When a DMA transfer error occurs */
 541:Drivers/STM32F1xx_HAL_Driver/Src/stm32f1xx_hal_dma.c ****       /* A hardware clear of its EN bits is performed */
 542:Drivers/STM32F1xx_HAL_Driver/Src/stm32f1xx_hal_dma.c ****       /* Clear all flags */
 543:Drivers/STM32F1xx_HAL_Driver/Src/stm32f1xx_hal_dma.c ****       hdma->DmaBaseAddress->IFCR = (DMA_ISR_GIF1 << hdma->ChannelIndex);
 544:Drivers/STM32F1xx_HAL_Driver/Src/stm32f1xx_hal_dma.c **** 
 545:Drivers/STM32F1xx_HAL_Driver/Src/stm32f1xx_hal_dma.c ****       /* Update error code */
ARM GAS  C:\Users\begre\AppData\Local\Temp\ccGpVL6f.s 			page 11


 546:Drivers/STM32F1xx_HAL_Driver/Src/stm32f1xx_hal_dma.c ****       SET_BIT(hdma->ErrorCode, HAL_DMA_ERROR_TE);
 547:Drivers/STM32F1xx_HAL_Driver/Src/stm32f1xx_hal_dma.c **** 
 548:Drivers/STM32F1xx_HAL_Driver/Src/stm32f1xx_hal_dma.c ****       /* Change the DMA state */
 549:Drivers/STM32F1xx_HAL_Driver/Src/stm32f1xx_hal_dma.c ****       hdma->State= HAL_DMA_STATE_READY;
 550:Drivers/STM32F1xx_HAL_Driver/Src/stm32f1xx_hal_dma.c **** 
 551:Drivers/STM32F1xx_HAL_Driver/Src/stm32f1xx_hal_dma.c ****       /* Process Unlocked */
 552:Drivers/STM32F1xx_HAL_Driver/Src/stm32f1xx_hal_dma.c ****       __HAL_UNLOCK(hdma);
 553:Drivers/STM32F1xx_HAL_Driver/Src/stm32f1xx_hal_dma.c **** 
 554:Drivers/STM32F1xx_HAL_Driver/Src/stm32f1xx_hal_dma.c ****       return HAL_ERROR;
 555:Drivers/STM32F1xx_HAL_Driver/Src/stm32f1xx_hal_dma.c ****     }
 556:Drivers/STM32F1xx_HAL_Driver/Src/stm32f1xx_hal_dma.c ****     /* Check for the Timeout */
 557:Drivers/STM32F1xx_HAL_Driver/Src/stm32f1xx_hal_dma.c ****     if(Timeout != HAL_MAX_DELAY)
 558:Drivers/STM32F1xx_HAL_Driver/Src/stm32f1xx_hal_dma.c ****     {
 559:Drivers/STM32F1xx_HAL_Driver/Src/stm32f1xx_hal_dma.c ****       if((Timeout == 0U) || ((HAL_GetTick() - tickstart) > Timeout))
 560:Drivers/STM32F1xx_HAL_Driver/Src/stm32f1xx_hal_dma.c ****       {
 561:Drivers/STM32F1xx_HAL_Driver/Src/stm32f1xx_hal_dma.c ****         /* Update error code */
 562:Drivers/STM32F1xx_HAL_Driver/Src/stm32f1xx_hal_dma.c ****         SET_BIT(hdma->ErrorCode, HAL_DMA_ERROR_TIMEOUT);
 563:Drivers/STM32F1xx_HAL_Driver/Src/stm32f1xx_hal_dma.c **** 
 564:Drivers/STM32F1xx_HAL_Driver/Src/stm32f1xx_hal_dma.c ****         /* Change the DMA state */
 565:Drivers/STM32F1xx_HAL_Driver/Src/stm32f1xx_hal_dma.c ****         hdma->State = HAL_DMA_STATE_READY;
 566:Drivers/STM32F1xx_HAL_Driver/Src/stm32f1xx_hal_dma.c **** 
 567:Drivers/STM32F1xx_HAL_Driver/Src/stm32f1xx_hal_dma.c ****         /* Process Unlocked */
 568:Drivers/STM32F1xx_HAL_Driver/Src/stm32f1xx_hal_dma.c ****         __HAL_UNLOCK(hdma);
 569:Drivers/STM32F1xx_HAL_Driver/Src/stm32f1xx_hal_dma.c **** 
 570:Drivers/STM32F1xx_HAL_Driver/Src/stm32f1xx_hal_dma.c ****         return HAL_ERROR;
 571:Drivers/STM32F1xx_HAL_Driver/Src/stm32f1xx_hal_dma.c ****       }
 572:Drivers/STM32F1xx_HAL_Driver/Src/stm32f1xx_hal_dma.c ****     }
 573:Drivers/STM32F1xx_HAL_Driver/Src/stm32f1xx_hal_dma.c ****   }
 574:Drivers/STM32F1xx_HAL_Driver/Src/stm32f1xx_hal_dma.c **** 
 575:Drivers/STM32F1xx_HAL_Driver/Src/stm32f1xx_hal_dma.c ****   if(CompleteLevel == HAL_DMA_FULL_TRANSFER)
 576:Drivers/STM32F1xx_HAL_Driver/Src/stm32f1xx_hal_dma.c ****   {
 577:Drivers/STM32F1xx_HAL_Driver/Src/stm32f1xx_hal_dma.c ****     /* Clear the transfer complete flag */
 578:Drivers/STM32F1xx_HAL_Driver/Src/stm32f1xx_hal_dma.c ****     __HAL_DMA_CLEAR_FLAG(hdma, __HAL_DMA_GET_TC_FLAG_INDEX(hdma));
 579:Drivers/STM32F1xx_HAL_Driver/Src/stm32f1xx_hal_dma.c **** 
 580:Drivers/STM32F1xx_HAL_Driver/Src/stm32f1xx_hal_dma.c ****     /* The selected Channelx EN bit is cleared (DMA is disabled and
 581:Drivers/STM32F1xx_HAL_Driver/Src/stm32f1xx_hal_dma.c ****     all transfers are complete) */
 582:Drivers/STM32F1xx_HAL_Driver/Src/stm32f1xx_hal_dma.c ****     hdma->State = HAL_DMA_STATE_READY;
 583:Drivers/STM32F1xx_HAL_Driver/Src/stm32f1xx_hal_dma.c ****   }
 584:Drivers/STM32F1xx_HAL_Driver/Src/stm32f1xx_hal_dma.c ****   else
 585:Drivers/STM32F1xx_HAL_Driver/Src/stm32f1xx_hal_dma.c ****   {
 586:Drivers/STM32F1xx_HAL_Driver/Src/stm32f1xx_hal_dma.c ****     /* Clear the half transfer complete flag */
 587:Drivers/STM32F1xx_HAL_Driver/Src/stm32f1xx_hal_dma.c ****     __HAL_DMA_CLEAR_FLAG(hdma, __HAL_DMA_GET_HT_FLAG_INDEX(hdma));
 588:Drivers/STM32F1xx_HAL_Driver/Src/stm32f1xx_hal_dma.c ****   }
 589:Drivers/STM32F1xx_HAL_Driver/Src/stm32f1xx_hal_dma.c ****   
 590:Drivers/STM32F1xx_HAL_Driver/Src/stm32f1xx_hal_dma.c ****   /* Process unlocked */
 591:Drivers/STM32F1xx_HAL_Driver/Src/stm32f1xx_hal_dma.c ****   __HAL_UNLOCK(hdma);
 592:Drivers/STM32F1xx_HAL_Driver/Src/stm32f1xx_hal_dma.c **** 
 593:Drivers/STM32F1xx_HAL_Driver/Src/stm32f1xx_hal_dma.c ****   return HAL_OK;
 594:Drivers/STM32F1xx_HAL_Driver/Src/stm32f1xx_hal_dma.c **** }
 595:Drivers/STM32F1xx_HAL_Driver/Src/stm32f1xx_hal_dma.c **** 
 596:Drivers/STM32F1xx_HAL_Driver/Src/stm32f1xx_hal_dma.c **** /**
 597:Drivers/STM32F1xx_HAL_Driver/Src/stm32f1xx_hal_dma.c ****   * @brief  Handles DMA interrupt request.
 598:Drivers/STM32F1xx_HAL_Driver/Src/stm32f1xx_hal_dma.c ****   * @param  hdma: pointer to a DMA_HandleTypeDef structure that contains
 599:Drivers/STM32F1xx_HAL_Driver/Src/stm32f1xx_hal_dma.c ****   *               the configuration information for the specified DMA Channel.  
 600:Drivers/STM32F1xx_HAL_Driver/Src/stm32f1xx_hal_dma.c ****   * @retval None
 601:Drivers/STM32F1xx_HAL_Driver/Src/stm32f1xx_hal_dma.c ****   */
 602:Drivers/STM32F1xx_HAL_Driver/Src/stm32f1xx_hal_dma.c **** void HAL_DMA_IRQHandler(DMA_HandleTypeDef *hdma)
ARM GAS  C:\Users\begre\AppData\Local\Temp\ccGpVL6f.s 			page 12


 603:Drivers/STM32F1xx_HAL_Driver/Src/stm32f1xx_hal_dma.c **** {
 604:Drivers/STM32F1xx_HAL_Driver/Src/stm32f1xx_hal_dma.c ****   uint32_t flag_it = hdma->DmaBaseAddress->ISR;
 605:Drivers/STM32F1xx_HAL_Driver/Src/stm32f1xx_hal_dma.c ****   uint32_t source_it = hdma->Instance->CCR;
 606:Drivers/STM32F1xx_HAL_Driver/Src/stm32f1xx_hal_dma.c ****   
 607:Drivers/STM32F1xx_HAL_Driver/Src/stm32f1xx_hal_dma.c ****   /* Half Transfer Complete Interrupt management ******************************/
 608:Drivers/STM32F1xx_HAL_Driver/Src/stm32f1xx_hal_dma.c ****   if (((flag_it & (DMA_FLAG_HT1 << hdma->ChannelIndex)) != RESET) && ((source_it & DMA_IT_HT) != RE
 609:Drivers/STM32F1xx_HAL_Driver/Src/stm32f1xx_hal_dma.c ****   {
 610:Drivers/STM32F1xx_HAL_Driver/Src/stm32f1xx_hal_dma.c ****     /* Disable the half transfer interrupt if the DMA mode is not CIRCULAR */
 611:Drivers/STM32F1xx_HAL_Driver/Src/stm32f1xx_hal_dma.c ****     if((hdma->Instance->CCR & DMA_CCR_CIRC) == 0U)
 612:Drivers/STM32F1xx_HAL_Driver/Src/stm32f1xx_hal_dma.c ****     {
 613:Drivers/STM32F1xx_HAL_Driver/Src/stm32f1xx_hal_dma.c ****       /* Disable the half transfer interrupt */
 614:Drivers/STM32F1xx_HAL_Driver/Src/stm32f1xx_hal_dma.c ****       __HAL_DMA_DISABLE_IT(hdma, DMA_IT_HT);
 615:Drivers/STM32F1xx_HAL_Driver/Src/stm32f1xx_hal_dma.c ****     }
 616:Drivers/STM32F1xx_HAL_Driver/Src/stm32f1xx_hal_dma.c ****     /* Clear the half transfer complete flag */
 617:Drivers/STM32F1xx_HAL_Driver/Src/stm32f1xx_hal_dma.c ****     __HAL_DMA_CLEAR_FLAG(hdma, __HAL_DMA_GET_HT_FLAG_INDEX(hdma));
 618:Drivers/STM32F1xx_HAL_Driver/Src/stm32f1xx_hal_dma.c **** 
 619:Drivers/STM32F1xx_HAL_Driver/Src/stm32f1xx_hal_dma.c ****     /* DMA peripheral state is not updated in Half Transfer */
 620:Drivers/STM32F1xx_HAL_Driver/Src/stm32f1xx_hal_dma.c ****     /* but in Transfer Complete case */
 621:Drivers/STM32F1xx_HAL_Driver/Src/stm32f1xx_hal_dma.c **** 
 622:Drivers/STM32F1xx_HAL_Driver/Src/stm32f1xx_hal_dma.c ****     if(hdma->XferHalfCpltCallback != NULL)
 623:Drivers/STM32F1xx_HAL_Driver/Src/stm32f1xx_hal_dma.c ****     {
 624:Drivers/STM32F1xx_HAL_Driver/Src/stm32f1xx_hal_dma.c ****       /* Half transfer callback */
 625:Drivers/STM32F1xx_HAL_Driver/Src/stm32f1xx_hal_dma.c ****       hdma->XferHalfCpltCallback(hdma);
 626:Drivers/STM32F1xx_HAL_Driver/Src/stm32f1xx_hal_dma.c ****     }
 627:Drivers/STM32F1xx_HAL_Driver/Src/stm32f1xx_hal_dma.c ****   }
 628:Drivers/STM32F1xx_HAL_Driver/Src/stm32f1xx_hal_dma.c **** 
 629:Drivers/STM32F1xx_HAL_Driver/Src/stm32f1xx_hal_dma.c ****   /* Transfer Complete Interrupt management ***********************************/
 630:Drivers/STM32F1xx_HAL_Driver/Src/stm32f1xx_hal_dma.c ****   else if (((flag_it & (DMA_FLAG_TC1 << hdma->ChannelIndex)) != RESET) && ((source_it & DMA_IT_TC) 
 631:Drivers/STM32F1xx_HAL_Driver/Src/stm32f1xx_hal_dma.c ****   {
 632:Drivers/STM32F1xx_HAL_Driver/Src/stm32f1xx_hal_dma.c ****     if((hdma->Instance->CCR & DMA_CCR_CIRC) == 0U)
 633:Drivers/STM32F1xx_HAL_Driver/Src/stm32f1xx_hal_dma.c ****     {
 634:Drivers/STM32F1xx_HAL_Driver/Src/stm32f1xx_hal_dma.c ****       /* Disable the transfer complete and error interrupt */
 635:Drivers/STM32F1xx_HAL_Driver/Src/stm32f1xx_hal_dma.c ****       __HAL_DMA_DISABLE_IT(hdma, DMA_IT_TE | DMA_IT_TC);  
 636:Drivers/STM32F1xx_HAL_Driver/Src/stm32f1xx_hal_dma.c **** 
 637:Drivers/STM32F1xx_HAL_Driver/Src/stm32f1xx_hal_dma.c ****       /* Change the DMA state */
 638:Drivers/STM32F1xx_HAL_Driver/Src/stm32f1xx_hal_dma.c ****       hdma->State = HAL_DMA_STATE_READY;
 639:Drivers/STM32F1xx_HAL_Driver/Src/stm32f1xx_hal_dma.c ****     }
 640:Drivers/STM32F1xx_HAL_Driver/Src/stm32f1xx_hal_dma.c ****     /* Clear the transfer complete flag */
 641:Drivers/STM32F1xx_HAL_Driver/Src/stm32f1xx_hal_dma.c ****       __HAL_DMA_CLEAR_FLAG(hdma, __HAL_DMA_GET_TC_FLAG_INDEX(hdma));
 642:Drivers/STM32F1xx_HAL_Driver/Src/stm32f1xx_hal_dma.c **** 
 643:Drivers/STM32F1xx_HAL_Driver/Src/stm32f1xx_hal_dma.c ****     /* Process Unlocked */
 644:Drivers/STM32F1xx_HAL_Driver/Src/stm32f1xx_hal_dma.c ****     __HAL_UNLOCK(hdma);
 645:Drivers/STM32F1xx_HAL_Driver/Src/stm32f1xx_hal_dma.c **** 
 646:Drivers/STM32F1xx_HAL_Driver/Src/stm32f1xx_hal_dma.c ****     if(hdma->XferCpltCallback != NULL)
 647:Drivers/STM32F1xx_HAL_Driver/Src/stm32f1xx_hal_dma.c ****     {
 648:Drivers/STM32F1xx_HAL_Driver/Src/stm32f1xx_hal_dma.c ****       /* Transfer complete callback */
 649:Drivers/STM32F1xx_HAL_Driver/Src/stm32f1xx_hal_dma.c ****       hdma->XferCpltCallback(hdma);
 650:Drivers/STM32F1xx_HAL_Driver/Src/stm32f1xx_hal_dma.c ****     }
 651:Drivers/STM32F1xx_HAL_Driver/Src/stm32f1xx_hal_dma.c ****   }
 652:Drivers/STM32F1xx_HAL_Driver/Src/stm32f1xx_hal_dma.c **** 
 653:Drivers/STM32F1xx_HAL_Driver/Src/stm32f1xx_hal_dma.c ****   /* Transfer Error Interrupt management **************************************/
 654:Drivers/STM32F1xx_HAL_Driver/Src/stm32f1xx_hal_dma.c ****   else if (( RESET != (flag_it & (DMA_FLAG_TE1 << hdma->ChannelIndex))) && (RESET != (source_it & D
 655:Drivers/STM32F1xx_HAL_Driver/Src/stm32f1xx_hal_dma.c ****   {
 656:Drivers/STM32F1xx_HAL_Driver/Src/stm32f1xx_hal_dma.c ****     /* When a DMA transfer error occurs */
 657:Drivers/STM32F1xx_HAL_Driver/Src/stm32f1xx_hal_dma.c ****     /* A hardware clear of its EN bits is performed */
 658:Drivers/STM32F1xx_HAL_Driver/Src/stm32f1xx_hal_dma.c ****     /* Disable ALL DMA IT */
 659:Drivers/STM32F1xx_HAL_Driver/Src/stm32f1xx_hal_dma.c ****     __HAL_DMA_DISABLE_IT(hdma, (DMA_IT_TC | DMA_IT_HT | DMA_IT_TE));
ARM GAS  C:\Users\begre\AppData\Local\Temp\ccGpVL6f.s 			page 13


 660:Drivers/STM32F1xx_HAL_Driver/Src/stm32f1xx_hal_dma.c **** 
 661:Drivers/STM32F1xx_HAL_Driver/Src/stm32f1xx_hal_dma.c ****     /* Clear all flags */
 662:Drivers/STM32F1xx_HAL_Driver/Src/stm32f1xx_hal_dma.c ****     hdma->DmaBaseAddress->IFCR = (DMA_ISR_GIF1 << hdma->ChannelIndex);
 663:Drivers/STM32F1xx_HAL_Driver/Src/stm32f1xx_hal_dma.c **** 
 664:Drivers/STM32F1xx_HAL_Driver/Src/stm32f1xx_hal_dma.c ****     /* Update error code */
 665:Drivers/STM32F1xx_HAL_Driver/Src/stm32f1xx_hal_dma.c ****     hdma->ErrorCode = HAL_DMA_ERROR_TE;
 666:Drivers/STM32F1xx_HAL_Driver/Src/stm32f1xx_hal_dma.c **** 
 667:Drivers/STM32F1xx_HAL_Driver/Src/stm32f1xx_hal_dma.c ****     /* Change the DMA state */
 668:Drivers/STM32F1xx_HAL_Driver/Src/stm32f1xx_hal_dma.c ****     hdma->State = HAL_DMA_STATE_READY;
 669:Drivers/STM32F1xx_HAL_Driver/Src/stm32f1xx_hal_dma.c **** 
 670:Drivers/STM32F1xx_HAL_Driver/Src/stm32f1xx_hal_dma.c ****     /* Process Unlocked */
 671:Drivers/STM32F1xx_HAL_Driver/Src/stm32f1xx_hal_dma.c ****     __HAL_UNLOCK(hdma);
 672:Drivers/STM32F1xx_HAL_Driver/Src/stm32f1xx_hal_dma.c **** 
 673:Drivers/STM32F1xx_HAL_Driver/Src/stm32f1xx_hal_dma.c ****     if (hdma->XferErrorCallback != NULL)
 674:Drivers/STM32F1xx_HAL_Driver/Src/stm32f1xx_hal_dma.c ****     {
 675:Drivers/STM32F1xx_HAL_Driver/Src/stm32f1xx_hal_dma.c ****       /* Transfer error callback */
 676:Drivers/STM32F1xx_HAL_Driver/Src/stm32f1xx_hal_dma.c ****       hdma->XferErrorCallback(hdma);
 677:Drivers/STM32F1xx_HAL_Driver/Src/stm32f1xx_hal_dma.c ****     }
 678:Drivers/STM32F1xx_HAL_Driver/Src/stm32f1xx_hal_dma.c ****   }
 679:Drivers/STM32F1xx_HAL_Driver/Src/stm32f1xx_hal_dma.c ****   return;
 680:Drivers/STM32F1xx_HAL_Driver/Src/stm32f1xx_hal_dma.c **** }
 681:Drivers/STM32F1xx_HAL_Driver/Src/stm32f1xx_hal_dma.c **** 
 682:Drivers/STM32F1xx_HAL_Driver/Src/stm32f1xx_hal_dma.c **** /**
 683:Drivers/STM32F1xx_HAL_Driver/Src/stm32f1xx_hal_dma.c ****   * @brief Register callbacks
 684:Drivers/STM32F1xx_HAL_Driver/Src/stm32f1xx_hal_dma.c ****   * @param hdma: pointer to a DMA_HandleTypeDef structure that contains
 685:Drivers/STM32F1xx_HAL_Driver/Src/stm32f1xx_hal_dma.c ****   *              the configuration information for the specified DMA Channel.
 686:Drivers/STM32F1xx_HAL_Driver/Src/stm32f1xx_hal_dma.c ****   * @param CallbackID: User Callback identifier
 687:Drivers/STM32F1xx_HAL_Driver/Src/stm32f1xx_hal_dma.c ****   *                    a HAL_DMA_CallbackIDTypeDef ENUM as parameter.
 688:Drivers/STM32F1xx_HAL_Driver/Src/stm32f1xx_hal_dma.c ****   * @param pCallback: pointer to private callback function which has pointer to 
 689:Drivers/STM32F1xx_HAL_Driver/Src/stm32f1xx_hal_dma.c ****   *                   a DMA_HandleTypeDef structure as parameter.
 690:Drivers/STM32F1xx_HAL_Driver/Src/stm32f1xx_hal_dma.c ****   * @retval HAL status
 691:Drivers/STM32F1xx_HAL_Driver/Src/stm32f1xx_hal_dma.c ****   */                          
 692:Drivers/STM32F1xx_HAL_Driver/Src/stm32f1xx_hal_dma.c **** HAL_StatusTypeDef HAL_DMA_RegisterCallback(DMA_HandleTypeDef *hdma, HAL_DMA_CallbackIDTypeDef Callb
 693:Drivers/STM32F1xx_HAL_Driver/Src/stm32f1xx_hal_dma.c **** {
 694:Drivers/STM32F1xx_HAL_Driver/Src/stm32f1xx_hal_dma.c ****   HAL_StatusTypeDef status = HAL_OK;
 695:Drivers/STM32F1xx_HAL_Driver/Src/stm32f1xx_hal_dma.c ****   
 696:Drivers/STM32F1xx_HAL_Driver/Src/stm32f1xx_hal_dma.c ****   /* Process locked */
 697:Drivers/STM32F1xx_HAL_Driver/Src/stm32f1xx_hal_dma.c ****   __HAL_LOCK(hdma);
 698:Drivers/STM32F1xx_HAL_Driver/Src/stm32f1xx_hal_dma.c ****   
 699:Drivers/STM32F1xx_HAL_Driver/Src/stm32f1xx_hal_dma.c ****   if(HAL_DMA_STATE_READY == hdma->State)
 700:Drivers/STM32F1xx_HAL_Driver/Src/stm32f1xx_hal_dma.c ****   {
 701:Drivers/STM32F1xx_HAL_Driver/Src/stm32f1xx_hal_dma.c ****     switch (CallbackID)
 702:Drivers/STM32F1xx_HAL_Driver/Src/stm32f1xx_hal_dma.c ****     {
 703:Drivers/STM32F1xx_HAL_Driver/Src/stm32f1xx_hal_dma.c ****     case  HAL_DMA_XFER_CPLT_CB_ID:
 704:Drivers/STM32F1xx_HAL_Driver/Src/stm32f1xx_hal_dma.c ****       hdma->XferCpltCallback = pCallback;
 705:Drivers/STM32F1xx_HAL_Driver/Src/stm32f1xx_hal_dma.c ****       break;
 706:Drivers/STM32F1xx_HAL_Driver/Src/stm32f1xx_hal_dma.c ****       
 707:Drivers/STM32F1xx_HAL_Driver/Src/stm32f1xx_hal_dma.c ****     case  HAL_DMA_XFER_HALFCPLT_CB_ID:
 708:Drivers/STM32F1xx_HAL_Driver/Src/stm32f1xx_hal_dma.c ****       hdma->XferHalfCpltCallback = pCallback;
 709:Drivers/STM32F1xx_HAL_Driver/Src/stm32f1xx_hal_dma.c ****       break;         
 710:Drivers/STM32F1xx_HAL_Driver/Src/stm32f1xx_hal_dma.c **** 
 711:Drivers/STM32F1xx_HAL_Driver/Src/stm32f1xx_hal_dma.c ****     case  HAL_DMA_XFER_ERROR_CB_ID:
 712:Drivers/STM32F1xx_HAL_Driver/Src/stm32f1xx_hal_dma.c ****       hdma->XferErrorCallback = pCallback;
 713:Drivers/STM32F1xx_HAL_Driver/Src/stm32f1xx_hal_dma.c ****       break;         
 714:Drivers/STM32F1xx_HAL_Driver/Src/stm32f1xx_hal_dma.c ****       
 715:Drivers/STM32F1xx_HAL_Driver/Src/stm32f1xx_hal_dma.c ****     case  HAL_DMA_XFER_ABORT_CB_ID:
 716:Drivers/STM32F1xx_HAL_Driver/Src/stm32f1xx_hal_dma.c ****       hdma->XferAbortCallback = pCallback;
ARM GAS  C:\Users\begre\AppData\Local\Temp\ccGpVL6f.s 			page 14


 717:Drivers/STM32F1xx_HAL_Driver/Src/stm32f1xx_hal_dma.c ****       break; 
 718:Drivers/STM32F1xx_HAL_Driver/Src/stm32f1xx_hal_dma.c ****       
 719:Drivers/STM32F1xx_HAL_Driver/Src/stm32f1xx_hal_dma.c ****     default:
 720:Drivers/STM32F1xx_HAL_Driver/Src/stm32f1xx_hal_dma.c ****       status = HAL_ERROR;
 721:Drivers/STM32F1xx_HAL_Driver/Src/stm32f1xx_hal_dma.c ****       break;                                                            
 722:Drivers/STM32F1xx_HAL_Driver/Src/stm32f1xx_hal_dma.c ****     }
 723:Drivers/STM32F1xx_HAL_Driver/Src/stm32f1xx_hal_dma.c ****   }
 724:Drivers/STM32F1xx_HAL_Driver/Src/stm32f1xx_hal_dma.c ****   else
 725:Drivers/STM32F1xx_HAL_Driver/Src/stm32f1xx_hal_dma.c ****   {
 726:Drivers/STM32F1xx_HAL_Driver/Src/stm32f1xx_hal_dma.c ****     status = HAL_ERROR;
 727:Drivers/STM32F1xx_HAL_Driver/Src/stm32f1xx_hal_dma.c ****   } 
 728:Drivers/STM32F1xx_HAL_Driver/Src/stm32f1xx_hal_dma.c ****   
 729:Drivers/STM32F1xx_HAL_Driver/Src/stm32f1xx_hal_dma.c ****   /* Release Lock */
 730:Drivers/STM32F1xx_HAL_Driver/Src/stm32f1xx_hal_dma.c ****   __HAL_UNLOCK(hdma);
 731:Drivers/STM32F1xx_HAL_Driver/Src/stm32f1xx_hal_dma.c ****   
 732:Drivers/STM32F1xx_HAL_Driver/Src/stm32f1xx_hal_dma.c ****   return status;
 733:Drivers/STM32F1xx_HAL_Driver/Src/stm32f1xx_hal_dma.c **** }
 734:Drivers/STM32F1xx_HAL_Driver/Src/stm32f1xx_hal_dma.c **** 
 735:Drivers/STM32F1xx_HAL_Driver/Src/stm32f1xx_hal_dma.c **** /**
 736:Drivers/STM32F1xx_HAL_Driver/Src/stm32f1xx_hal_dma.c ****   * @brief UnRegister callbacks
 737:Drivers/STM32F1xx_HAL_Driver/Src/stm32f1xx_hal_dma.c ****   * @param hdma: pointer to a DMA_HandleTypeDef structure that contains
 738:Drivers/STM32F1xx_HAL_Driver/Src/stm32f1xx_hal_dma.c ****   *              the configuration information for the specified DMA Channel.
 739:Drivers/STM32F1xx_HAL_Driver/Src/stm32f1xx_hal_dma.c ****   * @param CallbackID: User Callback identifier
 740:Drivers/STM32F1xx_HAL_Driver/Src/stm32f1xx_hal_dma.c ****   *                    a HAL_DMA_CallbackIDTypeDef ENUM as parameter.
 741:Drivers/STM32F1xx_HAL_Driver/Src/stm32f1xx_hal_dma.c ****   * @retval HAL status
 742:Drivers/STM32F1xx_HAL_Driver/Src/stm32f1xx_hal_dma.c ****   */              
 743:Drivers/STM32F1xx_HAL_Driver/Src/stm32f1xx_hal_dma.c **** HAL_StatusTypeDef HAL_DMA_UnRegisterCallback(DMA_HandleTypeDef *hdma, HAL_DMA_CallbackIDTypeDef Cal
 744:Drivers/STM32F1xx_HAL_Driver/Src/stm32f1xx_hal_dma.c **** {
 745:Drivers/STM32F1xx_HAL_Driver/Src/stm32f1xx_hal_dma.c ****   HAL_StatusTypeDef status = HAL_OK;
 746:Drivers/STM32F1xx_HAL_Driver/Src/stm32f1xx_hal_dma.c **** 
 747:Drivers/STM32F1xx_HAL_Driver/Src/stm32f1xx_hal_dma.c ****   /* Process locked */
 748:Drivers/STM32F1xx_HAL_Driver/Src/stm32f1xx_hal_dma.c ****   __HAL_LOCK(hdma);
 749:Drivers/STM32F1xx_HAL_Driver/Src/stm32f1xx_hal_dma.c ****   
 750:Drivers/STM32F1xx_HAL_Driver/Src/stm32f1xx_hal_dma.c ****   if(HAL_DMA_STATE_READY == hdma->State)
 751:Drivers/STM32F1xx_HAL_Driver/Src/stm32f1xx_hal_dma.c ****   {
 752:Drivers/STM32F1xx_HAL_Driver/Src/stm32f1xx_hal_dma.c ****     switch (CallbackID)
 753:Drivers/STM32F1xx_HAL_Driver/Src/stm32f1xx_hal_dma.c ****     {
 754:Drivers/STM32F1xx_HAL_Driver/Src/stm32f1xx_hal_dma.c ****     case  HAL_DMA_XFER_CPLT_CB_ID:
 755:Drivers/STM32F1xx_HAL_Driver/Src/stm32f1xx_hal_dma.c ****       hdma->XferCpltCallback = NULL;
 756:Drivers/STM32F1xx_HAL_Driver/Src/stm32f1xx_hal_dma.c ****       break;
 757:Drivers/STM32F1xx_HAL_Driver/Src/stm32f1xx_hal_dma.c **** 
 758:Drivers/STM32F1xx_HAL_Driver/Src/stm32f1xx_hal_dma.c ****     case  HAL_DMA_XFER_HALFCPLT_CB_ID:
 759:Drivers/STM32F1xx_HAL_Driver/Src/stm32f1xx_hal_dma.c ****       hdma->XferHalfCpltCallback = NULL;
 760:Drivers/STM32F1xx_HAL_Driver/Src/stm32f1xx_hal_dma.c ****       break;         
 761:Drivers/STM32F1xx_HAL_Driver/Src/stm32f1xx_hal_dma.c **** 
 762:Drivers/STM32F1xx_HAL_Driver/Src/stm32f1xx_hal_dma.c ****     case  HAL_DMA_XFER_ERROR_CB_ID:
 763:Drivers/STM32F1xx_HAL_Driver/Src/stm32f1xx_hal_dma.c ****       hdma->XferErrorCallback = NULL;
 764:Drivers/STM32F1xx_HAL_Driver/Src/stm32f1xx_hal_dma.c ****       break;         
 765:Drivers/STM32F1xx_HAL_Driver/Src/stm32f1xx_hal_dma.c **** 
 766:Drivers/STM32F1xx_HAL_Driver/Src/stm32f1xx_hal_dma.c ****     case  HAL_DMA_XFER_ABORT_CB_ID:
 767:Drivers/STM32F1xx_HAL_Driver/Src/stm32f1xx_hal_dma.c ****       hdma->XferAbortCallback = NULL;
 768:Drivers/STM32F1xx_HAL_Driver/Src/stm32f1xx_hal_dma.c ****       break; 
 769:Drivers/STM32F1xx_HAL_Driver/Src/stm32f1xx_hal_dma.c **** 
 770:Drivers/STM32F1xx_HAL_Driver/Src/stm32f1xx_hal_dma.c ****     case   HAL_DMA_XFER_ALL_CB_ID:
 771:Drivers/STM32F1xx_HAL_Driver/Src/stm32f1xx_hal_dma.c ****       hdma->XferCpltCallback = NULL;
 772:Drivers/STM32F1xx_HAL_Driver/Src/stm32f1xx_hal_dma.c ****       hdma->XferHalfCpltCallback = NULL;
 773:Drivers/STM32F1xx_HAL_Driver/Src/stm32f1xx_hal_dma.c ****       hdma->XferErrorCallback = NULL;
ARM GAS  C:\Users\begre\AppData\Local\Temp\ccGpVL6f.s 			page 15


 774:Drivers/STM32F1xx_HAL_Driver/Src/stm32f1xx_hal_dma.c ****       hdma->XferAbortCallback = NULL;
 775:Drivers/STM32F1xx_HAL_Driver/Src/stm32f1xx_hal_dma.c ****       break; 
 776:Drivers/STM32F1xx_HAL_Driver/Src/stm32f1xx_hal_dma.c **** 
 777:Drivers/STM32F1xx_HAL_Driver/Src/stm32f1xx_hal_dma.c ****     default:
 778:Drivers/STM32F1xx_HAL_Driver/Src/stm32f1xx_hal_dma.c ****       status = HAL_ERROR;
 779:Drivers/STM32F1xx_HAL_Driver/Src/stm32f1xx_hal_dma.c ****       break;
 780:Drivers/STM32F1xx_HAL_Driver/Src/stm32f1xx_hal_dma.c ****     }
 781:Drivers/STM32F1xx_HAL_Driver/Src/stm32f1xx_hal_dma.c ****   }
 782:Drivers/STM32F1xx_HAL_Driver/Src/stm32f1xx_hal_dma.c ****   else
 783:Drivers/STM32F1xx_HAL_Driver/Src/stm32f1xx_hal_dma.c ****   {
 784:Drivers/STM32F1xx_HAL_Driver/Src/stm32f1xx_hal_dma.c ****     status = HAL_ERROR;
 785:Drivers/STM32F1xx_HAL_Driver/Src/stm32f1xx_hal_dma.c ****   } 
 786:Drivers/STM32F1xx_HAL_Driver/Src/stm32f1xx_hal_dma.c ****   
 787:Drivers/STM32F1xx_HAL_Driver/Src/stm32f1xx_hal_dma.c ****   /* Release Lock */
 788:Drivers/STM32F1xx_HAL_Driver/Src/stm32f1xx_hal_dma.c ****   __HAL_UNLOCK(hdma);
 789:Drivers/STM32F1xx_HAL_Driver/Src/stm32f1xx_hal_dma.c ****   
 790:Drivers/STM32F1xx_HAL_Driver/Src/stm32f1xx_hal_dma.c ****   return status;
 791:Drivers/STM32F1xx_HAL_Driver/Src/stm32f1xx_hal_dma.c **** }
 792:Drivers/STM32F1xx_HAL_Driver/Src/stm32f1xx_hal_dma.c ****   
 793:Drivers/STM32F1xx_HAL_Driver/Src/stm32f1xx_hal_dma.c **** /**
 794:Drivers/STM32F1xx_HAL_Driver/Src/stm32f1xx_hal_dma.c ****   * @}
 795:Drivers/STM32F1xx_HAL_Driver/Src/stm32f1xx_hal_dma.c ****   */
 796:Drivers/STM32F1xx_HAL_Driver/Src/stm32f1xx_hal_dma.c **** 
 797:Drivers/STM32F1xx_HAL_Driver/Src/stm32f1xx_hal_dma.c **** /** @defgroup DMA_Exported_Functions_Group3 Peripheral State and Errors functions
 798:Drivers/STM32F1xx_HAL_Driver/Src/stm32f1xx_hal_dma.c ****   *  @brief    Peripheral State and Errors functions
 799:Drivers/STM32F1xx_HAL_Driver/Src/stm32f1xx_hal_dma.c ****   *
 800:Drivers/STM32F1xx_HAL_Driver/Src/stm32f1xx_hal_dma.c **** @verbatim
 801:Drivers/STM32F1xx_HAL_Driver/Src/stm32f1xx_hal_dma.c ****  ===============================================================================
 802:Drivers/STM32F1xx_HAL_Driver/Src/stm32f1xx_hal_dma.c ****             ##### Peripheral State and Errors functions #####
 803:Drivers/STM32F1xx_HAL_Driver/Src/stm32f1xx_hal_dma.c ****  ===============================================================================  
 804:Drivers/STM32F1xx_HAL_Driver/Src/stm32f1xx_hal_dma.c ****     [..]
 805:Drivers/STM32F1xx_HAL_Driver/Src/stm32f1xx_hal_dma.c ****     This subsection provides functions allowing to
 806:Drivers/STM32F1xx_HAL_Driver/Src/stm32f1xx_hal_dma.c ****       (+) Check the DMA state
 807:Drivers/STM32F1xx_HAL_Driver/Src/stm32f1xx_hal_dma.c ****       (+) Get error code
 808:Drivers/STM32F1xx_HAL_Driver/Src/stm32f1xx_hal_dma.c **** 
 809:Drivers/STM32F1xx_HAL_Driver/Src/stm32f1xx_hal_dma.c **** @endverbatim
 810:Drivers/STM32F1xx_HAL_Driver/Src/stm32f1xx_hal_dma.c ****   * @{
 811:Drivers/STM32F1xx_HAL_Driver/Src/stm32f1xx_hal_dma.c ****   */
 812:Drivers/STM32F1xx_HAL_Driver/Src/stm32f1xx_hal_dma.c **** 
 813:Drivers/STM32F1xx_HAL_Driver/Src/stm32f1xx_hal_dma.c **** /**
 814:Drivers/STM32F1xx_HAL_Driver/Src/stm32f1xx_hal_dma.c ****   * @brief  Return the DMA handle state.
 815:Drivers/STM32F1xx_HAL_Driver/Src/stm32f1xx_hal_dma.c ****   * @param  hdma: pointer to a DMA_HandleTypeDef structure that contains
 816:Drivers/STM32F1xx_HAL_Driver/Src/stm32f1xx_hal_dma.c ****   *               the configuration information for the specified DMA Channel.
 817:Drivers/STM32F1xx_HAL_Driver/Src/stm32f1xx_hal_dma.c ****   * @retval HAL state
 818:Drivers/STM32F1xx_HAL_Driver/Src/stm32f1xx_hal_dma.c ****   */
 819:Drivers/STM32F1xx_HAL_Driver/Src/stm32f1xx_hal_dma.c **** HAL_DMA_StateTypeDef HAL_DMA_GetState(DMA_HandleTypeDef *hdma)
 820:Drivers/STM32F1xx_HAL_Driver/Src/stm32f1xx_hal_dma.c **** {
 821:Drivers/STM32F1xx_HAL_Driver/Src/stm32f1xx_hal_dma.c ****   /* Return DMA handle state */
 822:Drivers/STM32F1xx_HAL_Driver/Src/stm32f1xx_hal_dma.c ****   return hdma->State;
 823:Drivers/STM32F1xx_HAL_Driver/Src/stm32f1xx_hal_dma.c **** }
 824:Drivers/STM32F1xx_HAL_Driver/Src/stm32f1xx_hal_dma.c **** 
 825:Drivers/STM32F1xx_HAL_Driver/Src/stm32f1xx_hal_dma.c **** /**
 826:Drivers/STM32F1xx_HAL_Driver/Src/stm32f1xx_hal_dma.c ****   * @brief  Return the DMA error code.
 827:Drivers/STM32F1xx_HAL_Driver/Src/stm32f1xx_hal_dma.c ****   * @param  hdma : pointer to a DMA_HandleTypeDef structure that contains
 828:Drivers/STM32F1xx_HAL_Driver/Src/stm32f1xx_hal_dma.c ****   *              the configuration information for the specified DMA Channel.
 829:Drivers/STM32F1xx_HAL_Driver/Src/stm32f1xx_hal_dma.c ****   * @retval DMA Error Code
 830:Drivers/STM32F1xx_HAL_Driver/Src/stm32f1xx_hal_dma.c ****   */
ARM GAS  C:\Users\begre\AppData\Local\Temp\ccGpVL6f.s 			page 16


 831:Drivers/STM32F1xx_HAL_Driver/Src/stm32f1xx_hal_dma.c **** uint32_t HAL_DMA_GetError(DMA_HandleTypeDef *hdma)
 832:Drivers/STM32F1xx_HAL_Driver/Src/stm32f1xx_hal_dma.c **** {
 833:Drivers/STM32F1xx_HAL_Driver/Src/stm32f1xx_hal_dma.c ****   return hdma->ErrorCode;
 834:Drivers/STM32F1xx_HAL_Driver/Src/stm32f1xx_hal_dma.c **** }
 835:Drivers/STM32F1xx_HAL_Driver/Src/stm32f1xx_hal_dma.c **** 
 836:Drivers/STM32F1xx_HAL_Driver/Src/stm32f1xx_hal_dma.c **** /**
 837:Drivers/STM32F1xx_HAL_Driver/Src/stm32f1xx_hal_dma.c ****   * @}
 838:Drivers/STM32F1xx_HAL_Driver/Src/stm32f1xx_hal_dma.c ****   */
 839:Drivers/STM32F1xx_HAL_Driver/Src/stm32f1xx_hal_dma.c **** 
 840:Drivers/STM32F1xx_HAL_Driver/Src/stm32f1xx_hal_dma.c **** /**
 841:Drivers/STM32F1xx_HAL_Driver/Src/stm32f1xx_hal_dma.c ****   * @}
 842:Drivers/STM32F1xx_HAL_Driver/Src/stm32f1xx_hal_dma.c ****   */
 843:Drivers/STM32F1xx_HAL_Driver/Src/stm32f1xx_hal_dma.c **** 
 844:Drivers/STM32F1xx_HAL_Driver/Src/stm32f1xx_hal_dma.c **** /** @addtogroup DMA_Private_Functions
 845:Drivers/STM32F1xx_HAL_Driver/Src/stm32f1xx_hal_dma.c ****   * @{
 846:Drivers/STM32F1xx_HAL_Driver/Src/stm32f1xx_hal_dma.c ****   */
 847:Drivers/STM32F1xx_HAL_Driver/Src/stm32f1xx_hal_dma.c **** 
 848:Drivers/STM32F1xx_HAL_Driver/Src/stm32f1xx_hal_dma.c **** /**
 849:Drivers/STM32F1xx_HAL_Driver/Src/stm32f1xx_hal_dma.c ****   * @brief  Sets the DMA Transfer parameter.
 850:Drivers/STM32F1xx_HAL_Driver/Src/stm32f1xx_hal_dma.c ****   * @param  hdma:       pointer to a DMA_HandleTypeDef structure that contains
 851:Drivers/STM32F1xx_HAL_Driver/Src/stm32f1xx_hal_dma.c ****   *                     the configuration information for the specified DMA Channel.
 852:Drivers/STM32F1xx_HAL_Driver/Src/stm32f1xx_hal_dma.c ****   * @param  SrcAddress: The source memory Buffer address
 853:Drivers/STM32F1xx_HAL_Driver/Src/stm32f1xx_hal_dma.c ****   * @param  DstAddress: The destination memory Buffer address
 854:Drivers/STM32F1xx_HAL_Driver/Src/stm32f1xx_hal_dma.c ****   * @param  DataLength: The length of data to be transferred from source to destination
 855:Drivers/STM32F1xx_HAL_Driver/Src/stm32f1xx_hal_dma.c ****   * @retval HAL status
 856:Drivers/STM32F1xx_HAL_Driver/Src/stm32f1xx_hal_dma.c ****   */
 857:Drivers/STM32F1xx_HAL_Driver/Src/stm32f1xx_hal_dma.c **** static void DMA_SetConfig(DMA_HandleTypeDef *hdma, uint32_t SrcAddress, uint32_t DstAddress, uint32
 858:Drivers/STM32F1xx_HAL_Driver/Src/stm32f1xx_hal_dma.c **** {
  27              		.loc 1 858 1 view -0
  28              		.cfi_startproc
  29              		@ args = 0, pretend = 0, frame = 0
  30              		@ frame_needed = 0, uses_anonymous_args = 0
  31              		@ link register save eliminated.
  32              		.loc 1 858 1 is_stmt 0 view .LVU1
  33 0000 30B4     		push	{r4, r5}
  34              	.LCFI0:
  35              		.cfi_def_cfa_offset 8
  36              		.cfi_offset 4, -8
  37              		.cfi_offset 5, -4
 859:Drivers/STM32F1xx_HAL_Driver/Src/stm32f1xx_hal_dma.c ****   /* Clear all flags */
 860:Drivers/STM32F1xx_HAL_Driver/Src/stm32f1xx_hal_dma.c ****   hdma->DmaBaseAddress->IFCR = (DMA_ISR_GIF1 << hdma->ChannelIndex);
  38              		.loc 1 860 3 is_stmt 1 view .LVU2
  39              		.loc 1 860 46 is_stmt 0 view .LVU3
  40 0002 0124     		movs	r4, #1
  41 0004 056C     		ldr	r5, [r0, #64]
  42 0006 AC40     		lsls	r4, r4, r5
  43              		.loc 1 860 30 view .LVU4
  44 0008 C56B     		ldr	r5, [r0, #60]
  45 000a 6C60     		str	r4, [r5, #4]
 861:Drivers/STM32F1xx_HAL_Driver/Src/stm32f1xx_hal_dma.c **** 
 862:Drivers/STM32F1xx_HAL_Driver/Src/stm32f1xx_hal_dma.c ****   /* Configure DMA Channel data length */
 863:Drivers/STM32F1xx_HAL_Driver/Src/stm32f1xx_hal_dma.c ****   hdma->Instance->CNDTR = DataLength;
  46              		.loc 1 863 3 is_stmt 1 view .LVU5
  47              		.loc 1 863 7 is_stmt 0 view .LVU6
  48 000c 0468     		ldr	r4, [r0]
  49              		.loc 1 863 25 view .LVU7
  50 000e 6360     		str	r3, [r4, #4]
ARM GAS  C:\Users\begre\AppData\Local\Temp\ccGpVL6f.s 			page 17


 864:Drivers/STM32F1xx_HAL_Driver/Src/stm32f1xx_hal_dma.c **** 
 865:Drivers/STM32F1xx_HAL_Driver/Src/stm32f1xx_hal_dma.c ****   /* Memory to Peripheral */
 866:Drivers/STM32F1xx_HAL_Driver/Src/stm32f1xx_hal_dma.c ****   if((hdma->Init.Direction) == DMA_MEMORY_TO_PERIPH)
  51              		.loc 1 866 3 is_stmt 1 view .LVU8
  52              		.loc 1 866 17 is_stmt 0 view .LVU9
  53 0010 4368     		ldr	r3, [r0, #4]
  54              	.LVL1:
  55              		.loc 1 866 5 view .LVU10
  56 0012 102B     		cmp	r3, #16
  57 0014 05D0     		beq	.L5
 867:Drivers/STM32F1xx_HAL_Driver/Src/stm32f1xx_hal_dma.c ****   {
 868:Drivers/STM32F1xx_HAL_Driver/Src/stm32f1xx_hal_dma.c ****     /* Configure DMA Channel destination address */
 869:Drivers/STM32F1xx_HAL_Driver/Src/stm32f1xx_hal_dma.c ****     hdma->Instance->CPAR = DstAddress;
 870:Drivers/STM32F1xx_HAL_Driver/Src/stm32f1xx_hal_dma.c **** 
 871:Drivers/STM32F1xx_HAL_Driver/Src/stm32f1xx_hal_dma.c ****     /* Configure DMA Channel source address */
 872:Drivers/STM32F1xx_HAL_Driver/Src/stm32f1xx_hal_dma.c ****     hdma->Instance->CMAR = SrcAddress;
 873:Drivers/STM32F1xx_HAL_Driver/Src/stm32f1xx_hal_dma.c ****   }
 874:Drivers/STM32F1xx_HAL_Driver/Src/stm32f1xx_hal_dma.c ****   /* Peripheral to Memory */
 875:Drivers/STM32F1xx_HAL_Driver/Src/stm32f1xx_hal_dma.c ****   else
 876:Drivers/STM32F1xx_HAL_Driver/Src/stm32f1xx_hal_dma.c ****   {
 877:Drivers/STM32F1xx_HAL_Driver/Src/stm32f1xx_hal_dma.c ****     /* Configure DMA Channel source address */
 878:Drivers/STM32F1xx_HAL_Driver/Src/stm32f1xx_hal_dma.c ****     hdma->Instance->CPAR = SrcAddress;
  58              		.loc 1 878 5 is_stmt 1 view .LVU11
  59              		.loc 1 878 9 is_stmt 0 view .LVU12
  60 0016 0368     		ldr	r3, [r0]
  61              		.loc 1 878 26 view .LVU13
  62 0018 9960     		str	r1, [r3, #8]
  63              	.LVL2:
 879:Drivers/STM32F1xx_HAL_Driver/Src/stm32f1xx_hal_dma.c **** 
 880:Drivers/STM32F1xx_HAL_Driver/Src/stm32f1xx_hal_dma.c ****     /* Configure DMA Channel destination address */
 881:Drivers/STM32F1xx_HAL_Driver/Src/stm32f1xx_hal_dma.c ****     hdma->Instance->CMAR = DstAddress;
  64              		.loc 1 881 5 is_stmt 1 view .LVU14
  65              		.loc 1 881 9 is_stmt 0 view .LVU15
  66 001a 0368     		ldr	r3, [r0]
  67              		.loc 1 881 26 view .LVU16
  68 001c DA60     		str	r2, [r3, #12]
  69              	.L1:
 882:Drivers/STM32F1xx_HAL_Driver/Src/stm32f1xx_hal_dma.c ****   }
 883:Drivers/STM32F1xx_HAL_Driver/Src/stm32f1xx_hal_dma.c **** }
  70              		.loc 1 883 1 view .LVU17
  71 001e 30BC     		pop	{r4, r5}
  72              	.LCFI1:
  73              		.cfi_remember_state
  74              		.cfi_restore 5
  75              		.cfi_restore 4
  76              		.cfi_def_cfa_offset 0
  77 0020 7047     		bx	lr
  78              	.LVL3:
  79              	.L5:
  80              	.LCFI2:
  81              		.cfi_restore_state
 869:Drivers/STM32F1xx_HAL_Driver/Src/stm32f1xx_hal_dma.c **** 
  82              		.loc 1 869 5 is_stmt 1 view .LVU18
 869:Drivers/STM32F1xx_HAL_Driver/Src/stm32f1xx_hal_dma.c **** 
  83              		.loc 1 869 9 is_stmt 0 view .LVU19
  84 0022 0368     		ldr	r3, [r0]
 869:Drivers/STM32F1xx_HAL_Driver/Src/stm32f1xx_hal_dma.c **** 
ARM GAS  C:\Users\begre\AppData\Local\Temp\ccGpVL6f.s 			page 18


  85              		.loc 1 869 26 view .LVU20
  86 0024 9A60     		str	r2, [r3, #8]
  87              	.LVL4:
 872:Drivers/STM32F1xx_HAL_Driver/Src/stm32f1xx_hal_dma.c ****   }
  88              		.loc 1 872 5 is_stmt 1 view .LVU21
 872:Drivers/STM32F1xx_HAL_Driver/Src/stm32f1xx_hal_dma.c ****   }
  89              		.loc 1 872 9 is_stmt 0 view .LVU22
  90 0026 0368     		ldr	r3, [r0]
 872:Drivers/STM32F1xx_HAL_Driver/Src/stm32f1xx_hal_dma.c ****   }
  91              		.loc 1 872 26 view .LVU23
  92 0028 D960     		str	r1, [r3, #12]
  93 002a F8E7     		b	.L1
  94              		.cfi_endproc
  95              	.LFE77:
  97              		.section	.rodata.HAL_DMA_Init.str1.4,"aMS",%progbits,1
  98              		.align	2
  99              	.LC0:
 100 0000 44726976 		.ascii	"Drivers/STM32F1xx_HAL_Driver/Src/stm32f1xx_hal_dma."
 100      6572732F 
 100      53544D33 
 100      32463178 
 100      785F4841 
 101 0033 6300     		.ascii	"c\000"
 102              		.section	.text.HAL_DMA_Init,"ax",%progbits
 103              		.align	1
 104              		.global	HAL_DMA_Init
 105              		.syntax unified
 106              		.thumb
 107              		.thumb_func
 109              	HAL_DMA_Init:
 110              	.LVL5:
 111              	.LFB65:
 143:Drivers/STM32F1xx_HAL_Driver/Src/stm32f1xx_hal_dma.c ****   uint32_t tmp = 0U;
 112              		.loc 1 143 1 is_stmt 1 view -0
 113              		.cfi_startproc
 114              		@ args = 0, pretend = 0, frame = 0
 115              		@ frame_needed = 0, uses_anonymous_args = 0
 144:Drivers/STM32F1xx_HAL_Driver/Src/stm32f1xx_hal_dma.c **** 
 116              		.loc 1 144 3 view .LVU25
 147:Drivers/STM32F1xx_HAL_Driver/Src/stm32f1xx_hal_dma.c ****   {
 117              		.loc 1 147 3 view .LVU26
 147:Drivers/STM32F1xx_HAL_Driver/Src/stm32f1xx_hal_dma.c ****   {
 118              		.loc 1 147 5 is_stmt 0 view .LVU27
 119 0000 0028     		cmp	r0, #0
 120 0002 00F0B780 		beq	.L18
 143:Drivers/STM32F1xx_HAL_Driver/Src/stm32f1xx_hal_dma.c ****   uint32_t tmp = 0U;
 121              		.loc 1 143 1 view .LVU28
 122 0006 10B5     		push	{r4, lr}
 123              	.LCFI3:
 124              		.cfi_def_cfa_offset 8
 125              		.cfi_offset 4, -8
 126              		.cfi_offset 14, -4
 127 0008 0446     		mov	r4, r0
 153:Drivers/STM32F1xx_HAL_Driver/Src/stm32f1xx_hal_dma.c ****   assert_param(IS_DMA_DIRECTION(hdma->Init.Direction));
 128              		.loc 1 153 3 is_stmt 1 view .LVU29
 129 000a 0368     		ldr	r3, [r0]
 130 000c 5A4A     		ldr	r2, .L30
ARM GAS  C:\Users\begre\AppData\Local\Temp\ccGpVL6f.s 			page 19


 131 000e 9342     		cmp	r3, r2
 132 0010 25D0     		beq	.L8
 153:Drivers/STM32F1xx_HAL_Driver/Src/stm32f1xx_hal_dma.c ****   assert_param(IS_DMA_DIRECTION(hdma->Init.Direction));
 133              		.loc 1 153 3 is_stmt 0 discriminator 1 view .LVU30
 134 0012 1432     		adds	r2, r2, #20
 135 0014 9342     		cmp	r3, r2
 136 0016 22D0     		beq	.L8
 153:Drivers/STM32F1xx_HAL_Driver/Src/stm32f1xx_hal_dma.c ****   assert_param(IS_DMA_DIRECTION(hdma->Init.Direction));
 137              		.loc 1 153 3 discriminator 2 view .LVU31
 138 0018 1432     		adds	r2, r2, #20
 139 001a 9342     		cmp	r3, r2
 140 001c 1FD0     		beq	.L8
 153:Drivers/STM32F1xx_HAL_Driver/Src/stm32f1xx_hal_dma.c ****   assert_param(IS_DMA_DIRECTION(hdma->Init.Direction));
 141              		.loc 1 153 3 discriminator 3 view .LVU32
 142 001e 1432     		adds	r2, r2, #20
 143 0020 9342     		cmp	r3, r2
 144 0022 1CD0     		beq	.L8
 153:Drivers/STM32F1xx_HAL_Driver/Src/stm32f1xx_hal_dma.c ****   assert_param(IS_DMA_DIRECTION(hdma->Init.Direction));
 145              		.loc 1 153 3 discriminator 4 view .LVU33
 146 0024 1432     		adds	r2, r2, #20
 147 0026 9342     		cmp	r3, r2
 148 0028 19D0     		beq	.L8
 153:Drivers/STM32F1xx_HAL_Driver/Src/stm32f1xx_hal_dma.c ****   assert_param(IS_DMA_DIRECTION(hdma->Init.Direction));
 149              		.loc 1 153 3 discriminator 5 view .LVU34
 150 002a 1432     		adds	r2, r2, #20
 151 002c 9342     		cmp	r3, r2
 152 002e 16D0     		beq	.L8
 153:Drivers/STM32F1xx_HAL_Driver/Src/stm32f1xx_hal_dma.c ****   assert_param(IS_DMA_DIRECTION(hdma->Init.Direction));
 153              		.loc 1 153 3 discriminator 6 view .LVU35
 154 0030 1432     		adds	r2, r2, #20
 155 0032 9342     		cmp	r3, r2
 156 0034 13D0     		beq	.L8
 153:Drivers/STM32F1xx_HAL_Driver/Src/stm32f1xx_hal_dma.c ****   assert_param(IS_DMA_DIRECTION(hdma->Init.Direction));
 157              		.loc 1 153 3 discriminator 7 view .LVU36
 158 0036 02F56272 		add	r2, r2, #904
 159 003a 9342     		cmp	r3, r2
 160 003c 0FD0     		beq	.L8
 153:Drivers/STM32F1xx_HAL_Driver/Src/stm32f1xx_hal_dma.c ****   assert_param(IS_DMA_DIRECTION(hdma->Init.Direction));
 161              		.loc 1 153 3 discriminator 8 view .LVU37
 162 003e 1432     		adds	r2, r2, #20
 163 0040 9342     		cmp	r3, r2
 164 0042 0CD0     		beq	.L8
 153:Drivers/STM32F1xx_HAL_Driver/Src/stm32f1xx_hal_dma.c ****   assert_param(IS_DMA_DIRECTION(hdma->Init.Direction));
 165              		.loc 1 153 3 discriminator 9 view .LVU38
 166 0044 1432     		adds	r2, r2, #20
 167 0046 9342     		cmp	r3, r2
 168 0048 09D0     		beq	.L8
 153:Drivers/STM32F1xx_HAL_Driver/Src/stm32f1xx_hal_dma.c ****   assert_param(IS_DMA_DIRECTION(hdma->Init.Direction));
 169              		.loc 1 153 3 discriminator 10 view .LVU39
 170 004a 1432     		adds	r2, r2, #20
 171 004c 9342     		cmp	r3, r2
 172 004e 06D0     		beq	.L8
 153:Drivers/STM32F1xx_HAL_Driver/Src/stm32f1xx_hal_dma.c ****   assert_param(IS_DMA_DIRECTION(hdma->Init.Direction));
 173              		.loc 1 153 3 discriminator 11 view .LVU40
 174 0050 1432     		adds	r2, r2, #20
 175 0052 9342     		cmp	r3, r2
 176 0054 03D0     		beq	.L8
ARM GAS  C:\Users\begre\AppData\Local\Temp\ccGpVL6f.s 			page 20


 153:Drivers/STM32F1xx_HAL_Driver/Src/stm32f1xx_hal_dma.c ****   assert_param(IS_DMA_DIRECTION(hdma->Init.Direction));
 177              		.loc 1 153 3 discriminator 12 view .LVU41
 178 0056 9921     		movs	r1, #153
 179 0058 4848     		ldr	r0, .L30+4
 180              	.LVL6:
 153:Drivers/STM32F1xx_HAL_Driver/Src/stm32f1xx_hal_dma.c ****   assert_param(IS_DMA_DIRECTION(hdma->Init.Direction));
 181              		.loc 1 153 3 discriminator 12 view .LVU42
 182 005a FFF7FEFF 		bl	assert_failed
 183              	.LVL7:
 184              	.L8:
 154:Drivers/STM32F1xx_HAL_Driver/Src/stm32f1xx_hal_dma.c ****   assert_param(IS_DMA_PERIPHERAL_INC_STATE(hdma->Init.PeriphInc));
 185              		.loc 1 154 3 is_stmt 1 view .LVU43
 186 005e 6368     		ldr	r3, [r4, #4]
 187 0060 23B1     		cbz	r3, .L9
 154:Drivers/STM32F1xx_HAL_Driver/Src/stm32f1xx_hal_dma.c ****   assert_param(IS_DMA_PERIPHERAL_INC_STATE(hdma->Init.PeriphInc));
 188              		.loc 1 154 3 is_stmt 0 discriminator 1 view .LVU44
 189 0062 102B     		cmp	r3, #16
 190 0064 02D0     		beq	.L9
 154:Drivers/STM32F1xx_HAL_Driver/Src/stm32f1xx_hal_dma.c ****   assert_param(IS_DMA_PERIPHERAL_INC_STATE(hdma->Init.PeriphInc));
 191              		.loc 1 154 3 discriminator 2 view .LVU45
 192 0066 B3F5804F 		cmp	r3, #16384
 193 006a 55D1     		bne	.L23
 194              	.L9:
 155:Drivers/STM32F1xx_HAL_Driver/Src/stm32f1xx_hal_dma.c ****   assert_param(IS_DMA_MEMORY_INC_STATE(hdma->Init.MemInc));
 195              		.loc 1 155 3 is_stmt 1 view .LVU46
 196 006c A368     		ldr	r3, [r4, #8]
 197 006e 402B     		cmp	r3, #64
 198 0070 01D0     		beq	.L10
 155:Drivers/STM32F1xx_HAL_Driver/Src/stm32f1xx_hal_dma.c ****   assert_param(IS_DMA_MEMORY_INC_STATE(hdma->Init.MemInc));
 199              		.loc 1 155 3 is_stmt 0 discriminator 1 view .LVU47
 200 0072 002B     		cmp	r3, #0
 201 0074 55D1     		bne	.L24
 202              	.L10:
 156:Drivers/STM32F1xx_HAL_Driver/Src/stm32f1xx_hal_dma.c ****   assert_param(IS_DMA_PERIPHERAL_DATA_SIZE(hdma->Init.PeriphDataAlignment));
 203              		.loc 1 156 3 is_stmt 1 view .LVU48
 204 0076 E368     		ldr	r3, [r4, #12]
 205 0078 802B     		cmp	r3, #128
 206 007a 01D0     		beq	.L11
 156:Drivers/STM32F1xx_HAL_Driver/Src/stm32f1xx_hal_dma.c ****   assert_param(IS_DMA_PERIPHERAL_DATA_SIZE(hdma->Init.PeriphDataAlignment));
 207              		.loc 1 156 3 is_stmt 0 discriminator 1 view .LVU49
 208 007c 002B     		cmp	r3, #0
 209 007e 55D1     		bne	.L25
 210              	.L11:
 157:Drivers/STM32F1xx_HAL_Driver/Src/stm32f1xx_hal_dma.c ****   assert_param(IS_DMA_MEMORY_DATA_SIZE(hdma->Init.MemDataAlignment));
 211              		.loc 1 157 3 is_stmt 1 view .LVU50
 212 0080 2369     		ldr	r3, [r4, #16]
 213 0082 2BB1     		cbz	r3, .L12
 157:Drivers/STM32F1xx_HAL_Driver/Src/stm32f1xx_hal_dma.c ****   assert_param(IS_DMA_MEMORY_DATA_SIZE(hdma->Init.MemDataAlignment));
 214              		.loc 1 157 3 is_stmt 0 discriminator 1 view .LVU51
 215 0084 B3F5807F 		cmp	r3, #256
 216 0088 02D0     		beq	.L12
 157:Drivers/STM32F1xx_HAL_Driver/Src/stm32f1xx_hal_dma.c ****   assert_param(IS_DMA_MEMORY_DATA_SIZE(hdma->Init.MemDataAlignment));
 217              		.loc 1 157 3 discriminator 2 view .LVU52
 218 008a B3F5007F 		cmp	r3, #512
 219 008e 52D1     		bne	.L26
 220              	.L12:
 158:Drivers/STM32F1xx_HAL_Driver/Src/stm32f1xx_hal_dma.c ****   assert_param(IS_DMA_MODE(hdma->Init.Mode));
ARM GAS  C:\Users\begre\AppData\Local\Temp\ccGpVL6f.s 			page 21


 221              		.loc 1 158 3 is_stmt 1 view .LVU53
 222 0090 6369     		ldr	r3, [r4, #20]
 223 0092 2BB1     		cbz	r3, .L13
 158:Drivers/STM32F1xx_HAL_Driver/Src/stm32f1xx_hal_dma.c ****   assert_param(IS_DMA_MODE(hdma->Init.Mode));
 224              		.loc 1 158 3 is_stmt 0 discriminator 1 view .LVU54
 225 0094 B3F5806F 		cmp	r3, #1024
 226 0098 02D0     		beq	.L13
 158:Drivers/STM32F1xx_HAL_Driver/Src/stm32f1xx_hal_dma.c ****   assert_param(IS_DMA_MODE(hdma->Init.Mode));
 227              		.loc 1 158 3 discriminator 2 view .LVU55
 228 009a B3F5006F 		cmp	r3, #2048
 229 009e 4FD1     		bne	.L27
 230              	.L13:
 159:Drivers/STM32F1xx_HAL_Driver/Src/stm32f1xx_hal_dma.c ****   assert_param(IS_DMA_PRIORITY(hdma->Init.Priority));
 231              		.loc 1 159 3 is_stmt 1 view .LVU56
 232 00a0 A369     		ldr	r3, [r4, #24]
 233 00a2 0BB1     		cbz	r3, .L14
 159:Drivers/STM32F1xx_HAL_Driver/Src/stm32f1xx_hal_dma.c ****   assert_param(IS_DMA_PRIORITY(hdma->Init.Priority));
 234              		.loc 1 159 3 is_stmt 0 discriminator 1 view .LVU57
 235 00a4 202B     		cmp	r3, #32
 236 00a6 50D1     		bne	.L28
 237              	.L14:
 160:Drivers/STM32F1xx_HAL_Driver/Src/stm32f1xx_hal_dma.c **** 
 238              		.loc 1 160 3 is_stmt 1 view .LVU58
 239 00a8 E369     		ldr	r3, [r4, #28]
 240 00aa 43B1     		cbz	r3, .L15
 160:Drivers/STM32F1xx_HAL_Driver/Src/stm32f1xx_hal_dma.c **** 
 241              		.loc 1 160 3 is_stmt 0 discriminator 1 view .LVU59
 242 00ac B3F5805F 		cmp	r3, #4096
 243 00b0 05D0     		beq	.L15
 160:Drivers/STM32F1xx_HAL_Driver/Src/stm32f1xx_hal_dma.c **** 
 244              		.loc 1 160 3 discriminator 2 view .LVU60
 245 00b2 B3F5005F 		cmp	r3, #8192
 246 00b6 02D0     		beq	.L15
 160:Drivers/STM32F1xx_HAL_Driver/Src/stm32f1xx_hal_dma.c **** 
 247              		.loc 1 160 3 discriminator 3 view .LVU61
 248 00b8 B3F5405F 		cmp	r3, #12288
 249 00bc 4AD1     		bne	.L29
 250              	.L15:
 164:Drivers/STM32F1xx_HAL_Driver/Src/stm32f1xx_hal_dma.c ****   {
 251              		.loc 1 164 3 is_stmt 1 view .LVU62
 164:Drivers/STM32F1xx_HAL_Driver/Src/stm32f1xx_hal_dma.c ****   {
 252              		.loc 1 164 22 is_stmt 0 view .LVU63
 253 00be 2168     		ldr	r1, [r4]
 164:Drivers/STM32F1xx_HAL_Driver/Src/stm32f1xx_hal_dma.c ****   {
 254              		.loc 1 164 6 view .LVU64
 255 00c0 2F4B     		ldr	r3, .L30+8
 256 00c2 9942     		cmp	r1, r3
 257 00c4 4BD8     		bhi	.L16
 167:Drivers/STM32F1xx_HAL_Driver/Src/stm32f1xx_hal_dma.c ****     hdma->DmaBaseAddress = DMA1;
 258              		.loc 1 167 5 is_stmt 1 view .LVU65
 167:Drivers/STM32F1xx_HAL_Driver/Src/stm32f1xx_hal_dma.c ****     hdma->DmaBaseAddress = DMA1;
 259              		.loc 1 167 53 is_stmt 0 view .LVU66
 260 00c6 2F4B     		ldr	r3, .L30+12
 261 00c8 0B44     		add	r3, r3, r1
 167:Drivers/STM32F1xx_HAL_Driver/Src/stm32f1xx_hal_dma.c ****     hdma->DmaBaseAddress = DMA1;
 262              		.loc 1 167 80 view .LVU67
 263 00ca 2F4A     		ldr	r2, .L30+16
ARM GAS  C:\Users\begre\AppData\Local\Temp\ccGpVL6f.s 			page 22


 264 00cc A2FB0323 		umull	r2, r3, r2, r3
 265 00d0 1B09     		lsrs	r3, r3, #4
 167:Drivers/STM32F1xx_HAL_Driver/Src/stm32f1xx_hal_dma.c ****     hdma->DmaBaseAddress = DMA1;
 266              		.loc 1 167 135 view .LVU68
 267 00d2 9B00     		lsls	r3, r3, #2
 167:Drivers/STM32F1xx_HAL_Driver/Src/stm32f1xx_hal_dma.c ****     hdma->DmaBaseAddress = DMA1;
 268              		.loc 1 167 24 view .LVU69
 269 00d4 2364     		str	r3, [r4, #64]
 168:Drivers/STM32F1xx_HAL_Driver/Src/stm32f1xx_hal_dma.c ****   }
 270              		.loc 1 168 5 is_stmt 1 view .LVU70
 168:Drivers/STM32F1xx_HAL_Driver/Src/stm32f1xx_hal_dma.c ****   }
 271              		.loc 1 168 26 is_stmt 0 view .LVU71
 272 00d6 2D4B     		ldr	r3, .L30+20
 273 00d8 E363     		str	r3, [r4, #60]
 274              	.L17:
 183:Drivers/STM32F1xx_HAL_Driver/Src/stm32f1xx_hal_dma.c **** 
 275              		.loc 1 183 3 is_stmt 1 view .LVU72
 183:Drivers/STM32F1xx_HAL_Driver/Src/stm32f1xx_hal_dma.c **** 
 276              		.loc 1 183 15 is_stmt 0 view .LVU73
 277 00da 0223     		movs	r3, #2
 278 00dc 84F82130 		strb	r3, [r4, #33]
 186:Drivers/STM32F1xx_HAL_Driver/Src/stm32f1xx_hal_dma.c **** 
 279              		.loc 1 186 3 is_stmt 1 view .LVU74
 186:Drivers/STM32F1xx_HAL_Driver/Src/stm32f1xx_hal_dma.c **** 
 280              		.loc 1 186 7 is_stmt 0 view .LVU75
 281 00e0 0A68     		ldr	r2, [r1]
 282              	.LVL8:
 189:Drivers/STM32F1xx_HAL_Driver/Src/stm32f1xx_hal_dma.c ****                       DMA_CCR_MINC  | DMA_CCR_PINC   | DMA_CCR_CIRC   | \
 283              		.loc 1 189 3 is_stmt 1 view .LVU76
 189:Drivers/STM32F1xx_HAL_Driver/Src/stm32f1xx_hal_dma.c ****                       DMA_CCR_MINC  | DMA_CCR_PINC   | DMA_CCR_CIRC   | \
 284              		.loc 1 189 7 is_stmt 0 view .LVU77
 285 00e2 22F47F52 		bic	r2, r2, #16320
 286              	.LVL9:
 189:Drivers/STM32F1xx_HAL_Driver/Src/stm32f1xx_hal_dma.c ****                       DMA_CCR_MINC  | DMA_CCR_PINC   | DMA_CCR_CIRC   | \
 287              		.loc 1 189 7 view .LVU78
 288 00e6 22F03002 		bic	r2, r2, #48
 289              	.LVL10:
 194:Drivers/STM32F1xx_HAL_Driver/Src/stm32f1xx_hal_dma.c ****           hdma->Init.PeriphInc           | hdma->Init.MemInc           |
 290              		.loc 1 194 3 is_stmt 1 view .LVU79
 194:Drivers/STM32F1xx_HAL_Driver/Src/stm32f1xx_hal_dma.c ****           hdma->Init.PeriphInc           | hdma->Init.MemInc           |
 291              		.loc 1 194 21 is_stmt 0 view .LVU80
 292 00ea 6368     		ldr	r3, [r4, #4]
 195:Drivers/STM32F1xx_HAL_Driver/Src/stm32f1xx_hal_dma.c ****           hdma->Init.PeriphDataAlignment | hdma->Init.MemDataAlignment |
 293              		.loc 1 195 21 view .LVU81
 294 00ec A068     		ldr	r0, [r4, #8]
 194:Drivers/STM32F1xx_HAL_Driver/Src/stm32f1xx_hal_dma.c ****           hdma->Init.PeriphInc           | hdma->Init.MemInc           |
 295              		.loc 1 194 39 view .LVU82
 296 00ee 0343     		orrs	r3, r3, r0
 195:Drivers/STM32F1xx_HAL_Driver/Src/stm32f1xx_hal_dma.c ****           hdma->Init.PeriphDataAlignment | hdma->Init.MemDataAlignment |
 297              		.loc 1 195 54 view .LVU83
 298 00f0 E068     		ldr	r0, [r4, #12]
 195:Drivers/STM32F1xx_HAL_Driver/Src/stm32f1xx_hal_dma.c ****           hdma->Init.PeriphDataAlignment | hdma->Init.MemDataAlignment |
 299              		.loc 1 195 42 view .LVU84
 300 00f2 0343     		orrs	r3, r3, r0
 196:Drivers/STM32F1xx_HAL_Driver/Src/stm32f1xx_hal_dma.c ****           hdma->Init.Mode                | hdma->Init.Priority;
 301              		.loc 1 196 21 view .LVU85
 302 00f4 2069     		ldr	r0, [r4, #16]
ARM GAS  C:\Users\begre\AppData\Local\Temp\ccGpVL6f.s 			page 23


 195:Drivers/STM32F1xx_HAL_Driver/Src/stm32f1xx_hal_dma.c ****           hdma->Init.PeriphDataAlignment | hdma->Init.MemDataAlignment |
 303              		.loc 1 195 72 view .LVU86
 304 00f6 0343     		orrs	r3, r3, r0
 196:Drivers/STM32F1xx_HAL_Driver/Src/stm32f1xx_hal_dma.c ****           hdma->Init.Mode                | hdma->Init.Priority;
 305              		.loc 1 196 54 view .LVU87
 306 00f8 6069     		ldr	r0, [r4, #20]
 196:Drivers/STM32F1xx_HAL_Driver/Src/stm32f1xx_hal_dma.c ****           hdma->Init.Mode                | hdma->Init.Priority;
 307              		.loc 1 196 42 view .LVU88
 308 00fa 0343     		orrs	r3, r3, r0
 197:Drivers/STM32F1xx_HAL_Driver/Src/stm32f1xx_hal_dma.c **** 
 309              		.loc 1 197 21 view .LVU89
 310 00fc A069     		ldr	r0, [r4, #24]
 196:Drivers/STM32F1xx_HAL_Driver/Src/stm32f1xx_hal_dma.c ****           hdma->Init.Mode                | hdma->Init.Priority;
 311              		.loc 1 196 72 view .LVU90
 312 00fe 0343     		orrs	r3, r3, r0
 197:Drivers/STM32F1xx_HAL_Driver/Src/stm32f1xx_hal_dma.c **** 
 313              		.loc 1 197 54 view .LVU91
 314 0100 E069     		ldr	r0, [r4, #28]
 197:Drivers/STM32F1xx_HAL_Driver/Src/stm32f1xx_hal_dma.c **** 
 315              		.loc 1 197 42 view .LVU92
 316 0102 0343     		orrs	r3, r3, r0
 194:Drivers/STM32F1xx_HAL_Driver/Src/stm32f1xx_hal_dma.c ****           hdma->Init.PeriphInc           | hdma->Init.MemInc           |
 317              		.loc 1 194 7 view .LVU93
 318 0104 1343     		orrs	r3, r3, r2
 319              	.LVL11:
 200:Drivers/STM32F1xx_HAL_Driver/Src/stm32f1xx_hal_dma.c **** 
 320              		.loc 1 200 3 is_stmt 1 view .LVU94
 200:Drivers/STM32F1xx_HAL_Driver/Src/stm32f1xx_hal_dma.c **** 
 321              		.loc 1 200 23 is_stmt 0 view .LVU95
 322 0106 0B60     		str	r3, [r1]
 203:Drivers/STM32F1xx_HAL_Driver/Src/stm32f1xx_hal_dma.c **** 
 323              		.loc 1 203 3 is_stmt 1 view .LVU96
 203:Drivers/STM32F1xx_HAL_Driver/Src/stm32f1xx_hal_dma.c **** 
 324              		.loc 1 203 19 is_stmt 0 view .LVU97
 325 0108 0020     		movs	r0, #0
 326 010a A063     		str	r0, [r4, #56]
 206:Drivers/STM32F1xx_HAL_Driver/Src/stm32f1xx_hal_dma.c ****   /* Allocate lock resource and initialize it */
 327              		.loc 1 206 3 is_stmt 1 view .LVU98
 206:Drivers/STM32F1xx_HAL_Driver/Src/stm32f1xx_hal_dma.c ****   /* Allocate lock resource and initialize it */
 328              		.loc 1 206 15 is_stmt 0 view .LVU99
 329 010c 0123     		movs	r3, #1
 330              	.LVL12:
 206:Drivers/STM32F1xx_HAL_Driver/Src/stm32f1xx_hal_dma.c ****   /* Allocate lock resource and initialize it */
 331              		.loc 1 206 15 view .LVU100
 332 010e 84F82130 		strb	r3, [r4, #33]
 208:Drivers/STM32F1xx_HAL_Driver/Src/stm32f1xx_hal_dma.c **** 
 333              		.loc 1 208 3 is_stmt 1 view .LVU101
 208:Drivers/STM32F1xx_HAL_Driver/Src/stm32f1xx_hal_dma.c **** 
 334              		.loc 1 208 14 is_stmt 0 view .LVU102
 335 0112 84F82000 		strb	r0, [r4, #32]
 210:Drivers/STM32F1xx_HAL_Driver/Src/stm32f1xx_hal_dma.c **** }
 336              		.loc 1 210 3 is_stmt 1 view .LVU103
 211:Drivers/STM32F1xx_HAL_Driver/Src/stm32f1xx_hal_dma.c **** 
 337              		.loc 1 211 1 is_stmt 0 view .LVU104
 338 0116 10BD     		pop	{r4, pc}
 339              	.LVL13:
 340              	.L23:
ARM GAS  C:\Users\begre\AppData\Local\Temp\ccGpVL6f.s 			page 24


 154:Drivers/STM32F1xx_HAL_Driver/Src/stm32f1xx_hal_dma.c ****   assert_param(IS_DMA_PERIPHERAL_INC_STATE(hdma->Init.PeriphInc));
 341              		.loc 1 154 3 discriminator 3 view .LVU105
 342 0118 9A21     		movs	r1, #154
 343 011a 1848     		ldr	r0, .L30+4
 344 011c FFF7FEFF 		bl	assert_failed
 345              	.LVL14:
 346 0120 A4E7     		b	.L9
 347              	.L24:
 155:Drivers/STM32F1xx_HAL_Driver/Src/stm32f1xx_hal_dma.c ****   assert_param(IS_DMA_MEMORY_INC_STATE(hdma->Init.MemInc));
 348              		.loc 1 155 3 discriminator 2 view .LVU106
 349 0122 9B21     		movs	r1, #155
 350 0124 1548     		ldr	r0, .L30+4
 351 0126 FFF7FEFF 		bl	assert_failed
 352              	.LVL15:
 353 012a A4E7     		b	.L10
 354              	.L25:
 156:Drivers/STM32F1xx_HAL_Driver/Src/stm32f1xx_hal_dma.c ****   assert_param(IS_DMA_PERIPHERAL_DATA_SIZE(hdma->Init.PeriphDataAlignment));
 355              		.loc 1 156 3 discriminator 2 view .LVU107
 356 012c 9C21     		movs	r1, #156
 357 012e 1348     		ldr	r0, .L30+4
 358 0130 FFF7FEFF 		bl	assert_failed
 359              	.LVL16:
 360 0134 A4E7     		b	.L11
 361              	.L26:
 157:Drivers/STM32F1xx_HAL_Driver/Src/stm32f1xx_hal_dma.c ****   assert_param(IS_DMA_MEMORY_DATA_SIZE(hdma->Init.MemDataAlignment));
 362              		.loc 1 157 3 discriminator 3 view .LVU108
 363 0136 9D21     		movs	r1, #157
 364 0138 1048     		ldr	r0, .L30+4
 365 013a FFF7FEFF 		bl	assert_failed
 366              	.LVL17:
 367 013e A7E7     		b	.L12
 368              	.L27:
 158:Drivers/STM32F1xx_HAL_Driver/Src/stm32f1xx_hal_dma.c ****   assert_param(IS_DMA_MODE(hdma->Init.Mode));
 369              		.loc 1 158 3 discriminator 3 view .LVU109
 370 0140 9E21     		movs	r1, #158
 371 0142 0E48     		ldr	r0, .L30+4
 372 0144 FFF7FEFF 		bl	assert_failed
 373              	.LVL18:
 374 0148 AAE7     		b	.L13
 375              	.L28:
 159:Drivers/STM32F1xx_HAL_Driver/Src/stm32f1xx_hal_dma.c ****   assert_param(IS_DMA_PRIORITY(hdma->Init.Priority));
 376              		.loc 1 159 3 discriminator 2 view .LVU110
 377 014a 9F21     		movs	r1, #159
 378 014c 0B48     		ldr	r0, .L30+4
 379 014e FFF7FEFF 		bl	assert_failed
 380              	.LVL19:
 381 0152 A9E7     		b	.L14
 382              	.L29:
 160:Drivers/STM32F1xx_HAL_Driver/Src/stm32f1xx_hal_dma.c **** 
 383              		.loc 1 160 3 discriminator 4 view .LVU111
 384 0154 A021     		movs	r1, #160
 385 0156 0948     		ldr	r0, .L30+4
 386 0158 FFF7FEFF 		bl	assert_failed
 387              	.LVL20:
 388 015c AFE7     		b	.L15
 389              	.L16:
 173:Drivers/STM32F1xx_HAL_Driver/Src/stm32f1xx_hal_dma.c ****     hdma->DmaBaseAddress = DMA2;
ARM GAS  C:\Users\begre\AppData\Local\Temp\ccGpVL6f.s 			page 25


 390              		.loc 1 173 5 is_stmt 1 view .LVU112
 173:Drivers/STM32F1xx_HAL_Driver/Src/stm32f1xx_hal_dma.c ****     hdma->DmaBaseAddress = DMA2;
 391              		.loc 1 173 53 is_stmt 0 view .LVU113
 392 015e 0C4B     		ldr	r3, .L30+24
 393 0160 0B44     		add	r3, r3, r1
 173:Drivers/STM32F1xx_HAL_Driver/Src/stm32f1xx_hal_dma.c ****     hdma->DmaBaseAddress = DMA2;
 394              		.loc 1 173 80 view .LVU114
 395 0162 094A     		ldr	r2, .L30+16
 396 0164 A2FB0323 		umull	r2, r3, r2, r3
 397 0168 1B09     		lsrs	r3, r3, #4
 173:Drivers/STM32F1xx_HAL_Driver/Src/stm32f1xx_hal_dma.c ****     hdma->DmaBaseAddress = DMA2;
 398              		.loc 1 173 135 view .LVU115
 399 016a 9B00     		lsls	r3, r3, #2
 173:Drivers/STM32F1xx_HAL_Driver/Src/stm32f1xx_hal_dma.c ****     hdma->DmaBaseAddress = DMA2;
 400              		.loc 1 173 24 view .LVU116
 401 016c 2364     		str	r3, [r4, #64]
 174:Drivers/STM32F1xx_HAL_Driver/Src/stm32f1xx_hal_dma.c ****   }
 402              		.loc 1 174 5 is_stmt 1 view .LVU117
 174:Drivers/STM32F1xx_HAL_Driver/Src/stm32f1xx_hal_dma.c ****   }
 403              		.loc 1 174 26 is_stmt 0 view .LVU118
 404 016e 094B     		ldr	r3, .L30+28
 405 0170 E363     		str	r3, [r4, #60]
 406 0172 B2E7     		b	.L17
 407              	.LVL21:
 408              	.L18:
 409              	.LCFI4:
 410              		.cfi_def_cfa_offset 0
 411              		.cfi_restore 4
 412              		.cfi_restore 14
 149:Drivers/STM32F1xx_HAL_Driver/Src/stm32f1xx_hal_dma.c ****   }
 413              		.loc 1 149 12 view .LVU119
 414 0174 0120     		movs	r0, #1
 415              	.LVL22:
 211:Drivers/STM32F1xx_HAL_Driver/Src/stm32f1xx_hal_dma.c **** 
 416              		.loc 1 211 1 view .LVU120
 417 0176 7047     		bx	lr
 418              	.L31:
 419              		.align	2
 420              	.L30:
 421 0178 08000240 		.word	1073872904
 422 017c 00000000 		.word	.LC0
 423 0180 07040240 		.word	1073873927
 424 0184 F8FFFDBF 		.word	-1073872904
 425 0188 CDCCCCCC 		.word	-858993459
 426 018c 00000240 		.word	1073872896
 427 0190 F8FBFDBF 		.word	-1073873928
 428 0194 00040240 		.word	1073873920
 429              		.cfi_endproc
 430              	.LFE65:
 432              		.section	.text.HAL_DMA_DeInit,"ax",%progbits
 433              		.align	1
 434              		.global	HAL_DMA_DeInit
 435              		.syntax unified
 436              		.thumb
 437              		.thumb_func
 439              	HAL_DMA_DeInit:
 440              	.LVL23:
ARM GAS  C:\Users\begre\AppData\Local\Temp\ccGpVL6f.s 			page 26


 441              	.LFB66:
 220:Drivers/STM32F1xx_HAL_Driver/Src/stm32f1xx_hal_dma.c ****   /* Check the DMA handle allocation */
 442              		.loc 1 220 1 is_stmt 1 view -0
 443              		.cfi_startproc
 444              		@ args = 0, pretend = 0, frame = 0
 445              		@ frame_needed = 0, uses_anonymous_args = 0
 222:Drivers/STM32F1xx_HAL_Driver/Src/stm32f1xx_hal_dma.c ****   {
 446              		.loc 1 222 3 view .LVU122
 222:Drivers/STM32F1xx_HAL_Driver/Src/stm32f1xx_hal_dma.c ****   {
 447              		.loc 1 222 5 is_stmt 0 view .LVU123
 448 0000 0028     		cmp	r0, #0
 449 0002 62D0     		beq	.L37
 220:Drivers/STM32F1xx_HAL_Driver/Src/stm32f1xx_hal_dma.c ****   /* Check the DMA handle allocation */
 450              		.loc 1 220 1 view .LVU124
 451 0004 10B5     		push	{r4, lr}
 452              	.LCFI5:
 453              		.cfi_def_cfa_offset 8
 454              		.cfi_offset 4, -8
 455              		.cfi_offset 14, -4
 456 0006 0446     		mov	r4, r0
 228:Drivers/STM32F1xx_HAL_Driver/Src/stm32f1xx_hal_dma.c **** 
 457              		.loc 1 228 3 is_stmt 1 view .LVU125
 458 0008 0368     		ldr	r3, [r0]
 459 000a 314A     		ldr	r2, .L42
 460 000c 9342     		cmp	r3, r2
 461 000e 25D0     		beq	.L34
 228:Drivers/STM32F1xx_HAL_Driver/Src/stm32f1xx_hal_dma.c **** 
 462              		.loc 1 228 3 is_stmt 0 discriminator 1 view .LVU126
 463 0010 1432     		adds	r2, r2, #20
 464 0012 9342     		cmp	r3, r2
 465 0014 22D0     		beq	.L34
 228:Drivers/STM32F1xx_HAL_Driver/Src/stm32f1xx_hal_dma.c **** 
 466              		.loc 1 228 3 discriminator 2 view .LVU127
 467 0016 1432     		adds	r2, r2, #20
 468 0018 9342     		cmp	r3, r2
 469 001a 1FD0     		beq	.L34
 228:Drivers/STM32F1xx_HAL_Driver/Src/stm32f1xx_hal_dma.c **** 
 470              		.loc 1 228 3 discriminator 3 view .LVU128
 471 001c 1432     		adds	r2, r2, #20
 472 001e 9342     		cmp	r3, r2
 473 0020 1CD0     		beq	.L34
 228:Drivers/STM32F1xx_HAL_Driver/Src/stm32f1xx_hal_dma.c **** 
 474              		.loc 1 228 3 discriminator 4 view .LVU129
 475 0022 1432     		adds	r2, r2, #20
 476 0024 9342     		cmp	r3, r2
 477 0026 19D0     		beq	.L34
 228:Drivers/STM32F1xx_HAL_Driver/Src/stm32f1xx_hal_dma.c **** 
 478              		.loc 1 228 3 discriminator 5 view .LVU130
 479 0028 1432     		adds	r2, r2, #20
 480 002a 9342     		cmp	r3, r2
 481 002c 16D0     		beq	.L34
 228:Drivers/STM32F1xx_HAL_Driver/Src/stm32f1xx_hal_dma.c **** 
 482              		.loc 1 228 3 discriminator 6 view .LVU131
 483 002e 1432     		adds	r2, r2, #20
 484 0030 9342     		cmp	r3, r2
 485 0032 13D0     		beq	.L34
 228:Drivers/STM32F1xx_HAL_Driver/Src/stm32f1xx_hal_dma.c **** 
ARM GAS  C:\Users\begre\AppData\Local\Temp\ccGpVL6f.s 			page 27


 486              		.loc 1 228 3 discriminator 7 view .LVU132
 487 0034 02F56272 		add	r2, r2, #904
 488 0038 9342     		cmp	r3, r2
 489 003a 0FD0     		beq	.L34
 228:Drivers/STM32F1xx_HAL_Driver/Src/stm32f1xx_hal_dma.c **** 
 490              		.loc 1 228 3 discriminator 8 view .LVU133
 491 003c 1432     		adds	r2, r2, #20
 492 003e 9342     		cmp	r3, r2
 493 0040 0CD0     		beq	.L34
 228:Drivers/STM32F1xx_HAL_Driver/Src/stm32f1xx_hal_dma.c **** 
 494              		.loc 1 228 3 discriminator 9 view .LVU134
 495 0042 1432     		adds	r2, r2, #20
 496 0044 9342     		cmp	r3, r2
 497 0046 09D0     		beq	.L34
 228:Drivers/STM32F1xx_HAL_Driver/Src/stm32f1xx_hal_dma.c **** 
 498              		.loc 1 228 3 discriminator 10 view .LVU135
 499 0048 1432     		adds	r2, r2, #20
 500 004a 9342     		cmp	r3, r2
 501 004c 06D0     		beq	.L34
 228:Drivers/STM32F1xx_HAL_Driver/Src/stm32f1xx_hal_dma.c **** 
 502              		.loc 1 228 3 discriminator 11 view .LVU136
 503 004e 1432     		adds	r2, r2, #20
 504 0050 9342     		cmp	r3, r2
 505 0052 03D0     		beq	.L34
 228:Drivers/STM32F1xx_HAL_Driver/Src/stm32f1xx_hal_dma.c **** 
 506              		.loc 1 228 3 discriminator 12 view .LVU137
 507 0054 E421     		movs	r1, #228
 508 0056 1F48     		ldr	r0, .L42+4
 509              	.LVL24:
 228:Drivers/STM32F1xx_HAL_Driver/Src/stm32f1xx_hal_dma.c **** 
 510              		.loc 1 228 3 discriminator 12 view .LVU138
 511 0058 FFF7FEFF 		bl	assert_failed
 512              	.LVL25:
 513              	.L34:
 231:Drivers/STM32F1xx_HAL_Driver/Src/stm32f1xx_hal_dma.c **** 
 514              		.loc 1 231 3 is_stmt 1 view .LVU139
 515 005c 2268     		ldr	r2, [r4]
 516 005e 1368     		ldr	r3, [r2]
 517 0060 23F00103 		bic	r3, r3, #1
 518 0064 1360     		str	r3, [r2]
 234:Drivers/STM32F1xx_HAL_Driver/Src/stm32f1xx_hal_dma.c **** 
 519              		.loc 1 234 3 view .LVU140
 234:Drivers/STM32F1xx_HAL_Driver/Src/stm32f1xx_hal_dma.c **** 
 520              		.loc 1 234 7 is_stmt 0 view .LVU141
 521 0066 2268     		ldr	r2, [r4]
 234:Drivers/STM32F1xx_HAL_Driver/Src/stm32f1xx_hal_dma.c **** 
 522              		.loc 1 234 24 view .LVU142
 523 0068 0023     		movs	r3, #0
 524 006a 1360     		str	r3, [r2]
 237:Drivers/STM32F1xx_HAL_Driver/Src/stm32f1xx_hal_dma.c **** 
 525              		.loc 1 237 3 is_stmt 1 view .LVU143
 237:Drivers/STM32F1xx_HAL_Driver/Src/stm32f1xx_hal_dma.c **** 
 526              		.loc 1 237 7 is_stmt 0 view .LVU144
 527 006c 2268     		ldr	r2, [r4]
 237:Drivers/STM32F1xx_HAL_Driver/Src/stm32f1xx_hal_dma.c **** 
 528              		.loc 1 237 25 view .LVU145
 529 006e 5360     		str	r3, [r2, #4]
ARM GAS  C:\Users\begre\AppData\Local\Temp\ccGpVL6f.s 			page 28


 240:Drivers/STM32F1xx_HAL_Driver/Src/stm32f1xx_hal_dma.c **** 
 530              		.loc 1 240 3 is_stmt 1 view .LVU146
 240:Drivers/STM32F1xx_HAL_Driver/Src/stm32f1xx_hal_dma.c **** 
 531              		.loc 1 240 7 is_stmt 0 view .LVU147
 532 0070 2268     		ldr	r2, [r4]
 240:Drivers/STM32F1xx_HAL_Driver/Src/stm32f1xx_hal_dma.c **** 
 533              		.loc 1 240 25 view .LVU148
 534 0072 9360     		str	r3, [r2, #8]
 243:Drivers/STM32F1xx_HAL_Driver/Src/stm32f1xx_hal_dma.c **** 
 535              		.loc 1 243 3 is_stmt 1 view .LVU149
 243:Drivers/STM32F1xx_HAL_Driver/Src/stm32f1xx_hal_dma.c **** 
 536              		.loc 1 243 7 is_stmt 0 view .LVU150
 537 0074 2268     		ldr	r2, [r4]
 243:Drivers/STM32F1xx_HAL_Driver/Src/stm32f1xx_hal_dma.c **** 
 538              		.loc 1 243 24 view .LVU151
 539 0076 D360     		str	r3, [r2, #12]
 247:Drivers/STM32F1xx_HAL_Driver/Src/stm32f1xx_hal_dma.c ****   {
 540              		.loc 1 247 3 is_stmt 1 view .LVU152
 247:Drivers/STM32F1xx_HAL_Driver/Src/stm32f1xx_hal_dma.c ****   {
 541              		.loc 1 247 22 is_stmt 0 view .LVU153
 542 0078 2268     		ldr	r2, [r4]
 247:Drivers/STM32F1xx_HAL_Driver/Src/stm32f1xx_hal_dma.c ****   {
 543              		.loc 1 247 6 view .LVU154
 544 007a 174B     		ldr	r3, .L42+8
 545 007c 9A42     		cmp	r2, r3
 546 007e 19D8     		bhi	.L35
 250:Drivers/STM32F1xx_HAL_Driver/Src/stm32f1xx_hal_dma.c ****     hdma->DmaBaseAddress = DMA1;
 547              		.loc 1 250 5 is_stmt 1 view .LVU155
 250:Drivers/STM32F1xx_HAL_Driver/Src/stm32f1xx_hal_dma.c ****     hdma->DmaBaseAddress = DMA1;
 548              		.loc 1 250 53 is_stmt 0 view .LVU156
 549 0080 164B     		ldr	r3, .L42+12
 550 0082 1344     		add	r3, r3, r2
 250:Drivers/STM32F1xx_HAL_Driver/Src/stm32f1xx_hal_dma.c ****     hdma->DmaBaseAddress = DMA1;
 551              		.loc 1 250 80 view .LVU157
 552 0084 164A     		ldr	r2, .L42+16
 553 0086 A2FB0323 		umull	r2, r3, r2, r3
 554 008a 1B09     		lsrs	r3, r3, #4
 250:Drivers/STM32F1xx_HAL_Driver/Src/stm32f1xx_hal_dma.c ****     hdma->DmaBaseAddress = DMA1;
 555              		.loc 1 250 135 view .LVU158
 556 008c 9B00     		lsls	r3, r3, #2
 250:Drivers/STM32F1xx_HAL_Driver/Src/stm32f1xx_hal_dma.c ****     hdma->DmaBaseAddress = DMA1;
 557              		.loc 1 250 24 view .LVU159
 558 008e 2364     		str	r3, [r4, #64]
 251:Drivers/STM32F1xx_HAL_Driver/Src/stm32f1xx_hal_dma.c ****   }
 559              		.loc 1 251 5 is_stmt 1 view .LVU160
 251:Drivers/STM32F1xx_HAL_Driver/Src/stm32f1xx_hal_dma.c ****   }
 560              		.loc 1 251 26 is_stmt 0 view .LVU161
 561 0090 144B     		ldr	r3, .L42+20
 562 0092 E363     		str	r3, [r4, #60]
 563              	.L36:
 266:Drivers/STM32F1xx_HAL_Driver/Src/stm32f1xx_hal_dma.c **** 
 564              		.loc 1 266 3 is_stmt 1 view .LVU162
 266:Drivers/STM32F1xx_HAL_Driver/Src/stm32f1xx_hal_dma.c **** 
 565              		.loc 1 266 54 is_stmt 0 view .LVU163
 566 0094 216C     		ldr	r1, [r4, #64]
 266:Drivers/STM32F1xx_HAL_Driver/Src/stm32f1xx_hal_dma.c **** 
 567              		.loc 1 266 7 view .LVU164
ARM GAS  C:\Users\begre\AppData\Local\Temp\ccGpVL6f.s 			page 29


 568 0096 E26B     		ldr	r2, [r4, #60]
 266:Drivers/STM32F1xx_HAL_Driver/Src/stm32f1xx_hal_dma.c **** 
 569              		.loc 1 266 46 view .LVU165
 570 0098 0123     		movs	r3, #1
 571 009a 8B40     		lsls	r3, r3, r1
 266:Drivers/STM32F1xx_HAL_Driver/Src/stm32f1xx_hal_dma.c **** 
 572              		.loc 1 266 30 view .LVU166
 573 009c 5360     		str	r3, [r2, #4]
 269:Drivers/STM32F1xx_HAL_Driver/Src/stm32f1xx_hal_dma.c ****   hdma->XferHalfCpltCallback = NULL;
 574              		.loc 1 269 3 is_stmt 1 view .LVU167
 269:Drivers/STM32F1xx_HAL_Driver/Src/stm32f1xx_hal_dma.c ****   hdma->XferHalfCpltCallback = NULL;
 575              		.loc 1 269 26 is_stmt 0 view .LVU168
 576 009e 0020     		movs	r0, #0
 577 00a0 A062     		str	r0, [r4, #40]
 270:Drivers/STM32F1xx_HAL_Driver/Src/stm32f1xx_hal_dma.c ****   hdma->XferErrorCallback = NULL;
 578              		.loc 1 270 3 is_stmt 1 view .LVU169
 270:Drivers/STM32F1xx_HAL_Driver/Src/stm32f1xx_hal_dma.c ****   hdma->XferErrorCallback = NULL;
 579              		.loc 1 270 30 is_stmt 0 view .LVU170
 580 00a2 E062     		str	r0, [r4, #44]
 271:Drivers/STM32F1xx_HAL_Driver/Src/stm32f1xx_hal_dma.c ****   hdma->XferAbortCallback = NULL;
 581              		.loc 1 271 3 is_stmt 1 view .LVU171
 271:Drivers/STM32F1xx_HAL_Driver/Src/stm32f1xx_hal_dma.c ****   hdma->XferAbortCallback = NULL;
 582              		.loc 1 271 27 is_stmt 0 view .LVU172
 583 00a4 2063     		str	r0, [r4, #48]
 272:Drivers/STM32F1xx_HAL_Driver/Src/stm32f1xx_hal_dma.c **** 
 584              		.loc 1 272 3 is_stmt 1 view .LVU173
 272:Drivers/STM32F1xx_HAL_Driver/Src/stm32f1xx_hal_dma.c **** 
 585              		.loc 1 272 27 is_stmt 0 view .LVU174
 586 00a6 6063     		str	r0, [r4, #52]
 275:Drivers/STM32F1xx_HAL_Driver/Src/stm32f1xx_hal_dma.c **** 
 587              		.loc 1 275 3 is_stmt 1 view .LVU175
 275:Drivers/STM32F1xx_HAL_Driver/Src/stm32f1xx_hal_dma.c **** 
 588              		.loc 1 275 19 is_stmt 0 view .LVU176
 589 00a8 A063     		str	r0, [r4, #56]
 278:Drivers/STM32F1xx_HAL_Driver/Src/stm32f1xx_hal_dma.c **** 
 590              		.loc 1 278 3 is_stmt 1 view .LVU177
 278:Drivers/STM32F1xx_HAL_Driver/Src/stm32f1xx_hal_dma.c **** 
 591              		.loc 1 278 15 is_stmt 0 view .LVU178
 592 00aa 84F82100 		strb	r0, [r4, #33]
 281:Drivers/STM32F1xx_HAL_Driver/Src/stm32f1xx_hal_dma.c **** 
 593              		.loc 1 281 3 is_stmt 1 view .LVU179
 281:Drivers/STM32F1xx_HAL_Driver/Src/stm32f1xx_hal_dma.c **** 
 594              		.loc 1 281 3 view .LVU180
 595 00ae 84F82000 		strb	r0, [r4, #32]
 281:Drivers/STM32F1xx_HAL_Driver/Src/stm32f1xx_hal_dma.c **** 
 596              		.loc 1 281 3 view .LVU181
 283:Drivers/STM32F1xx_HAL_Driver/Src/stm32f1xx_hal_dma.c **** }
 597              		.loc 1 283 3 view .LVU182
 284:Drivers/STM32F1xx_HAL_Driver/Src/stm32f1xx_hal_dma.c **** 
 598              		.loc 1 284 1 is_stmt 0 view .LVU183
 599 00b2 10BD     		pop	{r4, pc}
 600              	.LVL26:
 601              	.L35:
 256:Drivers/STM32F1xx_HAL_Driver/Src/stm32f1xx_hal_dma.c ****     hdma->DmaBaseAddress = DMA2;
 602              		.loc 1 256 5 is_stmt 1 view .LVU184
 256:Drivers/STM32F1xx_HAL_Driver/Src/stm32f1xx_hal_dma.c ****     hdma->DmaBaseAddress = DMA2;
 603              		.loc 1 256 53 is_stmt 0 view .LVU185
ARM GAS  C:\Users\begre\AppData\Local\Temp\ccGpVL6f.s 			page 30


 604 00b4 0C4B     		ldr	r3, .L42+24
 605 00b6 1344     		add	r3, r3, r2
 256:Drivers/STM32F1xx_HAL_Driver/Src/stm32f1xx_hal_dma.c ****     hdma->DmaBaseAddress = DMA2;
 606              		.loc 1 256 80 view .LVU186
 607 00b8 094A     		ldr	r2, .L42+16
 608 00ba A2FB0323 		umull	r2, r3, r2, r3
 609 00be 1B09     		lsrs	r3, r3, #4
 256:Drivers/STM32F1xx_HAL_Driver/Src/stm32f1xx_hal_dma.c ****     hdma->DmaBaseAddress = DMA2;
 610              		.loc 1 256 135 view .LVU187
 611 00c0 9B00     		lsls	r3, r3, #2
 256:Drivers/STM32F1xx_HAL_Driver/Src/stm32f1xx_hal_dma.c ****     hdma->DmaBaseAddress = DMA2;
 612              		.loc 1 256 24 view .LVU188
 613 00c2 2364     		str	r3, [r4, #64]
 257:Drivers/STM32F1xx_HAL_Driver/Src/stm32f1xx_hal_dma.c ****   }
 614              		.loc 1 257 5 is_stmt 1 view .LVU189
 257:Drivers/STM32F1xx_HAL_Driver/Src/stm32f1xx_hal_dma.c ****   }
 615              		.loc 1 257 26 is_stmt 0 view .LVU190
 616 00c4 094B     		ldr	r3, .L42+28
 617 00c6 E363     		str	r3, [r4, #60]
 618 00c8 E4E7     		b	.L36
 619              	.LVL27:
 620              	.L37:
 621              	.LCFI6:
 622              		.cfi_def_cfa_offset 0
 623              		.cfi_restore 4
 624              		.cfi_restore 14
 224:Drivers/STM32F1xx_HAL_Driver/Src/stm32f1xx_hal_dma.c ****   }
 625              		.loc 1 224 12 view .LVU191
 626 00ca 0120     		movs	r0, #1
 627              	.LVL28:
 284:Drivers/STM32F1xx_HAL_Driver/Src/stm32f1xx_hal_dma.c **** 
 628              		.loc 1 284 1 view .LVU192
 629 00cc 7047     		bx	lr
 630              	.L43:
 631 00ce 00BF     		.align	2
 632              	.L42:
 633 00d0 08000240 		.word	1073872904
 634 00d4 00000000 		.word	.LC0
 635 00d8 07040240 		.word	1073873927
 636 00dc F8FFFDBF 		.word	-1073872904
 637 00e0 CDCCCCCC 		.word	-858993459
 638 00e4 00000240 		.word	1073872896
 639 00e8 F8FBFDBF 		.word	-1073873928
 640 00ec 00040240 		.word	1073873920
 641              		.cfi_endproc
 642              	.LFE66:
 644              		.section	.text.HAL_DMA_Start,"ax",%progbits
 645              		.align	1
 646              		.global	HAL_DMA_Start
 647              		.syntax unified
 648              		.thumb
 649              		.thumb_func
 651              	HAL_DMA_Start:
 652              	.LVL29:
 653              	.LFB67:
 319:Drivers/STM32F1xx_HAL_Driver/Src/stm32f1xx_hal_dma.c ****   HAL_StatusTypeDef status = HAL_OK;
 654              		.loc 1 319 1 is_stmt 1 view -0
ARM GAS  C:\Users\begre\AppData\Local\Temp\ccGpVL6f.s 			page 31


 655              		.cfi_startproc
 656              		@ args = 0, pretend = 0, frame = 0
 657              		@ frame_needed = 0, uses_anonymous_args = 0
 319:Drivers/STM32F1xx_HAL_Driver/Src/stm32f1xx_hal_dma.c ****   HAL_StatusTypeDef status = HAL_OK;
 658              		.loc 1 319 1 is_stmt 0 view .LVU194
 659 0000 2DE9F041 		push	{r4, r5, r6, r7, r8, lr}
 660              	.LCFI7:
 661              		.cfi_def_cfa_offset 24
 662              		.cfi_offset 4, -24
 663              		.cfi_offset 5, -20
 664              		.cfi_offset 6, -16
 665              		.cfi_offset 7, -12
 666              		.cfi_offset 8, -8
 667              		.cfi_offset 14, -4
 668 0004 0446     		mov	r4, r0
 669 0006 0E46     		mov	r6, r1
 670 0008 1746     		mov	r7, r2
 671 000a 1D46     		mov	r5, r3
 320:Drivers/STM32F1xx_HAL_Driver/Src/stm32f1xx_hal_dma.c **** 
 672              		.loc 1 320 3 is_stmt 1 view .LVU195
 673              	.LVL30:
 323:Drivers/STM32F1xx_HAL_Driver/Src/stm32f1xx_hal_dma.c **** 
 674              		.loc 1 323 3 view .LVU196
 675 000c 5A1E     		subs	r2, r3, #1
 676              	.LVL31:
 323:Drivers/STM32F1xx_HAL_Driver/Src/stm32f1xx_hal_dma.c **** 
 677              		.loc 1 323 3 is_stmt 0 view .LVU197
 678 000e 4FF6FE73 		movw	r3, #65534
 679              	.LVL32:
 323:Drivers/STM32F1xx_HAL_Driver/Src/stm32f1xx_hal_dma.c **** 
 680              		.loc 1 323 3 view .LVU198
 681 0012 9A42     		cmp	r2, r3
 682 0014 11D8     		bhi	.L50
 683              	.LVL33:
 684              	.L45:
 326:Drivers/STM32F1xx_HAL_Driver/Src/stm32f1xx_hal_dma.c **** 
 685              		.loc 1 326 3 is_stmt 1 view .LVU199
 326:Drivers/STM32F1xx_HAL_Driver/Src/stm32f1xx_hal_dma.c **** 
 686              		.loc 1 326 3 view .LVU200
 687 0016 94F82030 		ldrb	r3, [r4, #32]	@ zero_extendqisi2
 688 001a 012B     		cmp	r3, #1
 689 001c 2CD0     		beq	.L48
 326:Drivers/STM32F1xx_HAL_Driver/Src/stm32f1xx_hal_dma.c **** 
 690              		.loc 1 326 3 discriminator 2 view .LVU201
 691 001e 0123     		movs	r3, #1
 692 0020 84F82030 		strb	r3, [r4, #32]
 326:Drivers/STM32F1xx_HAL_Driver/Src/stm32f1xx_hal_dma.c **** 
 693              		.loc 1 326 3 discriminator 2 view .LVU202
 328:Drivers/STM32F1xx_HAL_Driver/Src/stm32f1xx_hal_dma.c ****   {
 694              		.loc 1 328 3 discriminator 2 view .LVU203
 328:Drivers/STM32F1xx_HAL_Driver/Src/stm32f1xx_hal_dma.c ****   {
 695              		.loc 1 328 33 is_stmt 0 discriminator 2 view .LVU204
 696 0024 94F82130 		ldrb	r3, [r4, #33]	@ zero_extendqisi2
 697 0028 DBB2     		uxtb	r3, r3
 328:Drivers/STM32F1xx_HAL_Driver/Src/stm32f1xx_hal_dma.c ****   {
 698              		.loc 1 328 5 discriminator 2 view .LVU205
 699 002a 012B     		cmp	r3, #1
ARM GAS  C:\Users\begre\AppData\Local\Temp\ccGpVL6f.s 			page 32


 700 002c 0BD0     		beq	.L51
 346:Drivers/STM32F1xx_HAL_Driver/Src/stm32f1xx_hal_dma.c ****    status = HAL_BUSY;
 701              		.loc 1 346 4 is_stmt 1 view .LVU206
 346:Drivers/STM32F1xx_HAL_Driver/Src/stm32f1xx_hal_dma.c ****    status = HAL_BUSY;
 702              		.loc 1 346 4 view .LVU207
 703 002e 0023     		movs	r3, #0
 704 0030 84F82030 		strb	r3, [r4, #32]
 346:Drivers/STM32F1xx_HAL_Driver/Src/stm32f1xx_hal_dma.c ****    status = HAL_BUSY;
 705              		.loc 1 346 4 view .LVU208
 347:Drivers/STM32F1xx_HAL_Driver/Src/stm32f1xx_hal_dma.c ****   }  
 706              		.loc 1 347 4 view .LVU209
 707              	.LVL34:
 347:Drivers/STM32F1xx_HAL_Driver/Src/stm32f1xx_hal_dma.c ****   }  
 708              		.loc 1 347 11 is_stmt 0 view .LVU210
 709 0034 0220     		movs	r0, #2
 710              	.LVL35:
 711              	.L46:
 350:Drivers/STM32F1xx_HAL_Driver/Src/stm32f1xx_hal_dma.c **** 
 712              		.loc 1 350 1 view .LVU211
 713 0036 BDE8F081 		pop	{r4, r5, r6, r7, r8, pc}
 714              	.LVL36:
 715              	.L50:
 323:Drivers/STM32F1xx_HAL_Driver/Src/stm32f1xx_hal_dma.c **** 
 716              		.loc 1 323 3 discriminator 1 view .LVU212
 717 003a 40F24311 		movw	r1, #323
 718              	.LVL37:
 323:Drivers/STM32F1xx_HAL_Driver/Src/stm32f1xx_hal_dma.c **** 
 719              		.loc 1 323 3 discriminator 1 view .LVU213
 720 003e 0F48     		ldr	r0, .L52
 721              	.LVL38:
 323:Drivers/STM32F1xx_HAL_Driver/Src/stm32f1xx_hal_dma.c **** 
 722              		.loc 1 323 3 discriminator 1 view .LVU214
 723 0040 FFF7FEFF 		bl	assert_failed
 724              	.LVL39:
 725 0044 E7E7     		b	.L45
 726              	.L51:
 331:Drivers/STM32F1xx_HAL_Driver/Src/stm32f1xx_hal_dma.c ****     hdma->ErrorCode = HAL_DMA_ERROR_NONE;
 727              		.loc 1 331 5 is_stmt 1 view .LVU215
 331:Drivers/STM32F1xx_HAL_Driver/Src/stm32f1xx_hal_dma.c ****     hdma->ErrorCode = HAL_DMA_ERROR_NONE;
 728              		.loc 1 331 17 is_stmt 0 view .LVU216
 729 0046 0223     		movs	r3, #2
 730 0048 84F82130 		strb	r3, [r4, #33]
 332:Drivers/STM32F1xx_HAL_Driver/Src/stm32f1xx_hal_dma.c ****             
 731              		.loc 1 332 5 is_stmt 1 view .LVU217
 332:Drivers/STM32F1xx_HAL_Driver/Src/stm32f1xx_hal_dma.c ****             
 732              		.loc 1 332 21 is_stmt 0 view .LVU218
 733 004c 4FF00008 		mov	r8, #0
 734 0050 C4F83880 		str	r8, [r4, #56]
 335:Drivers/STM32F1xx_HAL_Driver/Src/stm32f1xx_hal_dma.c ****     
 735              		.loc 1 335 5 is_stmt 1 view .LVU219
 736 0054 2268     		ldr	r2, [r4]
 737 0056 1368     		ldr	r3, [r2]
 738 0058 23F00103 		bic	r3, r3, #1
 739 005c 1360     		str	r3, [r2]
 338:Drivers/STM32F1xx_HAL_Driver/Src/stm32f1xx_hal_dma.c ****     
 740              		.loc 1 338 5 view .LVU220
 741 005e 2B46     		mov	r3, r5
ARM GAS  C:\Users\begre\AppData\Local\Temp\ccGpVL6f.s 			page 33


 742 0060 3A46     		mov	r2, r7
 743 0062 3146     		mov	r1, r6
 744 0064 2046     		mov	r0, r4
 745 0066 FFF7FEFF 		bl	DMA_SetConfig
 746              	.LVL40:
 341:Drivers/STM32F1xx_HAL_Driver/Src/stm32f1xx_hal_dma.c ****   }
 747              		.loc 1 341 5 view .LVU221
 748 006a 2268     		ldr	r2, [r4]
 749 006c 1368     		ldr	r3, [r2]
 750 006e 43F00103 		orr	r3, r3, #1
 751 0072 1360     		str	r3, [r2]
 320:Drivers/STM32F1xx_HAL_Driver/Src/stm32f1xx_hal_dma.c **** 
 752              		.loc 1 320 21 is_stmt 0 view .LVU222
 753 0074 4046     		mov	r0, r8
 754 0076 DEE7     		b	.L46
 755              	.L48:
 326:Drivers/STM32F1xx_HAL_Driver/Src/stm32f1xx_hal_dma.c **** 
 756              		.loc 1 326 3 view .LVU223
 757 0078 0220     		movs	r0, #2
 758 007a DCE7     		b	.L46
 759              	.L53:
 760              		.align	2
 761              	.L52:
 762 007c 00000000 		.word	.LC0
 763              		.cfi_endproc
 764              	.LFE67:
 766              		.section	.text.HAL_DMA_Start_IT,"ax",%progbits
 767              		.align	1
 768              		.global	HAL_DMA_Start_IT
 769              		.syntax unified
 770              		.thumb
 771              		.thumb_func
 773              	HAL_DMA_Start_IT:
 774              	.LVL41:
 775              	.LFB68:
 362:Drivers/STM32F1xx_HAL_Driver/Src/stm32f1xx_hal_dma.c ****   HAL_StatusTypeDef status = HAL_OK;
 776              		.loc 1 362 1 is_stmt 1 view -0
 777              		.cfi_startproc
 778              		@ args = 0, pretend = 0, frame = 0
 779              		@ frame_needed = 0, uses_anonymous_args = 0
 362:Drivers/STM32F1xx_HAL_Driver/Src/stm32f1xx_hal_dma.c ****   HAL_StatusTypeDef status = HAL_OK;
 780              		.loc 1 362 1 is_stmt 0 view .LVU225
 781 0000 F8B5     		push	{r3, r4, r5, r6, r7, lr}
 782              	.LCFI8:
 783              		.cfi_def_cfa_offset 24
 784              		.cfi_offset 3, -24
 785              		.cfi_offset 4, -20
 786              		.cfi_offset 5, -16
 787              		.cfi_offset 6, -12
 788              		.cfi_offset 7, -8
 789              		.cfi_offset 14, -4
 790 0002 0446     		mov	r4, r0
 791 0004 0E46     		mov	r6, r1
 792 0006 1746     		mov	r7, r2
 793 0008 1D46     		mov	r5, r3
 363:Drivers/STM32F1xx_HAL_Driver/Src/stm32f1xx_hal_dma.c **** 
 794              		.loc 1 363 3 is_stmt 1 view .LVU226
ARM GAS  C:\Users\begre\AppData\Local\Temp\ccGpVL6f.s 			page 34


 795              	.LVL42:
 366:Drivers/STM32F1xx_HAL_Driver/Src/stm32f1xx_hal_dma.c **** 
 796              		.loc 1 366 3 view .LVU227
 797 000a 5A1E     		subs	r2, r3, #1
 798              	.LVL43:
 366:Drivers/STM32F1xx_HAL_Driver/Src/stm32f1xx_hal_dma.c **** 
 799              		.loc 1 366 3 is_stmt 0 view .LVU228
 800 000c 4FF6FE73 		movw	r3, #65534
 801              	.LVL44:
 366:Drivers/STM32F1xx_HAL_Driver/Src/stm32f1xx_hal_dma.c **** 
 802              		.loc 1 366 3 view .LVU229
 803 0010 9A42     		cmp	r2, r3
 804 0012 10D8     		bhi	.L62
 805              	.LVL45:
 806              	.L55:
 369:Drivers/STM32F1xx_HAL_Driver/Src/stm32f1xx_hal_dma.c ****   
 807              		.loc 1 369 3 is_stmt 1 view .LVU230
 369:Drivers/STM32F1xx_HAL_Driver/Src/stm32f1xx_hal_dma.c ****   
 808              		.loc 1 369 3 view .LVU231
 809 0014 94F82030 		ldrb	r3, [r4, #32]	@ zero_extendqisi2
 810 0018 012B     		cmp	r3, #1
 811 001a 3BD0     		beq	.L60
 369:Drivers/STM32F1xx_HAL_Driver/Src/stm32f1xx_hal_dma.c ****   
 812              		.loc 1 369 3 discriminator 2 view .LVU232
 813 001c 0123     		movs	r3, #1
 814 001e 84F82030 		strb	r3, [r4, #32]
 369:Drivers/STM32F1xx_HAL_Driver/Src/stm32f1xx_hal_dma.c ****   
 815              		.loc 1 369 3 discriminator 2 view .LVU233
 371:Drivers/STM32F1xx_HAL_Driver/Src/stm32f1xx_hal_dma.c ****   {
 816              		.loc 1 371 3 discriminator 2 view .LVU234
 371:Drivers/STM32F1xx_HAL_Driver/Src/stm32f1xx_hal_dma.c ****   {
 817              		.loc 1 371 33 is_stmt 0 discriminator 2 view .LVU235
 818 0022 94F82130 		ldrb	r3, [r4, #33]	@ zero_extendqisi2
 819 0026 DBB2     		uxtb	r3, r3
 371:Drivers/STM32F1xx_HAL_Driver/Src/stm32f1xx_hal_dma.c ****   {
 820              		.loc 1 371 5 discriminator 2 view .LVU236
 821 0028 012B     		cmp	r3, #1
 822 002a 0AD0     		beq	.L63
 401:Drivers/STM32F1xx_HAL_Driver/Src/stm32f1xx_hal_dma.c **** 
 823              		.loc 1 401 5 is_stmt 1 view .LVU237
 401:Drivers/STM32F1xx_HAL_Driver/Src/stm32f1xx_hal_dma.c **** 
 824              		.loc 1 401 5 view .LVU238
 825 002c 0023     		movs	r3, #0
 826 002e 84F82030 		strb	r3, [r4, #32]
 401:Drivers/STM32F1xx_HAL_Driver/Src/stm32f1xx_hal_dma.c **** 
 827              		.loc 1 401 5 view .LVU239
 404:Drivers/STM32F1xx_HAL_Driver/Src/stm32f1xx_hal_dma.c ****   }    
 828              		.loc 1 404 5 view .LVU240
 829              	.LVL46:
 404:Drivers/STM32F1xx_HAL_Driver/Src/stm32f1xx_hal_dma.c ****   }    
 830              		.loc 1 404 12 is_stmt 0 view .LVU241
 831 0032 0220     		movs	r0, #2
 832              	.LVL47:
 833              	.L56:
 407:Drivers/STM32F1xx_HAL_Driver/Src/stm32f1xx_hal_dma.c **** 
 834              		.loc 1 407 1 view .LVU242
 835 0034 F8BD     		pop	{r3, r4, r5, r6, r7, pc}
ARM GAS  C:\Users\begre\AppData\Local\Temp\ccGpVL6f.s 			page 35


 836              	.LVL48:
 837              	.L62:
 366:Drivers/STM32F1xx_HAL_Driver/Src/stm32f1xx_hal_dma.c **** 
 838              		.loc 1 366 3 discriminator 1 view .LVU243
 839 0036 4FF4B771 		mov	r1, #366
 840              	.LVL49:
 366:Drivers/STM32F1xx_HAL_Driver/Src/stm32f1xx_hal_dma.c **** 
 841              		.loc 1 366 3 discriminator 1 view .LVU244
 842 003a 1748     		ldr	r0, .L64
 843              	.LVL50:
 366:Drivers/STM32F1xx_HAL_Driver/Src/stm32f1xx_hal_dma.c **** 
 844              		.loc 1 366 3 discriminator 1 view .LVU245
 845 003c FFF7FEFF 		bl	assert_failed
 846              	.LVL51:
 847 0040 E8E7     		b	.L55
 848              	.L63:
 374:Drivers/STM32F1xx_HAL_Driver/Src/stm32f1xx_hal_dma.c ****     hdma->ErrorCode = HAL_DMA_ERROR_NONE;
 849              		.loc 1 374 5 is_stmt 1 view .LVU246
 374:Drivers/STM32F1xx_HAL_Driver/Src/stm32f1xx_hal_dma.c ****     hdma->ErrorCode = HAL_DMA_ERROR_NONE;
 850              		.loc 1 374 17 is_stmt 0 view .LVU247
 851 0042 0223     		movs	r3, #2
 852 0044 84F82130 		strb	r3, [r4, #33]
 375:Drivers/STM32F1xx_HAL_Driver/Src/stm32f1xx_hal_dma.c ****     
 853              		.loc 1 375 5 is_stmt 1 view .LVU248
 375:Drivers/STM32F1xx_HAL_Driver/Src/stm32f1xx_hal_dma.c ****     
 854              		.loc 1 375 21 is_stmt 0 view .LVU249
 855 0048 0023     		movs	r3, #0
 856 004a A363     		str	r3, [r4, #56]
 378:Drivers/STM32F1xx_HAL_Driver/Src/stm32f1xx_hal_dma.c ****     
 857              		.loc 1 378 5 is_stmt 1 view .LVU250
 858 004c 2268     		ldr	r2, [r4]
 859 004e 1368     		ldr	r3, [r2]
 860 0050 23F00103 		bic	r3, r3, #1
 861 0054 1360     		str	r3, [r2]
 381:Drivers/STM32F1xx_HAL_Driver/Src/stm32f1xx_hal_dma.c ****     
 862              		.loc 1 381 5 view .LVU251
 863 0056 2B46     		mov	r3, r5
 864 0058 3A46     		mov	r2, r7
 865 005a 3146     		mov	r1, r6
 866 005c 2046     		mov	r0, r4
 867 005e FFF7FEFF 		bl	DMA_SetConfig
 868              	.LVL52:
 385:Drivers/STM32F1xx_HAL_Driver/Src/stm32f1xx_hal_dma.c ****     {
 869              		.loc 1 385 5 view .LVU252
 385:Drivers/STM32F1xx_HAL_Driver/Src/stm32f1xx_hal_dma.c ****     {
 870              		.loc 1 385 20 is_stmt 0 view .LVU253
 871 0062 E36A     		ldr	r3, [r4, #44]
 385:Drivers/STM32F1xx_HAL_Driver/Src/stm32f1xx_hal_dma.c ****     {
 872              		.loc 1 385 7 view .LVU254
 873 0064 5BB1     		cbz	r3, .L58
 388:Drivers/STM32F1xx_HAL_Driver/Src/stm32f1xx_hal_dma.c ****     }
 874              		.loc 1 388 7 is_stmt 1 view .LVU255
 875 0066 2268     		ldr	r2, [r4]
 876 0068 1368     		ldr	r3, [r2]
 877 006a 43F00E03 		orr	r3, r3, #14
 878 006e 1360     		str	r3, [r2]
 879              	.L59:
ARM GAS  C:\Users\begre\AppData\Local\Temp\ccGpVL6f.s 			page 36


 396:Drivers/STM32F1xx_HAL_Driver/Src/stm32f1xx_hal_dma.c ****   }
 880              		.loc 1 396 5 view .LVU256
 881 0070 2268     		ldr	r2, [r4]
 882 0072 1368     		ldr	r3, [r2]
 883 0074 43F00103 		orr	r3, r3, #1
 884 0078 1360     		str	r3, [r2]
 363:Drivers/STM32F1xx_HAL_Driver/Src/stm32f1xx_hal_dma.c **** 
 885              		.loc 1 363 21 is_stmt 0 view .LVU257
 886 007a 0020     		movs	r0, #0
 887 007c DAE7     		b	.L56
 888              	.L58:
 392:Drivers/STM32F1xx_HAL_Driver/Src/stm32f1xx_hal_dma.c ****       __HAL_DMA_ENABLE_IT(hdma, (DMA_IT_TC | DMA_IT_TE));
 889              		.loc 1 392 7 is_stmt 1 view .LVU258
 890 007e 2268     		ldr	r2, [r4]
 891 0080 1368     		ldr	r3, [r2]
 892 0082 23F00403 		bic	r3, r3, #4
 893 0086 1360     		str	r3, [r2]
 393:Drivers/STM32F1xx_HAL_Driver/Src/stm32f1xx_hal_dma.c ****     }
 894              		.loc 1 393 7 view .LVU259
 895 0088 2268     		ldr	r2, [r4]
 896 008a 1368     		ldr	r3, [r2]
 897 008c 43F00A03 		orr	r3, r3, #10
 898 0090 1360     		str	r3, [r2]
 899 0092 EDE7     		b	.L59
 900              	.L60:
 369:Drivers/STM32F1xx_HAL_Driver/Src/stm32f1xx_hal_dma.c ****   
 901              		.loc 1 369 3 is_stmt 0 view .LVU260
 902 0094 0220     		movs	r0, #2
 903 0096 CDE7     		b	.L56
 904              	.L65:
 905              		.align	2
 906              	.L64:
 907 0098 00000000 		.word	.LC0
 908              		.cfi_endproc
 909              	.LFE68:
 911              		.section	.text.HAL_DMA_Abort,"ax",%progbits
 912              		.align	1
 913              		.global	HAL_DMA_Abort
 914              		.syntax unified
 915              		.thumb
 916              		.thumb_func
 918              	HAL_DMA_Abort:
 919              	.LVL53:
 920              	.LFB69:
 416:Drivers/STM32F1xx_HAL_Driver/Src/stm32f1xx_hal_dma.c ****   HAL_StatusTypeDef status = HAL_OK;
 921              		.loc 1 416 1 is_stmt 1 view -0
 922              		.cfi_startproc
 923              		@ args = 0, pretend = 0, frame = 0
 924              		@ frame_needed = 0, uses_anonymous_args = 0
 925              		@ link register save eliminated.
 417:Drivers/STM32F1xx_HAL_Driver/Src/stm32f1xx_hal_dma.c ****   
 926              		.loc 1 417 3 view .LVU262
 419:Drivers/STM32F1xx_HAL_Driver/Src/stm32f1xx_hal_dma.c ****   {
 927              		.loc 1 419 3 view .LVU263
 419:Drivers/STM32F1xx_HAL_Driver/Src/stm32f1xx_hal_dma.c ****   {
 928              		.loc 1 419 10 is_stmt 0 view .LVU264
 929 0000 90F82130 		ldrb	r3, [r0, #33]	@ zero_extendqisi2
ARM GAS  C:\Users\begre\AppData\Local\Temp\ccGpVL6f.s 			page 37


 930 0004 DBB2     		uxtb	r3, r3
 419:Drivers/STM32F1xx_HAL_Driver/Src/stm32f1xx_hal_dma.c ****   {
 931              		.loc 1 419 5 view .LVU265
 932 0006 022B     		cmp	r3, #2
 933 0008 06D0     		beq	.L67
 422:Drivers/STM32F1xx_HAL_Driver/Src/stm32f1xx_hal_dma.c ****     
 934              		.loc 1 422 5 is_stmt 1 view .LVU266
 422:Drivers/STM32F1xx_HAL_Driver/Src/stm32f1xx_hal_dma.c ****     
 935              		.loc 1 422 21 is_stmt 0 view .LVU267
 936 000a 0423     		movs	r3, #4
 937 000c 8363     		str	r3, [r0, #56]
 425:Drivers/STM32F1xx_HAL_Driver/Src/stm32f1xx_hal_dma.c ****     
 938              		.loc 1 425 5 is_stmt 1 view .LVU268
 425:Drivers/STM32F1xx_HAL_Driver/Src/stm32f1xx_hal_dma.c ****     
 939              		.loc 1 425 5 view .LVU269
 940 000e 0023     		movs	r3, #0
 941 0010 80F82030 		strb	r3, [r0, #32]
 425:Drivers/STM32F1xx_HAL_Driver/Src/stm32f1xx_hal_dma.c ****     
 942              		.loc 1 425 5 view .LVU270
 427:Drivers/STM32F1xx_HAL_Driver/Src/stm32f1xx_hal_dma.c ****   }
 943              		.loc 1 427 5 view .LVU271
 427:Drivers/STM32F1xx_HAL_Driver/Src/stm32f1xx_hal_dma.c ****   }
 944              		.loc 1 427 12 is_stmt 0 view .LVU272
 945 0014 0120     		movs	r0, #1
 946              	.LVL54:
 427:Drivers/STM32F1xx_HAL_Driver/Src/stm32f1xx_hal_dma.c ****   }
 947              		.loc 1 427 12 view .LVU273
 948 0016 7047     		bx	lr
 949              	.LVL55:
 950              	.L67:
 433:Drivers/STM32F1xx_HAL_Driver/Src/stm32f1xx_hal_dma.c ****       
 951              		.loc 1 433 5 is_stmt 1 view .LVU274
 952 0018 0268     		ldr	r2, [r0]
 953 001a 1368     		ldr	r3, [r2]
 954 001c 23F00E03 		bic	r3, r3, #14
 955 0020 1360     		str	r3, [r2]
 436:Drivers/STM32F1xx_HAL_Driver/Src/stm32f1xx_hal_dma.c ****       
 956              		.loc 1 436 5 view .LVU275
 957 0022 0268     		ldr	r2, [r0]
 958 0024 1368     		ldr	r3, [r2]
 959 0026 23F00103 		bic	r3, r3, #1
 960 002a 1360     		str	r3, [r2]
 439:Drivers/STM32F1xx_HAL_Driver/Src/stm32f1xx_hal_dma.c ****   }
 961              		.loc 1 439 5 view .LVU276
 439:Drivers/STM32F1xx_HAL_Driver/Src/stm32f1xx_hal_dma.c ****   }
 962              		.loc 1 439 55 is_stmt 0 view .LVU277
 963 002c 036C     		ldr	r3, [r0, #64]
 439:Drivers/STM32F1xx_HAL_Driver/Src/stm32f1xx_hal_dma.c ****   }
 964              		.loc 1 439 9 view .LVU278
 965 002e C16B     		ldr	r1, [r0, #60]
 439:Drivers/STM32F1xx_HAL_Driver/Src/stm32f1xx_hal_dma.c ****   }
 966              		.loc 1 439 48 view .LVU279
 967 0030 0122     		movs	r2, #1
 968 0032 02FA03F3 		lsl	r3, r2, r3
 439:Drivers/STM32F1xx_HAL_Driver/Src/stm32f1xx_hal_dma.c ****   }
 969              		.loc 1 439 32 view .LVU280
 970 0036 4B60     		str	r3, [r1, #4]
ARM GAS  C:\Users\begre\AppData\Local\Temp\ccGpVL6f.s 			page 38


 442:Drivers/STM32F1xx_HAL_Driver/Src/stm32f1xx_hal_dma.c **** 
 971              		.loc 1 442 3 is_stmt 1 view .LVU281
 442:Drivers/STM32F1xx_HAL_Driver/Src/stm32f1xx_hal_dma.c **** 
 972              		.loc 1 442 15 is_stmt 0 view .LVU282
 973 0038 80F82120 		strb	r2, [r0, #33]
 445:Drivers/STM32F1xx_HAL_Driver/Src/stm32f1xx_hal_dma.c ****   
 974              		.loc 1 445 3 is_stmt 1 view .LVU283
 445:Drivers/STM32F1xx_HAL_Driver/Src/stm32f1xx_hal_dma.c ****   
 975              		.loc 1 445 3 view .LVU284
 976 003c 0023     		movs	r3, #0
 977 003e 80F82030 		strb	r3, [r0, #32]
 445:Drivers/STM32F1xx_HAL_Driver/Src/stm32f1xx_hal_dma.c ****   
 978              		.loc 1 445 3 view .LVU285
 447:Drivers/STM32F1xx_HAL_Driver/Src/stm32f1xx_hal_dma.c **** }
 979              		.loc 1 447 3 view .LVU286
 447:Drivers/STM32F1xx_HAL_Driver/Src/stm32f1xx_hal_dma.c **** }
 980              		.loc 1 447 10 is_stmt 0 view .LVU287
 981 0042 1846     		mov	r0, r3
 982              	.LVL56:
 448:Drivers/STM32F1xx_HAL_Driver/Src/stm32f1xx_hal_dma.c **** 
 983              		.loc 1 448 1 view .LVU288
 984 0044 7047     		bx	lr
 985              		.cfi_endproc
 986              	.LFE69:
 988              		.section	.text.HAL_DMA_Abort_IT,"ax",%progbits
 989              		.align	1
 990              		.global	HAL_DMA_Abort_IT
 991              		.syntax unified
 992              		.thumb
 993              		.thumb_func
 995              	HAL_DMA_Abort_IT:
 996              	.LVL57:
 997              	.LFB70:
 457:Drivers/STM32F1xx_HAL_Driver/Src/stm32f1xx_hal_dma.c ****   HAL_StatusTypeDef status = HAL_OK;
 998              		.loc 1 457 1 is_stmt 1 view -0
 999              		.cfi_startproc
 1000              		@ args = 0, pretend = 0, frame = 0
 1001              		@ frame_needed = 0, uses_anonymous_args = 0
 457:Drivers/STM32F1xx_HAL_Driver/Src/stm32f1xx_hal_dma.c ****   HAL_StatusTypeDef status = HAL_OK;
 1002              		.loc 1 457 1 is_stmt 0 view .LVU290
 1003 0000 08B5     		push	{r3, lr}
 1004              	.LCFI9:
 1005              		.cfi_def_cfa_offset 8
 1006              		.cfi_offset 3, -8
 1007              		.cfi_offset 14, -4
 458:Drivers/STM32F1xx_HAL_Driver/Src/stm32f1xx_hal_dma.c ****   
 1008              		.loc 1 458 3 is_stmt 1 view .LVU291
 1009              	.LVL58:
 460:Drivers/STM32F1xx_HAL_Driver/Src/stm32f1xx_hal_dma.c ****   {
 1010              		.loc 1 460 3 view .LVU292
 460:Drivers/STM32F1xx_HAL_Driver/Src/stm32f1xx_hal_dma.c ****   {
 1011              		.loc 1 460 32 is_stmt 0 view .LVU293
 1012 0002 90F82130 		ldrb	r3, [r0, #33]	@ zero_extendqisi2
 1013 0006 DBB2     		uxtb	r3, r3
 460:Drivers/STM32F1xx_HAL_Driver/Src/stm32f1xx_hal_dma.c ****   {
 1014              		.loc 1 460 5 view .LVU294
 1015 0008 022B     		cmp	r3, #2
ARM GAS  C:\Users\begre\AppData\Local\Temp\ccGpVL6f.s 			page 39


 1016 000a 03D0     		beq	.L70
 463:Drivers/STM32F1xx_HAL_Driver/Src/stm32f1xx_hal_dma.c ****         
 1017              		.loc 1 463 5 is_stmt 1 view .LVU295
 463:Drivers/STM32F1xx_HAL_Driver/Src/stm32f1xx_hal_dma.c ****         
 1018              		.loc 1 463 21 is_stmt 0 view .LVU296
 1019 000c 0423     		movs	r3, #4
 1020 000e 8363     		str	r3, [r0, #56]
 465:Drivers/STM32F1xx_HAL_Driver/Src/stm32f1xx_hal_dma.c ****   }
 1021              		.loc 1 465 5 is_stmt 1 view .LVU297
 1022              	.LVL59:
 465:Drivers/STM32F1xx_HAL_Driver/Src/stm32f1xx_hal_dma.c ****   }
 1023              		.loc 1 465 12 is_stmt 0 view .LVU298
 1024 0010 0120     		movs	r0, #1
 1025              	.LVL60:
 1026              	.L71:
 490:Drivers/STM32F1xx_HAL_Driver/Src/stm32f1xx_hal_dma.c **** }
 1027              		.loc 1 490 3 is_stmt 1 view .LVU299
 491:Drivers/STM32F1xx_HAL_Driver/Src/stm32f1xx_hal_dma.c **** 
 1028              		.loc 1 491 1 is_stmt 0 view .LVU300
 1029 0012 08BD     		pop	{r3, pc}
 1030              	.LVL61:
 1031              	.L70:
 470:Drivers/STM32F1xx_HAL_Driver/Src/stm32f1xx_hal_dma.c **** 
 1032              		.loc 1 470 5 is_stmt 1 view .LVU301
 1033 0014 0268     		ldr	r2, [r0]
 1034 0016 1368     		ldr	r3, [r2]
 1035 0018 23F00E03 		bic	r3, r3, #14
 1036 001c 1360     		str	r3, [r2]
 473:Drivers/STM32F1xx_HAL_Driver/Src/stm32f1xx_hal_dma.c **** 
 1037              		.loc 1 473 5 view .LVU302
 1038 001e 0268     		ldr	r2, [r0]
 1039 0020 1368     		ldr	r3, [r2]
 1040 0022 23F00103 		bic	r3, r3, #1
 1041 0026 1360     		str	r3, [r2]
 476:Drivers/STM32F1xx_HAL_Driver/Src/stm32f1xx_hal_dma.c **** 
 1042              		.loc 1 476 5 view .LVU303
 1043 0028 0368     		ldr	r3, [r0]
 1044 002a 4C4A     		ldr	r2, .L102
 1045 002c 9342     		cmp	r3, r2
 1046 002e 4ED9     		bls	.L72
 476:Drivers/STM32F1xx_HAL_Driver/Src/stm32f1xx_hal_dma.c **** 
 1047              		.loc 1 476 5 is_stmt 0 discriminator 1 view .LVU304
 1048 0030 783A     		subs	r2, r2, #120
 1049 0032 9342     		cmp	r3, r2
 1050 0034 24D0     		beq	.L76
 476:Drivers/STM32F1xx_HAL_Driver/Src/stm32f1xx_hal_dma.c **** 
 1051              		.loc 1 476 5 discriminator 3 view .LVU305
 1052 0036 1432     		adds	r2, r2, #20
 1053 0038 9342     		cmp	r3, r2
 1054 003a 30D0     		beq	.L77
 476:Drivers/STM32F1xx_HAL_Driver/Src/stm32f1xx_hal_dma.c **** 
 1055              		.loc 1 476 5 discriminator 5 view .LVU306
 1056 003c 1432     		adds	r2, r2, #20
 1057 003e 9342     		cmp	r3, r2
 1058 0040 2FD0     		beq	.L78
 476:Drivers/STM32F1xx_HAL_Driver/Src/stm32f1xx_hal_dma.c **** 
 1059              		.loc 1 476 5 discriminator 7 view .LVU307
ARM GAS  C:\Users\begre\AppData\Local\Temp\ccGpVL6f.s 			page 40


 1060 0042 1432     		adds	r2, r2, #20
 1061 0044 9342     		cmp	r3, r2
 1062 0046 2FD0     		beq	.L79
 476:Drivers/STM32F1xx_HAL_Driver/Src/stm32f1xx_hal_dma.c **** 
 1063              		.loc 1 476 5 discriminator 9 view .LVU308
 1064 0048 1432     		adds	r2, r2, #20
 1065 004a 9342     		cmp	r3, r2
 1066 004c 2FD0     		beq	.L80
 476:Drivers/STM32F1xx_HAL_Driver/Src/stm32f1xx_hal_dma.c **** 
 1067              		.loc 1 476 5 discriminator 11 view .LVU309
 1068 004e 1432     		adds	r2, r2, #20
 1069 0050 9342     		cmp	r3, r2
 1070 0052 2FD0     		beq	.L81
 476:Drivers/STM32F1xx_HAL_Driver/Src/stm32f1xx_hal_dma.c **** 
 1071              		.loc 1 476 5 discriminator 13 view .LVU310
 1072 0054 1432     		adds	r2, r2, #20
 1073 0056 9342     		cmp	r3, r2
 1074 0058 2FD0     		beq	.L82
 476:Drivers/STM32F1xx_HAL_Driver/Src/stm32f1xx_hal_dma.c **** 
 1075              		.loc 1 476 5 discriminator 15 view .LVU311
 1076 005a 02F56272 		add	r2, r2, #904
 1077 005e 9342     		cmp	r3, r2
 1078 0060 2ED0     		beq	.L83
 476:Drivers/STM32F1xx_HAL_Driver/Src/stm32f1xx_hal_dma.c **** 
 1079              		.loc 1 476 5 discriminator 17 view .LVU312
 1080 0062 1432     		adds	r2, r2, #20
 1081 0064 9342     		cmp	r3, r2
 1082 0066 2DD0     		beq	.L84
 476:Drivers/STM32F1xx_HAL_Driver/Src/stm32f1xx_hal_dma.c **** 
 1083              		.loc 1 476 5 discriminator 19 view .LVU313
 1084 0068 1432     		adds	r2, r2, #20
 1085 006a 9342     		cmp	r3, r2
 1086 006c 2CD0     		beq	.L85
 476:Drivers/STM32F1xx_HAL_Driver/Src/stm32f1xx_hal_dma.c **** 
 1087              		.loc 1 476 5 discriminator 21 view .LVU314
 1088 006e 1432     		adds	r2, r2, #20
 1089 0070 9342     		cmp	r3, r2
 1090 0072 02D0     		beq	.L100
 476:Drivers/STM32F1xx_HAL_Driver/Src/stm32f1xx_hal_dma.c **** 
 1091              		.loc 1 476 5 view .LVU315
 1092 0074 4FF48032 		mov	r2, #65536
 1093 0078 03E0     		b	.L73
 1094              	.L100:
 1095 007a 4FF48052 		mov	r2, #4096
 1096 007e 00E0     		b	.L73
 1097              	.L76:
 1098 0080 0122     		movs	r2, #1
 1099              	.L73:
 476:Drivers/STM32F1xx_HAL_Driver/Src/stm32f1xx_hal_dma.c **** 
 1100              		.loc 1 476 5 discriminator 46 view .LVU316
 1101 0082 374B     		ldr	r3, .L102+4
 1102 0084 5A60     		str	r2, [r3, #4]
 1103              	.L74:
 479:Drivers/STM32F1xx_HAL_Driver/Src/stm32f1xx_hal_dma.c **** 
 1104              		.loc 1 479 5 is_stmt 1 view .LVU317
 479:Drivers/STM32F1xx_HAL_Driver/Src/stm32f1xx_hal_dma.c **** 
 1105              		.loc 1 479 17 is_stmt 0 view .LVU318
ARM GAS  C:\Users\begre\AppData\Local\Temp\ccGpVL6f.s 			page 41


 1106 0086 0123     		movs	r3, #1
 1107 0088 80F82130 		strb	r3, [r0, #33]
 482:Drivers/STM32F1xx_HAL_Driver/Src/stm32f1xx_hal_dma.c **** 
 1108              		.loc 1 482 5 is_stmt 1 view .LVU319
 482:Drivers/STM32F1xx_HAL_Driver/Src/stm32f1xx_hal_dma.c **** 
 1109              		.loc 1 482 5 view .LVU320
 1110 008c 0023     		movs	r3, #0
 1111 008e 80F82030 		strb	r3, [r0, #32]
 482:Drivers/STM32F1xx_HAL_Driver/Src/stm32f1xx_hal_dma.c **** 
 1112              		.loc 1 482 5 view .LVU321
 485:Drivers/STM32F1xx_HAL_Driver/Src/stm32f1xx_hal_dma.c ****     {
 1113              		.loc 1 485 5 view .LVU322
 485:Drivers/STM32F1xx_HAL_Driver/Src/stm32f1xx_hal_dma.c ****     {
 1114              		.loc 1 485 12 is_stmt 0 view .LVU323
 1115 0092 436B     		ldr	r3, [r0, #52]
 485:Drivers/STM32F1xx_HAL_Driver/Src/stm32f1xx_hal_dma.c ****     {
 1116              		.loc 1 485 7 view .LVU324
 1117 0094 002B     		cmp	r3, #0
 1118 0096 5ED0     		beq	.L98
 487:Drivers/STM32F1xx_HAL_Driver/Src/stm32f1xx_hal_dma.c ****     } 
 1119              		.loc 1 487 7 is_stmt 1 view .LVU325
 1120 0098 9847     		blx	r3
 1121              	.LVL62:
 458:Drivers/STM32F1xx_HAL_Driver/Src/stm32f1xx_hal_dma.c ****   
 1122              		.loc 1 458 21 is_stmt 0 view .LVU326
 1123 009a 0020     		movs	r0, #0
 1124 009c B9E7     		b	.L71
 1125              	.LVL63:
 1126              	.L77:
 476:Drivers/STM32F1xx_HAL_Driver/Src/stm32f1xx_hal_dma.c **** 
 1127              		.loc 1 476 5 view .LVU327
 1128 009e 1022     		movs	r2, #16
 1129 00a0 EFE7     		b	.L73
 1130              	.L78:
 1131 00a2 4FF48072 		mov	r2, #256
 1132 00a6 ECE7     		b	.L73
 1133              	.L79:
 1134 00a8 4FF48052 		mov	r2, #4096
 1135 00ac E9E7     		b	.L73
 1136              	.L80:
 1137 00ae 4FF48032 		mov	r2, #65536
 1138 00b2 E6E7     		b	.L73
 1139              	.L81:
 1140 00b4 4FF48012 		mov	r2, #1048576
 1141 00b8 E3E7     		b	.L73
 1142              	.L82:
 1143 00ba 4FF08072 		mov	r2, #16777216
 1144 00be E0E7     		b	.L73
 1145              	.L83:
 1146 00c0 0122     		movs	r2, #1
 1147 00c2 DEE7     		b	.L73
 1148              	.L84:
 1149 00c4 1022     		movs	r2, #16
 1150 00c6 DCE7     		b	.L73
 1151              	.L85:
 1152 00c8 4FF48072 		mov	r2, #256
 1153 00cc D9E7     		b	.L73
ARM GAS  C:\Users\begre\AppData\Local\Temp\ccGpVL6f.s 			page 42


 1154              	.L72:
 476:Drivers/STM32F1xx_HAL_Driver/Src/stm32f1xx_hal_dma.c **** 
 1155              		.loc 1 476 5 discriminator 2 view .LVU328
 1156 00ce 254A     		ldr	r2, .L102+8
 1157 00d0 9342     		cmp	r3, r2
 1158 00d2 24D0     		beq	.L87
 476:Drivers/STM32F1xx_HAL_Driver/Src/stm32f1xx_hal_dma.c **** 
 1159              		.loc 1 476 5 discriminator 47 view .LVU329
 1160 00d4 1432     		adds	r2, r2, #20
 1161 00d6 9342     		cmp	r3, r2
 1162 00d8 25D0     		beq	.L88
 476:Drivers/STM32F1xx_HAL_Driver/Src/stm32f1xx_hal_dma.c **** 
 1163              		.loc 1 476 5 discriminator 49 view .LVU330
 1164 00da 1432     		adds	r2, r2, #20
 1165 00dc 9342     		cmp	r3, r2
 1166 00de 24D0     		beq	.L89
 476:Drivers/STM32F1xx_HAL_Driver/Src/stm32f1xx_hal_dma.c **** 
 1167              		.loc 1 476 5 discriminator 51 view .LVU331
 1168 00e0 1432     		adds	r2, r2, #20
 1169 00e2 9342     		cmp	r3, r2
 1170 00e4 24D0     		beq	.L90
 476:Drivers/STM32F1xx_HAL_Driver/Src/stm32f1xx_hal_dma.c **** 
 1171              		.loc 1 476 5 discriminator 53 view .LVU332
 1172 00e6 1432     		adds	r2, r2, #20
 1173 00e8 9342     		cmp	r3, r2
 1174 00ea 24D0     		beq	.L91
 476:Drivers/STM32F1xx_HAL_Driver/Src/stm32f1xx_hal_dma.c **** 
 1175              		.loc 1 476 5 discriminator 55 view .LVU333
 1176 00ec 1432     		adds	r2, r2, #20
 1177 00ee 9342     		cmp	r3, r2
 1178 00f0 24D0     		beq	.L92
 476:Drivers/STM32F1xx_HAL_Driver/Src/stm32f1xx_hal_dma.c **** 
 1179              		.loc 1 476 5 discriminator 57 view .LVU334
 1180 00f2 1432     		adds	r2, r2, #20
 1181 00f4 9342     		cmp	r3, r2
 1182 00f6 24D0     		beq	.L93
 476:Drivers/STM32F1xx_HAL_Driver/Src/stm32f1xx_hal_dma.c **** 
 1183              		.loc 1 476 5 discriminator 59 view .LVU335
 1184 00f8 02F56272 		add	r2, r2, #904
 1185 00fc 9342     		cmp	r3, r2
 1186 00fe 23D0     		beq	.L94
 476:Drivers/STM32F1xx_HAL_Driver/Src/stm32f1xx_hal_dma.c **** 
 1187              		.loc 1 476 5 discriminator 61 view .LVU336
 1188 0100 1432     		adds	r2, r2, #20
 1189 0102 9342     		cmp	r3, r2
 1190 0104 22D0     		beq	.L95
 476:Drivers/STM32F1xx_HAL_Driver/Src/stm32f1xx_hal_dma.c **** 
 1191              		.loc 1 476 5 discriminator 63 view .LVU337
 1192 0106 1432     		adds	r2, r2, #20
 1193 0108 9342     		cmp	r3, r2
 1194 010a 21D0     		beq	.L96
 476:Drivers/STM32F1xx_HAL_Driver/Src/stm32f1xx_hal_dma.c **** 
 1195              		.loc 1 476 5 discriminator 65 view .LVU338
 1196 010c 1432     		adds	r2, r2, #20
 1197 010e 9342     		cmp	r3, r2
 1198 0110 02D0     		beq	.L101
 476:Drivers/STM32F1xx_HAL_Driver/Src/stm32f1xx_hal_dma.c **** 
ARM GAS  C:\Users\begre\AppData\Local\Temp\ccGpVL6f.s 			page 43


 1199              		.loc 1 476 5 view .LVU339
 1200 0112 4FF48032 		mov	r2, #65536
 1201 0116 03E0     		b	.L75
 1202              	.L101:
 1203 0118 4FF48052 		mov	r2, #4096
 1204 011c 00E0     		b	.L75
 1205              	.L87:
 1206 011e 0122     		movs	r2, #1
 1207              	.L75:
 476:Drivers/STM32F1xx_HAL_Driver/Src/stm32f1xx_hal_dma.c **** 
 1208              		.loc 1 476 5 discriminator 90 view .LVU340
 1209 0120 114B     		ldr	r3, .L102+12
 1210 0122 5A60     		str	r2, [r3, #4]
 1211 0124 AFE7     		b	.L74
 1212              	.L88:
 476:Drivers/STM32F1xx_HAL_Driver/Src/stm32f1xx_hal_dma.c **** 
 1213              		.loc 1 476 5 view .LVU341
 1214 0126 1022     		movs	r2, #16
 1215 0128 FAE7     		b	.L75
 1216              	.L89:
 1217 012a 4FF48072 		mov	r2, #256
 1218 012e F7E7     		b	.L75
 1219              	.L90:
 1220 0130 4FF48052 		mov	r2, #4096
 1221 0134 F4E7     		b	.L75
 1222              	.L91:
 1223 0136 4FF48032 		mov	r2, #65536
 1224 013a F1E7     		b	.L75
 1225              	.L92:
 1226 013c 4FF48012 		mov	r2, #1048576
 1227 0140 EEE7     		b	.L75
 1228              	.L93:
 1229 0142 4FF08072 		mov	r2, #16777216
 1230 0146 EBE7     		b	.L75
 1231              	.L94:
 1232 0148 0122     		movs	r2, #1
 1233 014a E9E7     		b	.L75
 1234              	.L95:
 1235 014c 1022     		movs	r2, #16
 1236 014e E7E7     		b	.L75
 1237              	.L96:
 1238 0150 4FF48072 		mov	r2, #256
 1239 0154 E4E7     		b	.L75
 1240              	.L98:
 458:Drivers/STM32F1xx_HAL_Driver/Src/stm32f1xx_hal_dma.c ****   
 1241              		.loc 1 458 21 view .LVU342
 1242 0156 0020     		movs	r0, #0
 1243              	.LVL64:
 458:Drivers/STM32F1xx_HAL_Driver/Src/stm32f1xx_hal_dma.c ****   
 1244              		.loc 1 458 21 view .LVU343
 1245 0158 5BE7     		b	.L71
 1246              	.L103:
 1247 015a 00BF     		.align	2
 1248              	.L102:
 1249 015c 80000240 		.word	1073873024
 1250 0160 00040240 		.word	1073873920
 1251 0164 08000240 		.word	1073872904
ARM GAS  C:\Users\begre\AppData\Local\Temp\ccGpVL6f.s 			page 44


 1252 0168 00000240 		.word	1073872896
 1253              		.cfi_endproc
 1254              	.LFE70:
 1256              		.section	.text.HAL_DMA_PollForTransfer,"ax",%progbits
 1257              		.align	1
 1258              		.global	HAL_DMA_PollForTransfer
 1259              		.syntax unified
 1260              		.thumb
 1261              		.thumb_func
 1263              	HAL_DMA_PollForTransfer:
 1264              	.LVL65:
 1265              	.LFB71:
 502:Drivers/STM32F1xx_HAL_Driver/Src/stm32f1xx_hal_dma.c ****   uint32_t temp;
 1266              		.loc 1 502 1 is_stmt 1 view -0
 1267              		.cfi_startproc
 1268              		@ args = 0, pretend = 0, frame = 0
 1269              		@ frame_needed = 0, uses_anonymous_args = 0
 502:Drivers/STM32F1xx_HAL_Driver/Src/stm32f1xx_hal_dma.c ****   uint32_t temp;
 1270              		.loc 1 502 1 is_stmt 0 view .LVU345
 1271 0000 2DE9F843 		push	{r3, r4, r5, r6, r7, r8, r9, lr}
 1272              	.LCFI10:
 1273              		.cfi_def_cfa_offset 32
 1274              		.cfi_offset 3, -32
 1275              		.cfi_offset 4, -28
 1276              		.cfi_offset 5, -24
 1277              		.cfi_offset 6, -20
 1278              		.cfi_offset 7, -16
 1279              		.cfi_offset 8, -12
 1280              		.cfi_offset 9, -8
 1281              		.cfi_offset 14, -4
 1282 0004 0446     		mov	r4, r0
 503:Drivers/STM32F1xx_HAL_Driver/Src/stm32f1xx_hal_dma.c ****   uint32_t tickstart = 0U;
 1283              		.loc 1 503 3 is_stmt 1 view .LVU346
 504:Drivers/STM32F1xx_HAL_Driver/Src/stm32f1xx_hal_dma.c **** 
 1284              		.loc 1 504 3 view .LVU347
 1285              	.LVL66:
 506:Drivers/STM32F1xx_HAL_Driver/Src/stm32f1xx_hal_dma.c ****   {
 1286              		.loc 1 506 3 view .LVU348
 506:Drivers/STM32F1xx_HAL_Driver/Src/stm32f1xx_hal_dma.c ****   {
 1287              		.loc 1 506 32 is_stmt 0 view .LVU349
 1288 0006 90F82130 		ldrb	r3, [r0, #33]	@ zero_extendqisi2
 1289 000a DBB2     		uxtb	r3, r3
 506:Drivers/STM32F1xx_HAL_Driver/Src/stm32f1xx_hal_dma.c ****   {
 1290              		.loc 1 506 5 view .LVU350
 1291 000c 022B     		cmp	r3, #2
 1292 000e 07D0     		beq	.L105
 509:Drivers/STM32F1xx_HAL_Driver/Src/stm32f1xx_hal_dma.c ****     __HAL_UNLOCK(hdma);
 1293              		.loc 1 509 5 is_stmt 1 view .LVU351
 509:Drivers/STM32F1xx_HAL_Driver/Src/stm32f1xx_hal_dma.c ****     __HAL_UNLOCK(hdma);
 1294              		.loc 1 509 21 is_stmt 0 view .LVU352
 1295 0010 0423     		movs	r3, #4
 1296 0012 8363     		str	r3, [r0, #56]
 510:Drivers/STM32F1xx_HAL_Driver/Src/stm32f1xx_hal_dma.c ****     return HAL_ERROR;
 1297              		.loc 1 510 5 is_stmt 1 view .LVU353
 510:Drivers/STM32F1xx_HAL_Driver/Src/stm32f1xx_hal_dma.c ****     return HAL_ERROR;
 1298              		.loc 1 510 5 view .LVU354
 1299 0014 0023     		movs	r3, #0
ARM GAS  C:\Users\begre\AppData\Local\Temp\ccGpVL6f.s 			page 45


 1300 0016 80F82030 		strb	r3, [r0, #32]
 510:Drivers/STM32F1xx_HAL_Driver/Src/stm32f1xx_hal_dma.c ****     return HAL_ERROR;
 1301              		.loc 1 510 5 view .LVU355
 511:Drivers/STM32F1xx_HAL_Driver/Src/stm32f1xx_hal_dma.c ****   }
 1302              		.loc 1 511 5 view .LVU356
 511:Drivers/STM32F1xx_HAL_Driver/Src/stm32f1xx_hal_dma.c ****   }
 1303              		.loc 1 511 12 is_stmt 0 view .LVU357
 1304 001a 0120     		movs	r0, #1
 1305              	.LVL67:
 1306              	.L106:
 594:Drivers/STM32F1xx_HAL_Driver/Src/stm32f1xx_hal_dma.c **** 
 1307              		.loc 1 594 1 view .LVU358
 1308 001c BDE8F883 		pop	{r3, r4, r5, r6, r7, r8, r9, pc}
 1309              	.LVL68:
 1310              	.L105:
 594:Drivers/STM32F1xx_HAL_Driver/Src/stm32f1xx_hal_dma.c **** 
 1311              		.loc 1 594 1 view .LVU359
 1312 0020 8846     		mov	r8, r1
 1313 0022 1646     		mov	r6, r2
 515:Drivers/STM32F1xx_HAL_Driver/Src/stm32f1xx_hal_dma.c ****   {
 1314              		.loc 1 515 3 is_stmt 1 view .LVU360
 515:Drivers/STM32F1xx_HAL_Driver/Src/stm32f1xx_hal_dma.c ****   {
 1315              		.loc 1 515 21 is_stmt 0 view .LVU361
 1316 0024 0368     		ldr	r3, [r0]
 515:Drivers/STM32F1xx_HAL_Driver/Src/stm32f1xx_hal_dma.c ****   {
 1317              		.loc 1 515 31 view .LVU362
 1318 0026 1A68     		ldr	r2, [r3]
 1319              	.LVL69:
 515:Drivers/STM32F1xx_HAL_Driver/Src/stm32f1xx_hal_dma.c ****   {
 1320              		.loc 1 515 6 view .LVU363
 1321 0028 12F0200F 		tst	r2, #32
 1322 002c 25D1     		bne	.L219
 522:Drivers/STM32F1xx_HAL_Driver/Src/stm32f1xx_hal_dma.c ****   {
 1323              		.loc 1 522 3 is_stmt 1 view .LVU364
 522:Drivers/STM32F1xx_HAL_Driver/Src/stm32f1xx_hal_dma.c ****   {
 1324              		.loc 1 522 5 is_stmt 0 view .LVU365
 1325 002e 61BB     		cbnz	r1, .L108
 525:Drivers/STM32F1xx_HAL_Driver/Src/stm32f1xx_hal_dma.c ****   }
 1326              		.loc 1 525 5 is_stmt 1 view .LVU366
 525:Drivers/STM32F1xx_HAL_Driver/Src/stm32f1xx_hal_dma.c ****   }
 1327              		.loc 1 525 12 is_stmt 0 view .LVU367
 1328 0030 A14A     		ldr	r2, .L231
 1329 0032 9342     		cmp	r3, r2
 1330 0034 51D0     		beq	.L130
 525:Drivers/STM32F1xx_HAL_Driver/Src/stm32f1xx_hal_dma.c ****   }
 1331              		.loc 1 525 12 discriminator 1 view .LVU368
 1332 0036 1432     		adds	r2, r2, #20
 1333 0038 9342     		cmp	r3, r2
 1334 003a 53D0     		beq	.L131
 525:Drivers/STM32F1xx_HAL_Driver/Src/stm32f1xx_hal_dma.c ****   }
 1335              		.loc 1 525 12 discriminator 3 view .LVU369
 1336 003c 1432     		adds	r2, r2, #20
 1337 003e 9342     		cmp	r3, r2
 1338 0040 52D0     		beq	.L132
 525:Drivers/STM32F1xx_HAL_Driver/Src/stm32f1xx_hal_dma.c ****   }
 1339              		.loc 1 525 12 discriminator 5 view .LVU370
 1340 0042 1432     		adds	r2, r2, #20
ARM GAS  C:\Users\begre\AppData\Local\Temp\ccGpVL6f.s 			page 46


 1341 0044 9342     		cmp	r3, r2
 1342 0046 52D0     		beq	.L133
 525:Drivers/STM32F1xx_HAL_Driver/Src/stm32f1xx_hal_dma.c ****   }
 1343              		.loc 1 525 12 discriminator 7 view .LVU371
 1344 0048 1432     		adds	r2, r2, #20
 1345 004a 9342     		cmp	r3, r2
 1346 004c 52D0     		beq	.L134
 525:Drivers/STM32F1xx_HAL_Driver/Src/stm32f1xx_hal_dma.c ****   }
 1347              		.loc 1 525 12 discriminator 9 view .LVU372
 1348 004e 1432     		adds	r2, r2, #20
 1349 0050 9342     		cmp	r3, r2
 1350 0052 52D0     		beq	.L135
 525:Drivers/STM32F1xx_HAL_Driver/Src/stm32f1xx_hal_dma.c ****   }
 1351              		.loc 1 525 12 discriminator 11 view .LVU373
 1352 0054 1432     		adds	r2, r2, #20
 1353 0056 9342     		cmp	r3, r2
 1354 0058 52D0     		beq	.L136
 525:Drivers/STM32F1xx_HAL_Driver/Src/stm32f1xx_hal_dma.c ****   }
 1355              		.loc 1 525 12 discriminator 13 view .LVU374
 1356 005a 02F56272 		add	r2, r2, #904
 1357 005e 9342     		cmp	r3, r2
 1358 0060 51D0     		beq	.L137
 525:Drivers/STM32F1xx_HAL_Driver/Src/stm32f1xx_hal_dma.c ****   }
 1359              		.loc 1 525 12 discriminator 15 view .LVU375
 1360 0062 1432     		adds	r2, r2, #20
 1361 0064 9342     		cmp	r3, r2
 1362 0066 50D0     		beq	.L138
 525:Drivers/STM32F1xx_HAL_Driver/Src/stm32f1xx_hal_dma.c ****   }
 1363              		.loc 1 525 12 discriminator 17 view .LVU376
 1364 0068 1432     		adds	r2, r2, #20
 1365 006a 9342     		cmp	r3, r2
 1366 006c 4FD0     		beq	.L139
 525:Drivers/STM32F1xx_HAL_Driver/Src/stm32f1xx_hal_dma.c ****   }
 1367              		.loc 1 525 12 discriminator 19 view .LVU377
 1368 006e 1432     		adds	r2, r2, #20
 1369 0070 9342     		cmp	r3, r2
 1370 0072 07D0     		beq	.L220
 525:Drivers/STM32F1xx_HAL_Driver/Src/stm32f1xx_hal_dma.c ****   }
 1371              		.loc 1 525 12 view .LVU378
 1372 0074 4FF40037 		mov	r7, #131072
 1373 0078 30E0     		b	.L109
 1374              	.L219:
 517:Drivers/STM32F1xx_HAL_Driver/Src/stm32f1xx_hal_dma.c ****     return HAL_ERROR;
 1375              		.loc 1 517 5 is_stmt 1 view .LVU379
 517:Drivers/STM32F1xx_HAL_Driver/Src/stm32f1xx_hal_dma.c ****     return HAL_ERROR;
 1376              		.loc 1 517 21 is_stmt 0 view .LVU380
 1377 007a 4FF48073 		mov	r3, #256
 1378 007e 8363     		str	r3, [r0, #56]
 518:Drivers/STM32F1xx_HAL_Driver/Src/stm32f1xx_hal_dma.c ****   }
 1379              		.loc 1 518 5 is_stmt 1 view .LVU381
 518:Drivers/STM32F1xx_HAL_Driver/Src/stm32f1xx_hal_dma.c ****   }
 1380              		.loc 1 518 12 is_stmt 0 view .LVU382
 1381 0080 0120     		movs	r0, #1
 1382              	.LVL70:
 518:Drivers/STM32F1xx_HAL_Driver/Src/stm32f1xx_hal_dma.c ****   }
 1383              		.loc 1 518 12 view .LVU383
 1384 0082 CBE7     		b	.L106
ARM GAS  C:\Users\begre\AppData\Local\Temp\ccGpVL6f.s 			page 47


 1385              	.LVL71:
 1386              	.L220:
 525:Drivers/STM32F1xx_HAL_Driver/Src/stm32f1xx_hal_dma.c ****   }
 1387              		.loc 1 525 12 view .LVU384
 1388 0084 4FF40057 		mov	r7, #8192
 1389 0088 28E0     		b	.L109
 1390              	.L108:
 530:Drivers/STM32F1xx_HAL_Driver/Src/stm32f1xx_hal_dma.c ****   }
 1391              		.loc 1 530 5 is_stmt 1 view .LVU385
 530:Drivers/STM32F1xx_HAL_Driver/Src/stm32f1xx_hal_dma.c ****   }
 1392              		.loc 1 530 12 is_stmt 0 view .LVU386
 1393 008a 8B4A     		ldr	r2, .L231
 1394 008c 9342     		cmp	r3, r2
 1395 008e 41D0     		beq	.L141
 530:Drivers/STM32F1xx_HAL_Driver/Src/stm32f1xx_hal_dma.c ****   }
 1396              		.loc 1 530 12 discriminator 1 view .LVU387
 1397 0090 1432     		adds	r2, r2, #20
 1398 0092 9342     		cmp	r3, r2
 1399 0094 40D0     		beq	.L142
 530:Drivers/STM32F1xx_HAL_Driver/Src/stm32f1xx_hal_dma.c ****   }
 1400              		.loc 1 530 12 discriminator 3 view .LVU388
 1401 0096 1432     		adds	r2, r2, #20
 1402 0098 9342     		cmp	r3, r2
 1403 009a 3FD0     		beq	.L143
 530:Drivers/STM32F1xx_HAL_Driver/Src/stm32f1xx_hal_dma.c ****   }
 1404              		.loc 1 530 12 discriminator 5 view .LVU389
 1405 009c 1432     		adds	r2, r2, #20
 1406 009e 9342     		cmp	r3, r2
 1407 00a0 3FD0     		beq	.L144
 530:Drivers/STM32F1xx_HAL_Driver/Src/stm32f1xx_hal_dma.c ****   }
 1408              		.loc 1 530 12 discriminator 7 view .LVU390
 1409 00a2 1432     		adds	r2, r2, #20
 1410 00a4 9342     		cmp	r3, r2
 1411 00a6 3FD0     		beq	.L145
 530:Drivers/STM32F1xx_HAL_Driver/Src/stm32f1xx_hal_dma.c ****   }
 1412              		.loc 1 530 12 discriminator 9 view .LVU391
 1413 00a8 1432     		adds	r2, r2, #20
 1414 00aa 9342     		cmp	r3, r2
 1415 00ac 3FD0     		beq	.L146
 530:Drivers/STM32F1xx_HAL_Driver/Src/stm32f1xx_hal_dma.c ****   }
 1416              		.loc 1 530 12 discriminator 11 view .LVU392
 1417 00ae 1432     		adds	r2, r2, #20
 1418 00b0 9342     		cmp	r3, r2
 1419 00b2 3FD0     		beq	.L147
 530:Drivers/STM32F1xx_HAL_Driver/Src/stm32f1xx_hal_dma.c ****   }
 1420              		.loc 1 530 12 discriminator 13 view .LVU393
 1421 00b4 02F56272 		add	r2, r2, #904
 1422 00b8 9342     		cmp	r3, r2
 1423 00ba 3ED0     		beq	.L148
 530:Drivers/STM32F1xx_HAL_Driver/Src/stm32f1xx_hal_dma.c ****   }
 1424              		.loc 1 530 12 discriminator 15 view .LVU394
 1425 00bc 1432     		adds	r2, r2, #20
 1426 00be 9342     		cmp	r3, r2
 1427 00c0 3DD0     		beq	.L149
 530:Drivers/STM32F1xx_HAL_Driver/Src/stm32f1xx_hal_dma.c ****   }
 1428              		.loc 1 530 12 discriminator 17 view .LVU395
 1429 00c2 1432     		adds	r2, r2, #20
ARM GAS  C:\Users\begre\AppData\Local\Temp\ccGpVL6f.s 			page 48


 1430 00c4 9342     		cmp	r3, r2
 1431 00c6 3CD0     		beq	.L150
 530:Drivers/STM32F1xx_HAL_Driver/Src/stm32f1xx_hal_dma.c ****   }
 1432              		.loc 1 530 12 discriminator 19 view .LVU396
 1433 00c8 1432     		adds	r2, r2, #20
 1434 00ca 9342     		cmp	r3, r2
 1435 00cc 02D0     		beq	.L221
 530:Drivers/STM32F1xx_HAL_Driver/Src/stm32f1xx_hal_dma.c ****   }
 1436              		.loc 1 530 12 view .LVU397
 1437 00ce 4FF48027 		mov	r7, #262144
 1438 00d2 03E0     		b	.L109
 1439              	.L221:
 1440 00d4 4FF48047 		mov	r7, #16384
 1441 00d8 00E0     		b	.L109
 1442              	.L130:
 525:Drivers/STM32F1xx_HAL_Driver/Src/stm32f1xx_hal_dma.c ****   }
 1443              		.loc 1 525 12 view .LVU398
 1444 00da 0227     		movs	r7, #2
 1445              	.L109:
 1446              	.LVL72:
 534:Drivers/STM32F1xx_HAL_Driver/Src/stm32f1xx_hal_dma.c **** 
 1447              		.loc 1 534 3 is_stmt 1 view .LVU399
 534:Drivers/STM32F1xx_HAL_Driver/Src/stm32f1xx_hal_dma.c **** 
 1448              		.loc 1 534 15 is_stmt 0 view .LVU400
 1449 00dc FFF7FEFF 		bl	HAL_GetTick
 1450              	.LVL73:
 534:Drivers/STM32F1xx_HAL_Driver/Src/stm32f1xx_hal_dma.c **** 
 1451              		.loc 1 534 15 view .LVU401
 1452 00e0 8146     		mov	r9, r0
 1453              	.LVL74:
 536:Drivers/STM32F1xx_HAL_Driver/Src/stm32f1xx_hal_dma.c ****   {
 1454              		.loc 1 536 3 is_stmt 1 view .LVU402
 536:Drivers/STM32F1xx_HAL_Driver/Src/stm32f1xx_hal_dma.c ****   {
 1455              		.loc 1 536 8 is_stmt 0 view .LVU403
 1456 00e2 40E0     		b	.L116
 1457              	.LVL75:
 1458              	.L131:
 525:Drivers/STM32F1xx_HAL_Driver/Src/stm32f1xx_hal_dma.c ****   }
 1459              		.loc 1 525 12 view .LVU404
 1460 00e4 2027     		movs	r7, #32
 1461 00e6 F9E7     		b	.L109
 1462              	.L132:
 1463 00e8 4FF40077 		mov	r7, #512
 1464 00ec F6E7     		b	.L109
 1465              	.L133:
 1466 00ee 4FF40057 		mov	r7, #8192
 1467 00f2 F3E7     		b	.L109
 1468              	.L134:
 1469 00f4 4FF40037 		mov	r7, #131072
 1470 00f8 F0E7     		b	.L109
 1471              	.L135:
 1472 00fa 4FF40017 		mov	r7, #2097152
 1473 00fe EDE7     		b	.L109
 1474              	.L136:
 1475 0100 4FF00077 		mov	r7, #33554432
 1476 0104 EAE7     		b	.L109
 1477              	.L137:
ARM GAS  C:\Users\begre\AppData\Local\Temp\ccGpVL6f.s 			page 49


 1478 0106 0227     		movs	r7, #2
 1479 0108 E8E7     		b	.L109
 1480              	.L138:
 1481 010a 2027     		movs	r7, #32
 1482 010c E6E7     		b	.L109
 1483              	.L139:
 1484 010e 4FF40077 		mov	r7, #512
 1485 0112 E3E7     		b	.L109
 1486              	.L141:
 530:Drivers/STM32F1xx_HAL_Driver/Src/stm32f1xx_hal_dma.c ****   }
 1487              		.loc 1 530 12 view .LVU405
 1488 0114 0427     		movs	r7, #4
 1489 0116 E1E7     		b	.L109
 1490              	.L142:
 1491 0118 4027     		movs	r7, #64
 1492 011a DFE7     		b	.L109
 1493              	.L143:
 1494 011c 4FF48067 		mov	r7, #1024
 1495 0120 DCE7     		b	.L109
 1496              	.L144:
 1497 0122 4FF48047 		mov	r7, #16384
 1498 0126 D9E7     		b	.L109
 1499              	.L145:
 1500 0128 4FF48027 		mov	r7, #262144
 1501 012c D6E7     		b	.L109
 1502              	.L146:
 1503 012e 4FF48007 		mov	r7, #4194304
 1504 0132 D3E7     		b	.L109
 1505              	.L147:
 1506 0134 4FF08067 		mov	r7, #67108864
 1507 0138 D0E7     		b	.L109
 1508              	.L148:
 1509 013a 0427     		movs	r7, #4
 1510 013c CEE7     		b	.L109
 1511              	.L149:
 1512 013e 4027     		movs	r7, #64
 1513 0140 CCE7     		b	.L109
 1514              	.L150:
 1515 0142 4FF48067 		mov	r7, #1024
 1516 0146 C9E7     		b	.L109
 1517              	.LVL76:
 1518              	.L225:
 538:Drivers/STM32F1xx_HAL_Driver/Src/stm32f1xx_hal_dma.c ****     {
 1519              		.loc 1 538 9 view .LVU406
 1520 0148 4FF40043 		mov	r3, #32768
 1521 014c 00E0     		b	.L112
 1522              	.L152:
 1523 014e 0823     		movs	r3, #8
 1524              	.L112:
 538:Drivers/STM32F1xx_HAL_Driver/Src/stm32f1xx_hal_dma.c ****     {
 1525              		.loc 1 538 69 discriminator 46 view .LVU407
 1526 0150 1A42     		tst	r2, r3
 1527 0152 14BF     		ite	ne
 1528 0154 0123     		movne	r3, #1
 1529 0156 0023     		moveq	r3, #0
 1530              	.L113:
 538:Drivers/STM32F1xx_HAL_Driver/Src/stm32f1xx_hal_dma.c ****     {
ARM GAS  C:\Users\begre\AppData\Local\Temp\ccGpVL6f.s 			page 50


 1531              		.loc 1 538 7 discriminator 92 view .LVU408
 1532 0158 002B     		cmp	r3, #0
 1533 015a 40F09D80 		bne	.L222
 557:Drivers/STM32F1xx_HAL_Driver/Src/stm32f1xx_hal_dma.c ****     {
 1534              		.loc 1 557 5 is_stmt 1 view .LVU409
 557:Drivers/STM32F1xx_HAL_Driver/Src/stm32f1xx_hal_dma.c ****     {
 1535              		.loc 1 557 7 is_stmt 0 view .LVU410
 1536 015e B6F1FF3F 		cmp	r6, #-1
 1537 0162 40F0B180 		bne	.L223
 1538              	.L116:
 536:Drivers/STM32F1xx_HAL_Driver/Src/stm32f1xx_hal_dma.c ****   {
 1539              		.loc 1 536 8 is_stmt 1 view .LVU411
 536:Drivers/STM32F1xx_HAL_Driver/Src/stm32f1xx_hal_dma.c ****   {
 1540              		.loc 1 536 9 is_stmt 0 view .LVU412
 1541 0166 2368     		ldr	r3, [r4]
 536:Drivers/STM32F1xx_HAL_Driver/Src/stm32f1xx_hal_dma.c ****   {
 1542              		.loc 1 536 40 view .LVU413
 1543 0168 544D     		ldr	r5, .L231+4
 1544 016a AB42     		cmp	r3, r5
 1545 016c 40F2BF80 		bls	.L118
 536:Drivers/STM32F1xx_HAL_Driver/Src/stm32f1xx_hal_dma.c ****   {
 1546              		.loc 1 536 9 discriminator 1 view .LVU414
 1547 0170 534A     		ldr	r2, .L231+8
 1548 0172 1268     		ldr	r2, [r2]
 536:Drivers/STM32F1xx_HAL_Driver/Src/stm32f1xx_hal_dma.c ****   {
 1549              		.loc 1 536 40 discriminator 1 view .LVU415
 1550 0174 3A42     		tst	r2, r7
 1551 0176 0CBF     		ite	eq
 1552 0178 0125     		moveq	r5, #1
 1553 017a 0025     		movne	r5, #0
 1554              	.L119:
 536:Drivers/STM32F1xx_HAL_Driver/Src/stm32f1xx_hal_dma.c ****   {
 1555              		.loc 1 536 8 discriminator 4 view .LVU416
 1556 017c 002D     		cmp	r5, #0
 1557 017e 00F0BD80 		beq	.L224
 538:Drivers/STM32F1xx_HAL_Driver/Src/stm32f1xx_hal_dma.c ****     {
 1558              		.loc 1 538 5 is_stmt 1 view .LVU417
 538:Drivers/STM32F1xx_HAL_Driver/Src/stm32f1xx_hal_dma.c ****     {
 1559              		.loc 1 538 69 is_stmt 0 view .LVU418
 1560 0182 4E4A     		ldr	r2, .L231+4
 1561 0184 9342     		cmp	r3, r2
 1562 0186 3FD9     		bls	.L111
 538:Drivers/STM32F1xx_HAL_Driver/Src/stm32f1xx_hal_dma.c ****     {
 1563              		.loc 1 538 9 discriminator 1 view .LVU419
 1564 0188 02F56072 		add	r2, r2, #896
 1565 018c 1268     		ldr	r2, [r2]
 1566 018e 4A49     		ldr	r1, .L231
 1567 0190 8B42     		cmp	r3, r1
 1568 0192 DCD0     		beq	.L152
 538:Drivers/STM32F1xx_HAL_Driver/Src/stm32f1xx_hal_dma.c ****     {
 1569              		.loc 1 538 9 discriminator 3 view .LVU420
 1570 0194 1431     		adds	r1, r1, #20
 1571 0196 8B42     		cmp	r3, r1
 1572 0198 1ED0     		beq	.L153
 538:Drivers/STM32F1xx_HAL_Driver/Src/stm32f1xx_hal_dma.c ****     {
 1573              		.loc 1 538 9 discriminator 5 view .LVU421
 1574 019a 1431     		adds	r1, r1, #20
ARM GAS  C:\Users\begre\AppData\Local\Temp\ccGpVL6f.s 			page 51


 1575 019c 8B42     		cmp	r3, r1
 1576 019e 1DD0     		beq	.L154
 538:Drivers/STM32F1xx_HAL_Driver/Src/stm32f1xx_hal_dma.c ****     {
 1577              		.loc 1 538 9 discriminator 7 view .LVU422
 1578 01a0 1431     		adds	r1, r1, #20
 1579 01a2 8B42     		cmp	r3, r1
 1580 01a4 1DD0     		beq	.L155
 538:Drivers/STM32F1xx_HAL_Driver/Src/stm32f1xx_hal_dma.c ****     {
 1581              		.loc 1 538 9 discriminator 9 view .LVU423
 1582 01a6 1431     		adds	r1, r1, #20
 1583 01a8 8B42     		cmp	r3, r1
 1584 01aa 1DD0     		beq	.L156
 538:Drivers/STM32F1xx_HAL_Driver/Src/stm32f1xx_hal_dma.c ****     {
 1585              		.loc 1 538 9 discriminator 11 view .LVU424
 1586 01ac 1431     		adds	r1, r1, #20
 1587 01ae 8B42     		cmp	r3, r1
 1588 01b0 1DD0     		beq	.L157
 538:Drivers/STM32F1xx_HAL_Driver/Src/stm32f1xx_hal_dma.c ****     {
 1589              		.loc 1 538 9 discriminator 13 view .LVU425
 1590 01b2 1431     		adds	r1, r1, #20
 1591 01b4 8B42     		cmp	r3, r1
 1592 01b6 1DD0     		beq	.L158
 538:Drivers/STM32F1xx_HAL_Driver/Src/stm32f1xx_hal_dma.c ****     {
 1593              		.loc 1 538 9 discriminator 15 view .LVU426
 1594 01b8 01F56271 		add	r1, r1, #904
 1595 01bc 8B42     		cmp	r3, r1
 1596 01be 1CD0     		beq	.L159
 538:Drivers/STM32F1xx_HAL_Driver/Src/stm32f1xx_hal_dma.c ****     {
 1597              		.loc 1 538 9 discriminator 17 view .LVU427
 1598 01c0 1431     		adds	r1, r1, #20
 1599 01c2 8B42     		cmp	r3, r1
 1600 01c4 1BD0     		beq	.L160
 538:Drivers/STM32F1xx_HAL_Driver/Src/stm32f1xx_hal_dma.c ****     {
 1601              		.loc 1 538 9 discriminator 19 view .LVU428
 1602 01c6 1431     		adds	r1, r1, #20
 1603 01c8 8B42     		cmp	r3, r1
 1604 01ca 1AD0     		beq	.L161
 538:Drivers/STM32F1xx_HAL_Driver/Src/stm32f1xx_hal_dma.c ****     {
 1605              		.loc 1 538 9 discriminator 21 view .LVU429
 1606 01cc 1431     		adds	r1, r1, #20
 1607 01ce 8B42     		cmp	r3, r1
 1608 01d0 BAD0     		beq	.L225
 538:Drivers/STM32F1xx_HAL_Driver/Src/stm32f1xx_hal_dma.c ****     {
 1609              		.loc 1 538 9 view .LVU430
 1610 01d2 4FF40023 		mov	r3, #524288
 1611 01d6 BBE7     		b	.L112
 1612              	.L153:
 1613 01d8 8023     		movs	r3, #128
 1614 01da B9E7     		b	.L112
 1615              	.L154:
 1616 01dc 4FF40063 		mov	r3, #2048
 1617 01e0 B6E7     		b	.L112
 1618              	.L155:
 1619 01e2 4FF40043 		mov	r3, #32768
 1620 01e6 B3E7     		b	.L112
 1621              	.L156:
 1622 01e8 4FF40023 		mov	r3, #524288
ARM GAS  C:\Users\begre\AppData\Local\Temp\ccGpVL6f.s 			page 52


 1623 01ec B0E7     		b	.L112
 1624              	.L157:
 1625 01ee 4FF40003 		mov	r3, #8388608
 1626 01f2 ADE7     		b	.L112
 1627              	.L158:
 1628 01f4 4FF00063 		mov	r3, #134217728
 1629 01f8 AAE7     		b	.L112
 1630              	.L159:
 1631 01fa 0823     		movs	r3, #8
 1632 01fc A8E7     		b	.L112
 1633              	.L160:
 1634 01fe 8023     		movs	r3, #128
 1635 0200 A6E7     		b	.L112
 1636              	.L161:
 1637 0202 4FF40063 		mov	r3, #2048
 1638 0206 A3E7     		b	.L112
 1639              	.L111:
 538:Drivers/STM32F1xx_HAL_Driver/Src/stm32f1xx_hal_dma.c ****     {
 1640              		.loc 1 538 9 discriminator 2 view .LVU431
 1641 0208 2E4A     		ldr	r2, .L231+12
 1642 020a 1268     		ldr	r2, [r2]
 1643 020c 2A49     		ldr	r1, .L231
 1644 020e 8B42     		cmp	r3, r1
 1645 0210 24D0     		beq	.L163
 538:Drivers/STM32F1xx_HAL_Driver/Src/stm32f1xx_hal_dma.c ****     {
 1646              		.loc 1 538 9 discriminator 48 view .LVU432
 1647 0212 1431     		adds	r1, r1, #20
 1648 0214 8B42     		cmp	r3, r1
 1649 0216 27D0     		beq	.L164
 538:Drivers/STM32F1xx_HAL_Driver/Src/stm32f1xx_hal_dma.c ****     {
 1650              		.loc 1 538 9 discriminator 50 view .LVU433
 1651 0218 1431     		adds	r1, r1, #20
 1652 021a 8B42     		cmp	r3, r1
 1653 021c 26D0     		beq	.L165
 538:Drivers/STM32F1xx_HAL_Driver/Src/stm32f1xx_hal_dma.c ****     {
 1654              		.loc 1 538 9 discriminator 52 view .LVU434
 1655 021e 1431     		adds	r1, r1, #20
 1656 0220 8B42     		cmp	r3, r1
 1657 0222 26D0     		beq	.L166
 538:Drivers/STM32F1xx_HAL_Driver/Src/stm32f1xx_hal_dma.c ****     {
 1658              		.loc 1 538 9 discriminator 54 view .LVU435
 1659 0224 1431     		adds	r1, r1, #20
 1660 0226 8B42     		cmp	r3, r1
 1661 0228 26D0     		beq	.L167
 538:Drivers/STM32F1xx_HAL_Driver/Src/stm32f1xx_hal_dma.c ****     {
 1662              		.loc 1 538 9 discriminator 56 view .LVU436
 1663 022a 1431     		adds	r1, r1, #20
 1664 022c 8B42     		cmp	r3, r1
 1665 022e 26D0     		beq	.L168
 538:Drivers/STM32F1xx_HAL_Driver/Src/stm32f1xx_hal_dma.c ****     {
 1666              		.loc 1 538 9 discriminator 58 view .LVU437
 1667 0230 1431     		adds	r1, r1, #20
 1668 0232 8B42     		cmp	r3, r1
 1669 0234 26D0     		beq	.L169
 538:Drivers/STM32F1xx_HAL_Driver/Src/stm32f1xx_hal_dma.c ****     {
 1670              		.loc 1 538 9 discriminator 60 view .LVU438
 1671 0236 01F56271 		add	r1, r1, #904
ARM GAS  C:\Users\begre\AppData\Local\Temp\ccGpVL6f.s 			page 53


 1672 023a 8B42     		cmp	r3, r1
 1673 023c 25D0     		beq	.L170
 538:Drivers/STM32F1xx_HAL_Driver/Src/stm32f1xx_hal_dma.c ****     {
 1674              		.loc 1 538 9 discriminator 62 view .LVU439
 1675 023e 1431     		adds	r1, r1, #20
 1676 0240 8B42     		cmp	r3, r1
 1677 0242 24D0     		beq	.L171
 538:Drivers/STM32F1xx_HAL_Driver/Src/stm32f1xx_hal_dma.c ****     {
 1678              		.loc 1 538 9 discriminator 64 view .LVU440
 1679 0244 1431     		adds	r1, r1, #20
 1680 0246 8B42     		cmp	r3, r1
 1681 0248 23D0     		beq	.L172
 538:Drivers/STM32F1xx_HAL_Driver/Src/stm32f1xx_hal_dma.c ****     {
 1682              		.loc 1 538 9 discriminator 66 view .LVU441
 1683 024a 1431     		adds	r1, r1, #20
 1684 024c 8B42     		cmp	r3, r1
 1685 024e 02D0     		beq	.L226
 538:Drivers/STM32F1xx_HAL_Driver/Src/stm32f1xx_hal_dma.c ****     {
 1686              		.loc 1 538 9 view .LVU442
 1687 0250 4FF40023 		mov	r3, #524288
 1688 0254 03E0     		b	.L114
 1689              	.L226:
 1690 0256 4FF40043 		mov	r3, #32768
 1691 025a 00E0     		b	.L114
 1692              	.L163:
 1693 025c 0823     		movs	r3, #8
 1694              	.L114:
 538:Drivers/STM32F1xx_HAL_Driver/Src/stm32f1xx_hal_dma.c ****     {
 1695              		.loc 1 538 69 discriminator 91 view .LVU443
 1696 025e 1A42     		tst	r2, r3
 1697 0260 14BF     		ite	ne
 1698 0262 0123     		movne	r3, #1
 1699 0264 0023     		moveq	r3, #0
 1700 0266 77E7     		b	.L113
 1701              	.L164:
 538:Drivers/STM32F1xx_HAL_Driver/Src/stm32f1xx_hal_dma.c ****     {
 1702              		.loc 1 538 9 view .LVU444
 1703 0268 8023     		movs	r3, #128
 1704 026a F8E7     		b	.L114
 1705              	.L165:
 1706 026c 4FF40063 		mov	r3, #2048
 1707 0270 F5E7     		b	.L114
 1708              	.L166:
 1709 0272 4FF40043 		mov	r3, #32768
 1710 0276 F2E7     		b	.L114
 1711              	.L167:
 1712 0278 4FF40023 		mov	r3, #524288
 1713 027c EFE7     		b	.L114
 1714              	.L168:
 1715 027e 4FF40003 		mov	r3, #8388608
 1716 0282 ECE7     		b	.L114
 1717              	.L169:
 1718 0284 4FF00063 		mov	r3, #134217728
 1719 0288 E9E7     		b	.L114
 1720              	.L170:
 1721 028a 0823     		movs	r3, #8
 1722 028c E7E7     		b	.L114
ARM GAS  C:\Users\begre\AppData\Local\Temp\ccGpVL6f.s 			page 54


 1723              	.L171:
 1724 028e 8023     		movs	r3, #128
 1725 0290 E5E7     		b	.L114
 1726              	.L172:
 1727 0292 4FF40063 		mov	r3, #2048
 1728 0296 E2E7     		b	.L114
 1729              	.L222:
 543:Drivers/STM32F1xx_HAL_Driver/Src/stm32f1xx_hal_dma.c **** 
 1730              		.loc 1 543 7 is_stmt 1 view .LVU445
 543:Drivers/STM32F1xx_HAL_Driver/Src/stm32f1xx_hal_dma.c **** 
 1731              		.loc 1 543 57 is_stmt 0 view .LVU446
 1732 0298 236C     		ldr	r3, [r4, #64]
 543:Drivers/STM32F1xx_HAL_Driver/Src/stm32f1xx_hal_dma.c **** 
 1733              		.loc 1 543 11 view .LVU447
 1734 029a E26B     		ldr	r2, [r4, #60]
 543:Drivers/STM32F1xx_HAL_Driver/Src/stm32f1xx_hal_dma.c **** 
 1735              		.loc 1 543 50 view .LVU448
 1736 029c 0120     		movs	r0, #1
 1737 029e 00FA03F3 		lsl	r3, r0, r3
 543:Drivers/STM32F1xx_HAL_Driver/Src/stm32f1xx_hal_dma.c **** 
 1738              		.loc 1 543 34 view .LVU449
 1739 02a2 5360     		str	r3, [r2, #4]
 546:Drivers/STM32F1xx_HAL_Driver/Src/stm32f1xx_hal_dma.c **** 
 1740              		.loc 1 546 7 is_stmt 1 view .LVU450
 1741 02a4 A36B     		ldr	r3, [r4, #56]
 1742 02a6 0343     		orrs	r3, r3, r0
 1743 02a8 A363     		str	r3, [r4, #56]
 549:Drivers/STM32F1xx_HAL_Driver/Src/stm32f1xx_hal_dma.c **** 
 1744              		.loc 1 549 7 view .LVU451
 549:Drivers/STM32F1xx_HAL_Driver/Src/stm32f1xx_hal_dma.c **** 
 1745              		.loc 1 549 18 is_stmt 0 view .LVU452
 1746 02aa 84F82100 		strb	r0, [r4, #33]
 552:Drivers/STM32F1xx_HAL_Driver/Src/stm32f1xx_hal_dma.c **** 
 1747              		.loc 1 552 7 is_stmt 1 view .LVU453
 552:Drivers/STM32F1xx_HAL_Driver/Src/stm32f1xx_hal_dma.c **** 
 1748              		.loc 1 552 7 view .LVU454
 1749 02ae 0023     		movs	r3, #0
 1750 02b0 84F82030 		strb	r3, [r4, #32]
 552:Drivers/STM32F1xx_HAL_Driver/Src/stm32f1xx_hal_dma.c **** 
 1751              		.loc 1 552 7 view .LVU455
 554:Drivers/STM32F1xx_HAL_Driver/Src/stm32f1xx_hal_dma.c ****     }
 1752              		.loc 1 554 7 view .LVU456
 554:Drivers/STM32F1xx_HAL_Driver/Src/stm32f1xx_hal_dma.c ****     }
 1753              		.loc 1 554 14 is_stmt 0 view .LVU457
 1754 02b4 B2E6     		b	.L106
 1755              	.L232:
 1756 02b6 00BF     		.align	2
 1757              	.L231:
 1758 02b8 08000240 		.word	1073872904
 1759 02bc 80000240 		.word	1073873024
 1760 02c0 00040240 		.word	1073873920
 1761 02c4 00000240 		.word	1073872896
 1762              	.L223:
 559:Drivers/STM32F1xx_HAL_Driver/Src/stm32f1xx_hal_dma.c ****       {
 1763              		.loc 1 559 7 is_stmt 1 view .LVU458
 559:Drivers/STM32F1xx_HAL_Driver/Src/stm32f1xx_hal_dma.c ****       {
 1764              		.loc 1 559 9 is_stmt 0 view .LVU459
ARM GAS  C:\Users\begre\AppData\Local\Temp\ccGpVL6f.s 			page 55


 1765 02c8 36B1     		cbz	r6, .L117
 559:Drivers/STM32F1xx_HAL_Driver/Src/stm32f1xx_hal_dma.c ****       {
 1766              		.loc 1 559 31 discriminator 1 view .LVU460
 1767 02ca FFF7FEFF 		bl	HAL_GetTick
 1768              	.LVL77:
 559:Drivers/STM32F1xx_HAL_Driver/Src/stm32f1xx_hal_dma.c ****       {
 1769              		.loc 1 559 45 discriminator 1 view .LVU461
 1770 02ce A0EB0900 		sub	r0, r0, r9
 559:Drivers/STM32F1xx_HAL_Driver/Src/stm32f1xx_hal_dma.c ****       {
 1771              		.loc 1 559 26 discriminator 1 view .LVU462
 1772 02d2 B042     		cmp	r0, r6
 1773 02d4 7FF647AF 		bls	.L116
 1774              	.L117:
 562:Drivers/STM32F1xx_HAL_Driver/Src/stm32f1xx_hal_dma.c **** 
 1775              		.loc 1 562 9 is_stmt 1 view .LVU463
 1776 02d8 A36B     		ldr	r3, [r4, #56]
 1777 02da 43F02003 		orr	r3, r3, #32
 1778 02de A363     		str	r3, [r4, #56]
 565:Drivers/STM32F1xx_HAL_Driver/Src/stm32f1xx_hal_dma.c **** 
 1779              		.loc 1 565 9 view .LVU464
 565:Drivers/STM32F1xx_HAL_Driver/Src/stm32f1xx_hal_dma.c **** 
 1780              		.loc 1 565 21 is_stmt 0 view .LVU465
 1781 02e0 0120     		movs	r0, #1
 1782 02e2 84F82100 		strb	r0, [r4, #33]
 568:Drivers/STM32F1xx_HAL_Driver/Src/stm32f1xx_hal_dma.c **** 
 1783              		.loc 1 568 9 is_stmt 1 view .LVU466
 568:Drivers/STM32F1xx_HAL_Driver/Src/stm32f1xx_hal_dma.c **** 
 1784              		.loc 1 568 9 view .LVU467
 1785 02e6 0023     		movs	r3, #0
 1786 02e8 84F82030 		strb	r3, [r4, #32]
 568:Drivers/STM32F1xx_HAL_Driver/Src/stm32f1xx_hal_dma.c **** 
 1787              		.loc 1 568 9 view .LVU468
 570:Drivers/STM32F1xx_HAL_Driver/Src/stm32f1xx_hal_dma.c ****       }
 1788              		.loc 1 570 9 view .LVU469
 570:Drivers/STM32F1xx_HAL_Driver/Src/stm32f1xx_hal_dma.c ****       }
 1789              		.loc 1 570 16 is_stmt 0 view .LVU470
 1790 02ec 96E6     		b	.L106
 1791              	.L118:
 536:Drivers/STM32F1xx_HAL_Driver/Src/stm32f1xx_hal_dma.c ****   {
 1792              		.loc 1 536 9 discriminator 2 view .LVU471
 1793 02ee 934A     		ldr	r2, .L233
 1794 02f0 1268     		ldr	r2, [r2]
 536:Drivers/STM32F1xx_HAL_Driver/Src/stm32f1xx_hal_dma.c ****   {
 1795              		.loc 1 536 40 discriminator 2 view .LVU472
 1796 02f2 3A42     		tst	r2, r7
 1797 02f4 0CBF     		ite	eq
 1798 02f6 0125     		moveq	r5, #1
 1799 02f8 0025     		movne	r5, #0
 1800 02fa 3FE7     		b	.L119
 1801              	.L224:
 575:Drivers/STM32F1xx_HAL_Driver/Src/stm32f1xx_hal_dma.c ****   {
 1802              		.loc 1 575 3 is_stmt 1 view .LVU473
 575:Drivers/STM32F1xx_HAL_Driver/Src/stm32f1xx_hal_dma.c ****   {
 1803              		.loc 1 575 5 is_stmt 0 view .LVU474
 1804 02fc B8F1000F 		cmp	r8, #0
 1805 0300 40F09180 		bne	.L121
 578:Drivers/STM32F1xx_HAL_Driver/Src/stm32f1xx_hal_dma.c **** 
ARM GAS  C:\Users\begre\AppData\Local\Temp\ccGpVL6f.s 			page 56


 1806              		.loc 1 578 5 is_stmt 1 view .LVU475
 1807 0304 8E4A     		ldr	r2, .L233+4
 1808 0306 9342     		cmp	r3, r2
 1809 0308 49D9     		bls	.L122
 578:Drivers/STM32F1xx_HAL_Driver/Src/stm32f1xx_hal_dma.c **** 
 1810              		.loc 1 578 5 is_stmt 0 discriminator 1 view .LVU476
 1811 030a 783A     		subs	r2, r2, #120
 1812 030c 9342     		cmp	r3, r2
 1813 030e 24D0     		beq	.L174
 578:Drivers/STM32F1xx_HAL_Driver/Src/stm32f1xx_hal_dma.c **** 
 1814              		.loc 1 578 5 discriminator 3 view .LVU477
 1815 0310 1432     		adds	r2, r2, #20
 1816 0312 9342     		cmp	r3, r2
 1817 0314 2BD0     		beq	.L175
 578:Drivers/STM32F1xx_HAL_Driver/Src/stm32f1xx_hal_dma.c **** 
 1818              		.loc 1 578 5 discriminator 5 view .LVU478
 1819 0316 1432     		adds	r2, r2, #20
 1820 0318 9342     		cmp	r3, r2
 1821 031a 2AD0     		beq	.L176
 578:Drivers/STM32F1xx_HAL_Driver/Src/stm32f1xx_hal_dma.c **** 
 1822              		.loc 1 578 5 discriminator 7 view .LVU479
 1823 031c 1432     		adds	r2, r2, #20
 1824 031e 9342     		cmp	r3, r2
 1825 0320 2AD0     		beq	.L177
 578:Drivers/STM32F1xx_HAL_Driver/Src/stm32f1xx_hal_dma.c **** 
 1826              		.loc 1 578 5 discriminator 9 view .LVU480
 1827 0322 1432     		adds	r2, r2, #20
 1828 0324 9342     		cmp	r3, r2
 1829 0326 2AD0     		beq	.L178
 578:Drivers/STM32F1xx_HAL_Driver/Src/stm32f1xx_hal_dma.c **** 
 1830              		.loc 1 578 5 discriminator 11 view .LVU481
 1831 0328 1432     		adds	r2, r2, #20
 1832 032a 9342     		cmp	r3, r2
 1833 032c 2AD0     		beq	.L179
 578:Drivers/STM32F1xx_HAL_Driver/Src/stm32f1xx_hal_dma.c **** 
 1834              		.loc 1 578 5 discriminator 13 view .LVU482
 1835 032e 1432     		adds	r2, r2, #20
 1836 0330 9342     		cmp	r3, r2
 1837 0332 2AD0     		beq	.L180
 578:Drivers/STM32F1xx_HAL_Driver/Src/stm32f1xx_hal_dma.c **** 
 1838              		.loc 1 578 5 discriminator 15 view .LVU483
 1839 0334 02F56272 		add	r2, r2, #904
 1840 0338 9342     		cmp	r3, r2
 1841 033a 29D0     		beq	.L181
 578:Drivers/STM32F1xx_HAL_Driver/Src/stm32f1xx_hal_dma.c **** 
 1842              		.loc 1 578 5 discriminator 17 view .LVU484
 1843 033c 1432     		adds	r2, r2, #20
 1844 033e 9342     		cmp	r3, r2
 1845 0340 28D0     		beq	.L182
 578:Drivers/STM32F1xx_HAL_Driver/Src/stm32f1xx_hal_dma.c **** 
 1846              		.loc 1 578 5 discriminator 19 view .LVU485
 1847 0342 1432     		adds	r2, r2, #20
 1848 0344 9342     		cmp	r3, r2
 1849 0346 27D0     		beq	.L183
 578:Drivers/STM32F1xx_HAL_Driver/Src/stm32f1xx_hal_dma.c **** 
 1850              		.loc 1 578 5 discriminator 21 view .LVU486
 1851 0348 1432     		adds	r2, r2, #20
ARM GAS  C:\Users\begre\AppData\Local\Temp\ccGpVL6f.s 			page 57


 1852 034a 9342     		cmp	r3, r2
 1853 034c 02D0     		beq	.L227
 578:Drivers/STM32F1xx_HAL_Driver/Src/stm32f1xx_hal_dma.c **** 
 1854              		.loc 1 578 5 view .LVU487
 1855 034e 4FF40033 		mov	r3, #131072
 1856 0352 03E0     		b	.L123
 1857              	.L227:
 1858 0354 4FF40053 		mov	r3, #8192
 1859 0358 00E0     		b	.L123
 1860              	.L174:
 1861 035a 0223     		movs	r3, #2
 1862              	.L123:
 578:Drivers/STM32F1xx_HAL_Driver/Src/stm32f1xx_hal_dma.c **** 
 1863              		.loc 1 578 5 discriminator 46 view .LVU488
 1864 035c 794A     		ldr	r2, .L233+8
 1865 035e 5360     		str	r3, [r2, #4]
 1866              	.L124:
 582:Drivers/STM32F1xx_HAL_Driver/Src/stm32f1xx_hal_dma.c ****   }
 1867              		.loc 1 582 5 is_stmt 1 view .LVU489
 582:Drivers/STM32F1xx_HAL_Driver/Src/stm32f1xx_hal_dma.c ****   }
 1868              		.loc 1 582 17 is_stmt 0 view .LVU490
 1869 0360 0123     		movs	r3, #1
 1870 0362 84F82130 		strb	r3, [r4, #33]
 1871              	.L126:
 591:Drivers/STM32F1xx_HAL_Driver/Src/stm32f1xx_hal_dma.c **** 
 1872              		.loc 1 591 3 is_stmt 1 view .LVU491
 591:Drivers/STM32F1xx_HAL_Driver/Src/stm32f1xx_hal_dma.c **** 
 1873              		.loc 1 591 3 view .LVU492
 1874 0366 0020     		movs	r0, #0
 1875 0368 84F82000 		strb	r0, [r4, #32]
 591:Drivers/STM32F1xx_HAL_Driver/Src/stm32f1xx_hal_dma.c **** 
 1876              		.loc 1 591 3 view .LVU493
 593:Drivers/STM32F1xx_HAL_Driver/Src/stm32f1xx_hal_dma.c **** }
 1877              		.loc 1 593 3 view .LVU494
 593:Drivers/STM32F1xx_HAL_Driver/Src/stm32f1xx_hal_dma.c **** }
 1878              		.loc 1 593 10 is_stmt 0 view .LVU495
 1879 036c 56E6     		b	.L106
 1880              	.L175:
 578:Drivers/STM32F1xx_HAL_Driver/Src/stm32f1xx_hal_dma.c **** 
 1881              		.loc 1 578 5 view .LVU496
 1882 036e 2023     		movs	r3, #32
 1883 0370 F4E7     		b	.L123
 1884              	.L176:
 1885 0372 4FF40073 		mov	r3, #512
 1886 0376 F1E7     		b	.L123
 1887              	.L177:
 1888 0378 4FF40053 		mov	r3, #8192
 1889 037c EEE7     		b	.L123
 1890              	.L178:
 1891 037e 4FF40033 		mov	r3, #131072
 1892 0382 EBE7     		b	.L123
 1893              	.L179:
 1894 0384 4FF40013 		mov	r3, #2097152
 1895 0388 E8E7     		b	.L123
 1896              	.L180:
 1897 038a 4FF00073 		mov	r3, #33554432
 1898 038e E5E7     		b	.L123
ARM GAS  C:\Users\begre\AppData\Local\Temp\ccGpVL6f.s 			page 58


 1899              	.L181:
 1900 0390 0223     		movs	r3, #2
 1901 0392 E3E7     		b	.L123
 1902              	.L182:
 1903 0394 2023     		movs	r3, #32
 1904 0396 E1E7     		b	.L123
 1905              	.L183:
 1906 0398 4FF40073 		mov	r3, #512
 1907 039c DEE7     		b	.L123
 1908              	.L122:
 578:Drivers/STM32F1xx_HAL_Driver/Src/stm32f1xx_hal_dma.c **** 
 1909              		.loc 1 578 5 discriminator 2 view .LVU497
 1910 039e 6A4A     		ldr	r2, .L233+12
 1911 03a0 9342     		cmp	r3, r2
 1912 03a2 24D0     		beq	.L185
 578:Drivers/STM32F1xx_HAL_Driver/Src/stm32f1xx_hal_dma.c **** 
 1913              		.loc 1 578 5 discriminator 47 view .LVU498
 1914 03a4 1432     		adds	r2, r2, #20
 1915 03a6 9342     		cmp	r3, r2
 1916 03a8 25D0     		beq	.L186
 578:Drivers/STM32F1xx_HAL_Driver/Src/stm32f1xx_hal_dma.c **** 
 1917              		.loc 1 578 5 discriminator 49 view .LVU499
 1918 03aa 1432     		adds	r2, r2, #20
 1919 03ac 9342     		cmp	r3, r2
 1920 03ae 24D0     		beq	.L187
 578:Drivers/STM32F1xx_HAL_Driver/Src/stm32f1xx_hal_dma.c **** 
 1921              		.loc 1 578 5 discriminator 51 view .LVU500
 1922 03b0 1432     		adds	r2, r2, #20
 1923 03b2 9342     		cmp	r3, r2
 1924 03b4 24D0     		beq	.L188
 578:Drivers/STM32F1xx_HAL_Driver/Src/stm32f1xx_hal_dma.c **** 
 1925              		.loc 1 578 5 discriminator 53 view .LVU501
 1926 03b6 1432     		adds	r2, r2, #20
 1927 03b8 9342     		cmp	r3, r2
 1928 03ba 24D0     		beq	.L189
 578:Drivers/STM32F1xx_HAL_Driver/Src/stm32f1xx_hal_dma.c **** 
 1929              		.loc 1 578 5 discriminator 55 view .LVU502
 1930 03bc 1432     		adds	r2, r2, #20
 1931 03be 9342     		cmp	r3, r2
 1932 03c0 24D0     		beq	.L190
 578:Drivers/STM32F1xx_HAL_Driver/Src/stm32f1xx_hal_dma.c **** 
 1933              		.loc 1 578 5 discriminator 57 view .LVU503
 1934 03c2 1432     		adds	r2, r2, #20
 1935 03c4 9342     		cmp	r3, r2
 1936 03c6 24D0     		beq	.L191
 578:Drivers/STM32F1xx_HAL_Driver/Src/stm32f1xx_hal_dma.c **** 
 1937              		.loc 1 578 5 discriminator 59 view .LVU504
 1938 03c8 02F56272 		add	r2, r2, #904
 1939 03cc 9342     		cmp	r3, r2
 1940 03ce 23D0     		beq	.L192
 578:Drivers/STM32F1xx_HAL_Driver/Src/stm32f1xx_hal_dma.c **** 
 1941              		.loc 1 578 5 discriminator 61 view .LVU505
 1942 03d0 1432     		adds	r2, r2, #20
 1943 03d2 9342     		cmp	r3, r2
 1944 03d4 22D0     		beq	.L193
 578:Drivers/STM32F1xx_HAL_Driver/Src/stm32f1xx_hal_dma.c **** 
 1945              		.loc 1 578 5 discriminator 63 view .LVU506
ARM GAS  C:\Users\begre\AppData\Local\Temp\ccGpVL6f.s 			page 59


 1946 03d6 1432     		adds	r2, r2, #20
 1947 03d8 9342     		cmp	r3, r2
 1948 03da 21D0     		beq	.L194
 578:Drivers/STM32F1xx_HAL_Driver/Src/stm32f1xx_hal_dma.c **** 
 1949              		.loc 1 578 5 discriminator 65 view .LVU507
 1950 03dc 1432     		adds	r2, r2, #20
 1951 03de 9342     		cmp	r3, r2
 1952 03e0 02D0     		beq	.L228
 578:Drivers/STM32F1xx_HAL_Driver/Src/stm32f1xx_hal_dma.c **** 
 1953              		.loc 1 578 5 view .LVU508
 1954 03e2 4FF40033 		mov	r3, #131072
 1955 03e6 03E0     		b	.L125
 1956              	.L228:
 1957 03e8 4FF40053 		mov	r3, #8192
 1958 03ec 00E0     		b	.L125
 1959              	.L185:
 1960 03ee 0223     		movs	r3, #2
 1961              	.L125:
 578:Drivers/STM32F1xx_HAL_Driver/Src/stm32f1xx_hal_dma.c **** 
 1962              		.loc 1 578 5 discriminator 90 view .LVU509
 1963 03f0 524A     		ldr	r2, .L233
 1964 03f2 5360     		str	r3, [r2, #4]
 1965 03f4 B4E7     		b	.L124
 1966              	.L186:
 578:Drivers/STM32F1xx_HAL_Driver/Src/stm32f1xx_hal_dma.c **** 
 1967              		.loc 1 578 5 view .LVU510
 1968 03f6 2023     		movs	r3, #32
 1969 03f8 FAE7     		b	.L125
 1970              	.L187:
 1971 03fa 4FF40073 		mov	r3, #512
 1972 03fe F7E7     		b	.L125
 1973              	.L188:
 1974 0400 4FF40053 		mov	r3, #8192
 1975 0404 F4E7     		b	.L125
 1976              	.L189:
 1977 0406 4FF40033 		mov	r3, #131072
 1978 040a F1E7     		b	.L125
 1979              	.L190:
 1980 040c 4FF40013 		mov	r3, #2097152
 1981 0410 EEE7     		b	.L125
 1982              	.L191:
 1983 0412 4FF00073 		mov	r3, #33554432
 1984 0416 EBE7     		b	.L125
 1985              	.L192:
 1986 0418 0223     		movs	r3, #2
 1987 041a E9E7     		b	.L125
 1988              	.L193:
 1989 041c 2023     		movs	r3, #32
 1990 041e E7E7     		b	.L125
 1991              	.L194:
 1992 0420 4FF40073 		mov	r3, #512
 1993 0424 E4E7     		b	.L125
 1994              	.L121:
 587:Drivers/STM32F1xx_HAL_Driver/Src/stm32f1xx_hal_dma.c ****   }
 1995              		.loc 1 587 5 is_stmt 1 view .LVU511
 1996 0426 464A     		ldr	r2, .L233+4
 1997 0428 9342     		cmp	r3, r2
ARM GAS  C:\Users\begre\AppData\Local\Temp\ccGpVL6f.s 			page 60


 1998 042a 43D9     		bls	.L127
 587:Drivers/STM32F1xx_HAL_Driver/Src/stm32f1xx_hal_dma.c ****   }
 1999              		.loc 1 587 5 is_stmt 0 discriminator 1 view .LVU512
 2000 042c 783A     		subs	r2, r2, #120
 2001 042e 9342     		cmp	r3, r2
 2002 0430 24D0     		beq	.L196
 587:Drivers/STM32F1xx_HAL_Driver/Src/stm32f1xx_hal_dma.c ****   }
 2003              		.loc 1 587 5 discriminator 3 view .LVU513
 2004 0432 1432     		adds	r2, r2, #20
 2005 0434 9342     		cmp	r3, r2
 2006 0436 25D0     		beq	.L197
 587:Drivers/STM32F1xx_HAL_Driver/Src/stm32f1xx_hal_dma.c ****   }
 2007              		.loc 1 587 5 discriminator 5 view .LVU514
 2008 0438 1432     		adds	r2, r2, #20
 2009 043a 9342     		cmp	r3, r2
 2010 043c 24D0     		beq	.L198
 587:Drivers/STM32F1xx_HAL_Driver/Src/stm32f1xx_hal_dma.c ****   }
 2011              		.loc 1 587 5 discriminator 7 view .LVU515
 2012 043e 1432     		adds	r2, r2, #20
 2013 0440 9342     		cmp	r3, r2
 2014 0442 24D0     		beq	.L199
 587:Drivers/STM32F1xx_HAL_Driver/Src/stm32f1xx_hal_dma.c ****   }
 2015              		.loc 1 587 5 discriminator 9 view .LVU516
 2016 0444 1432     		adds	r2, r2, #20
 2017 0446 9342     		cmp	r3, r2
 2018 0448 24D0     		beq	.L200
 587:Drivers/STM32F1xx_HAL_Driver/Src/stm32f1xx_hal_dma.c ****   }
 2019              		.loc 1 587 5 discriminator 11 view .LVU517
 2020 044a 1432     		adds	r2, r2, #20
 2021 044c 9342     		cmp	r3, r2
 2022 044e 24D0     		beq	.L201
 587:Drivers/STM32F1xx_HAL_Driver/Src/stm32f1xx_hal_dma.c ****   }
 2023              		.loc 1 587 5 discriminator 13 view .LVU518
 2024 0450 1432     		adds	r2, r2, #20
 2025 0452 9342     		cmp	r3, r2
 2026 0454 24D0     		beq	.L202
 587:Drivers/STM32F1xx_HAL_Driver/Src/stm32f1xx_hal_dma.c ****   }
 2027              		.loc 1 587 5 discriminator 15 view .LVU519
 2028 0456 02F56272 		add	r2, r2, #904
 2029 045a 9342     		cmp	r3, r2
 2030 045c 23D0     		beq	.L203
 587:Drivers/STM32F1xx_HAL_Driver/Src/stm32f1xx_hal_dma.c ****   }
 2031              		.loc 1 587 5 discriminator 17 view .LVU520
 2032 045e 1432     		adds	r2, r2, #20
 2033 0460 9342     		cmp	r3, r2
 2034 0462 22D0     		beq	.L204
 587:Drivers/STM32F1xx_HAL_Driver/Src/stm32f1xx_hal_dma.c ****   }
 2035              		.loc 1 587 5 discriminator 19 view .LVU521
 2036 0464 1432     		adds	r2, r2, #20
 2037 0466 9342     		cmp	r3, r2
 2038 0468 21D0     		beq	.L205
 587:Drivers/STM32F1xx_HAL_Driver/Src/stm32f1xx_hal_dma.c ****   }
 2039              		.loc 1 587 5 discriminator 21 view .LVU522
 2040 046a 1432     		adds	r2, r2, #20
 2041 046c 9342     		cmp	r3, r2
 2042 046e 02D0     		beq	.L229
 587:Drivers/STM32F1xx_HAL_Driver/Src/stm32f1xx_hal_dma.c ****   }
ARM GAS  C:\Users\begre\AppData\Local\Temp\ccGpVL6f.s 			page 61


 2043              		.loc 1 587 5 view .LVU523
 2044 0470 4FF48023 		mov	r3, #262144
 2045 0474 03E0     		b	.L128
 2046              	.L229:
 2047 0476 4FF48043 		mov	r3, #16384
 2048 047a 00E0     		b	.L128
 2049              	.L196:
 2050 047c 0423     		movs	r3, #4
 2051              	.L128:
 587:Drivers/STM32F1xx_HAL_Driver/Src/stm32f1xx_hal_dma.c ****   }
 2052              		.loc 1 587 5 discriminator 46 view .LVU524
 2053 047e 314A     		ldr	r2, .L233+8
 2054 0480 5360     		str	r3, [r2, #4]
 2055 0482 70E7     		b	.L126
 2056              	.L197:
 587:Drivers/STM32F1xx_HAL_Driver/Src/stm32f1xx_hal_dma.c ****   }
 2057              		.loc 1 587 5 view .LVU525
 2058 0484 4023     		movs	r3, #64
 2059 0486 FAE7     		b	.L128
 2060              	.L198:
 2061 0488 4FF48063 		mov	r3, #1024
 2062 048c F7E7     		b	.L128
 2063              	.L199:
 2064 048e 4FF48043 		mov	r3, #16384
 2065 0492 F4E7     		b	.L128
 2066              	.L200:
 2067 0494 4FF48023 		mov	r3, #262144
 2068 0498 F1E7     		b	.L128
 2069              	.L201:
 2070 049a 4FF48003 		mov	r3, #4194304
 2071 049e EEE7     		b	.L128
 2072              	.L202:
 2073 04a0 4FF08063 		mov	r3, #67108864
 2074 04a4 EBE7     		b	.L128
 2075              	.L203:
 2076 04a6 0423     		movs	r3, #4
 2077 04a8 E9E7     		b	.L128
 2078              	.L204:
 2079 04aa 4023     		movs	r3, #64
 2080 04ac E7E7     		b	.L128
 2081              	.L205:
 2082 04ae 4FF48063 		mov	r3, #1024
 2083 04b2 E4E7     		b	.L128
 2084              	.L127:
 587:Drivers/STM32F1xx_HAL_Driver/Src/stm32f1xx_hal_dma.c ****   }
 2085              		.loc 1 587 5 discriminator 2 view .LVU526
 2086 04b4 244A     		ldr	r2, .L233+12
 2087 04b6 9342     		cmp	r3, r2
 2088 04b8 24D0     		beq	.L207
 587:Drivers/STM32F1xx_HAL_Driver/Src/stm32f1xx_hal_dma.c ****   }
 2089              		.loc 1 587 5 discriminator 47 view .LVU527
 2090 04ba 1432     		adds	r2, r2, #20
 2091 04bc 9342     		cmp	r3, r2
 2092 04be 25D0     		beq	.L208
 587:Drivers/STM32F1xx_HAL_Driver/Src/stm32f1xx_hal_dma.c ****   }
 2093              		.loc 1 587 5 discriminator 49 view .LVU528
 2094 04c0 1432     		adds	r2, r2, #20
ARM GAS  C:\Users\begre\AppData\Local\Temp\ccGpVL6f.s 			page 62


 2095 04c2 9342     		cmp	r3, r2
 2096 04c4 24D0     		beq	.L209
 587:Drivers/STM32F1xx_HAL_Driver/Src/stm32f1xx_hal_dma.c ****   }
 2097              		.loc 1 587 5 discriminator 51 view .LVU529
 2098 04c6 1432     		adds	r2, r2, #20
 2099 04c8 9342     		cmp	r3, r2
 2100 04ca 24D0     		beq	.L210
 587:Drivers/STM32F1xx_HAL_Driver/Src/stm32f1xx_hal_dma.c ****   }
 2101              		.loc 1 587 5 discriminator 53 view .LVU530
 2102 04cc 1432     		adds	r2, r2, #20
 2103 04ce 9342     		cmp	r3, r2
 2104 04d0 24D0     		beq	.L211
 587:Drivers/STM32F1xx_HAL_Driver/Src/stm32f1xx_hal_dma.c ****   }
 2105              		.loc 1 587 5 discriminator 55 view .LVU531
 2106 04d2 1432     		adds	r2, r2, #20
 2107 04d4 9342     		cmp	r3, r2
 2108 04d6 24D0     		beq	.L212
 587:Drivers/STM32F1xx_HAL_Driver/Src/stm32f1xx_hal_dma.c ****   }
 2109              		.loc 1 587 5 discriminator 57 view .LVU532
 2110 04d8 1432     		adds	r2, r2, #20
 2111 04da 9342     		cmp	r3, r2
 2112 04dc 24D0     		beq	.L213
 587:Drivers/STM32F1xx_HAL_Driver/Src/stm32f1xx_hal_dma.c ****   }
 2113              		.loc 1 587 5 discriminator 59 view .LVU533
 2114 04de 02F56272 		add	r2, r2, #904
 2115 04e2 9342     		cmp	r3, r2
 2116 04e4 23D0     		beq	.L214
 587:Drivers/STM32F1xx_HAL_Driver/Src/stm32f1xx_hal_dma.c ****   }
 2117              		.loc 1 587 5 discriminator 61 view .LVU534
 2118 04e6 1432     		adds	r2, r2, #20
 2119 04e8 9342     		cmp	r3, r2
 2120 04ea 22D0     		beq	.L215
 587:Drivers/STM32F1xx_HAL_Driver/Src/stm32f1xx_hal_dma.c ****   }
 2121              		.loc 1 587 5 discriminator 63 view .LVU535
 2122 04ec 1432     		adds	r2, r2, #20
 2123 04ee 9342     		cmp	r3, r2
 2124 04f0 21D0     		beq	.L216
 587:Drivers/STM32F1xx_HAL_Driver/Src/stm32f1xx_hal_dma.c ****   }
 2125              		.loc 1 587 5 discriminator 65 view .LVU536
 2126 04f2 1432     		adds	r2, r2, #20
 2127 04f4 9342     		cmp	r3, r2
 2128 04f6 02D0     		beq	.L230
 587:Drivers/STM32F1xx_HAL_Driver/Src/stm32f1xx_hal_dma.c ****   }
 2129              		.loc 1 587 5 view .LVU537
 2130 04f8 4FF48023 		mov	r3, #262144
 2131 04fc 03E0     		b	.L129
 2132              	.L230:
 2133 04fe 4FF48043 		mov	r3, #16384
 2134 0502 00E0     		b	.L129
 2135              	.L207:
 2136 0504 0423     		movs	r3, #4
 2137              	.L129:
 587:Drivers/STM32F1xx_HAL_Driver/Src/stm32f1xx_hal_dma.c ****   }
 2138              		.loc 1 587 5 discriminator 90 view .LVU538
 2139 0506 0D4A     		ldr	r2, .L233
 2140 0508 5360     		str	r3, [r2, #4]
 2141 050a 2CE7     		b	.L126
ARM GAS  C:\Users\begre\AppData\Local\Temp\ccGpVL6f.s 			page 63


 2142              	.L208:
 587:Drivers/STM32F1xx_HAL_Driver/Src/stm32f1xx_hal_dma.c ****   }
 2143              		.loc 1 587 5 view .LVU539
 2144 050c 4023     		movs	r3, #64
 2145 050e FAE7     		b	.L129
 2146              	.L209:
 2147 0510 4FF48063 		mov	r3, #1024
 2148 0514 F7E7     		b	.L129
 2149              	.L210:
 2150 0516 4FF48043 		mov	r3, #16384
 2151 051a F4E7     		b	.L129
 2152              	.L211:
 2153 051c 4FF48023 		mov	r3, #262144
 2154 0520 F1E7     		b	.L129
 2155              	.L212:
 2156 0522 4FF48003 		mov	r3, #4194304
 2157 0526 EEE7     		b	.L129
 2158              	.L213:
 2159 0528 4FF08063 		mov	r3, #67108864
 2160 052c EBE7     		b	.L129
 2161              	.L214:
 2162 052e 0423     		movs	r3, #4
 2163 0530 E9E7     		b	.L129
 2164              	.L215:
 2165 0532 4023     		movs	r3, #64
 2166 0534 E7E7     		b	.L129
 2167              	.L216:
 2168 0536 4FF48063 		mov	r3, #1024
 2169 053a E4E7     		b	.L129
 2170              	.L234:
 2171              		.align	2
 2172              	.L233:
 2173 053c 00000240 		.word	1073872896
 2174 0540 80000240 		.word	1073873024
 2175 0544 00040240 		.word	1073873920
 2176 0548 08000240 		.word	1073872904
 2177              		.cfi_endproc
 2178              	.LFE71:
 2180              		.section	.text.HAL_DMA_IRQHandler,"ax",%progbits
 2181              		.align	1
 2182              		.global	HAL_DMA_IRQHandler
 2183              		.syntax unified
 2184              		.thumb
 2185              		.thumb_func
 2187              	HAL_DMA_IRQHandler:
 2188              	.LVL78:
 2189              	.LFB72:
 603:Drivers/STM32F1xx_HAL_Driver/Src/stm32f1xx_hal_dma.c ****   uint32_t flag_it = hdma->DmaBaseAddress->ISR;
 2190              		.loc 1 603 1 is_stmt 1 view -0
 2191              		.cfi_startproc
 2192              		@ args = 0, pretend = 0, frame = 0
 2193              		@ frame_needed = 0, uses_anonymous_args = 0
 603:Drivers/STM32F1xx_HAL_Driver/Src/stm32f1xx_hal_dma.c ****   uint32_t flag_it = hdma->DmaBaseAddress->ISR;
 2194              		.loc 1 603 1 is_stmt 0 view .LVU541
 2195 0000 38B5     		push	{r3, r4, r5, lr}
 2196              	.LCFI11:
 2197              		.cfi_def_cfa_offset 16
ARM GAS  C:\Users\begre\AppData\Local\Temp\ccGpVL6f.s 			page 64


 2198              		.cfi_offset 3, -16
 2199              		.cfi_offset 4, -12
 2200              		.cfi_offset 5, -8
 2201              		.cfi_offset 14, -4
 604:Drivers/STM32F1xx_HAL_Driver/Src/stm32f1xx_hal_dma.c ****   uint32_t source_it = hdma->Instance->CCR;
 2202              		.loc 1 604 3 is_stmt 1 view .LVU542
 604:Drivers/STM32F1xx_HAL_Driver/Src/stm32f1xx_hal_dma.c ****   uint32_t source_it = hdma->Instance->CCR;
 2203              		.loc 1 604 26 is_stmt 0 view .LVU543
 2204 0002 C36B     		ldr	r3, [r0, #60]
 604:Drivers/STM32F1xx_HAL_Driver/Src/stm32f1xx_hal_dma.c ****   uint32_t source_it = hdma->Instance->CCR;
 2205              		.loc 1 604 12 view .LVU544
 2206 0004 1A68     		ldr	r2, [r3]
 2207              	.LVL79:
 605:Drivers/STM32F1xx_HAL_Driver/Src/stm32f1xx_hal_dma.c ****   
 2208              		.loc 1 605 3 is_stmt 1 view .LVU545
 605:Drivers/STM32F1xx_HAL_Driver/Src/stm32f1xx_hal_dma.c ****   
 2209              		.loc 1 605 28 is_stmt 0 view .LVU546
 2210 0006 0468     		ldr	r4, [r0]
 605:Drivers/STM32F1xx_HAL_Driver/Src/stm32f1xx_hal_dma.c ****   
 2211              		.loc 1 605 12 view .LVU547
 2212 0008 2568     		ldr	r5, [r4]
 2213              	.LVL80:
 608:Drivers/STM32F1xx_HAL_Driver/Src/stm32f1xx_hal_dma.c ****   {
 2214              		.loc 1 608 3 is_stmt 1 view .LVU548
 608:Drivers/STM32F1xx_HAL_Driver/Src/stm32f1xx_hal_dma.c ****   {
 2215              		.loc 1 608 40 is_stmt 0 view .LVU549
 2216 000a 016C     		ldr	r1, [r0, #64]
 608:Drivers/STM32F1xx_HAL_Driver/Src/stm32f1xx_hal_dma.c ****   {
 2217              		.loc 1 608 33 view .LVU550
 2218 000c 0423     		movs	r3, #4
 2219 000e 8B40     		lsls	r3, r3, r1
 608:Drivers/STM32F1xx_HAL_Driver/Src/stm32f1xx_hal_dma.c ****   {
 2220              		.loc 1 608 6 view .LVU551
 2221 0010 1342     		tst	r3, r2
 2222 0012 00F09B80 		beq	.L236
 608:Drivers/STM32F1xx_HAL_Driver/Src/stm32f1xx_hal_dma.c ****   {
 2223              		.loc 1 608 67 discriminator 1 view .LVU552
 2224 0016 15F0040F 		tst	r5, #4
 2225 001a 00F09780 		beq	.L236
 611:Drivers/STM32F1xx_HAL_Driver/Src/stm32f1xx_hal_dma.c ****     {
 2226              		.loc 1 611 5 is_stmt 1 view .LVU553
 611:Drivers/STM32F1xx_HAL_Driver/Src/stm32f1xx_hal_dma.c ****     {
 2227              		.loc 1 611 23 is_stmt 0 view .LVU554
 2228 001e 2368     		ldr	r3, [r4]
 611:Drivers/STM32F1xx_HAL_Driver/Src/stm32f1xx_hal_dma.c ****     {
 2229              		.loc 1 611 7 view .LVU555
 2230 0020 13F0200F 		tst	r3, #32
 2231 0024 03D1     		bne	.L237
 614:Drivers/STM32F1xx_HAL_Driver/Src/stm32f1xx_hal_dma.c ****     }
 2232              		.loc 1 614 7 is_stmt 1 view .LVU556
 2233 0026 2368     		ldr	r3, [r4]
 2234 0028 23F00403 		bic	r3, r3, #4
 2235 002c 2360     		str	r3, [r4]
 2236              	.L237:
 617:Drivers/STM32F1xx_HAL_Driver/Src/stm32f1xx_hal_dma.c **** 
 2237              		.loc 1 617 5 view .LVU557
 2238 002e 0368     		ldr	r3, [r0]
ARM GAS  C:\Users\begre\AppData\Local\Temp\ccGpVL6f.s 			page 65


 2239 0030 9A4A     		ldr	r2, .L298
 2240              	.LVL81:
 617:Drivers/STM32F1xx_HAL_Driver/Src/stm32f1xx_hal_dma.c **** 
 2241              		.loc 1 617 5 is_stmt 0 view .LVU558
 2242 0032 9342     		cmp	r3, r2
 2243 0034 46D9     		bls	.L238
 617:Drivers/STM32F1xx_HAL_Driver/Src/stm32f1xx_hal_dma.c **** 
 2244              		.loc 1 617 5 discriminator 1 view .LVU559
 2245 0036 783A     		subs	r2, r2, #120
 2246 0038 9342     		cmp	r3, r2
 2247 003a 24D0     		beq	.L249
 617:Drivers/STM32F1xx_HAL_Driver/Src/stm32f1xx_hal_dma.c **** 
 2248              		.loc 1 617 5 discriminator 3 view .LVU560
 2249 003c 1432     		adds	r2, r2, #20
 2250 003e 9342     		cmp	r3, r2
 2251 0040 28D0     		beq	.L250
 617:Drivers/STM32F1xx_HAL_Driver/Src/stm32f1xx_hal_dma.c **** 
 2252              		.loc 1 617 5 discriminator 5 view .LVU561
 2253 0042 1432     		adds	r2, r2, #20
 2254 0044 9342     		cmp	r3, r2
 2255 0046 27D0     		beq	.L251
 617:Drivers/STM32F1xx_HAL_Driver/Src/stm32f1xx_hal_dma.c **** 
 2256              		.loc 1 617 5 discriminator 7 view .LVU562
 2257 0048 1432     		adds	r2, r2, #20
 2258 004a 9342     		cmp	r3, r2
 2259 004c 27D0     		beq	.L252
 617:Drivers/STM32F1xx_HAL_Driver/Src/stm32f1xx_hal_dma.c **** 
 2260              		.loc 1 617 5 discriminator 9 view .LVU563
 2261 004e 1432     		adds	r2, r2, #20
 2262 0050 9342     		cmp	r3, r2
 2263 0052 27D0     		beq	.L253
 617:Drivers/STM32F1xx_HAL_Driver/Src/stm32f1xx_hal_dma.c **** 
 2264              		.loc 1 617 5 discriminator 11 view .LVU564
 2265 0054 1432     		adds	r2, r2, #20
 2266 0056 9342     		cmp	r3, r2
 2267 0058 27D0     		beq	.L254
 617:Drivers/STM32F1xx_HAL_Driver/Src/stm32f1xx_hal_dma.c **** 
 2268              		.loc 1 617 5 discriminator 13 view .LVU565
 2269 005a 1432     		adds	r2, r2, #20
 2270 005c 9342     		cmp	r3, r2
 2271 005e 27D0     		beq	.L255
 617:Drivers/STM32F1xx_HAL_Driver/Src/stm32f1xx_hal_dma.c **** 
 2272              		.loc 1 617 5 discriminator 15 view .LVU566
 2273 0060 02F56272 		add	r2, r2, #904
 2274 0064 9342     		cmp	r3, r2
 2275 0066 26D0     		beq	.L256
 617:Drivers/STM32F1xx_HAL_Driver/Src/stm32f1xx_hal_dma.c **** 
 2276              		.loc 1 617 5 discriminator 17 view .LVU567
 2277 0068 1432     		adds	r2, r2, #20
 2278 006a 9342     		cmp	r3, r2
 2279 006c 25D0     		beq	.L257
 617:Drivers/STM32F1xx_HAL_Driver/Src/stm32f1xx_hal_dma.c **** 
 2280              		.loc 1 617 5 discriminator 19 view .LVU568
 2281 006e 1432     		adds	r2, r2, #20
 2282 0070 9342     		cmp	r3, r2
 2283 0072 24D0     		beq	.L258
 617:Drivers/STM32F1xx_HAL_Driver/Src/stm32f1xx_hal_dma.c **** 
ARM GAS  C:\Users\begre\AppData\Local\Temp\ccGpVL6f.s 			page 66


 2284              		.loc 1 617 5 discriminator 21 view .LVU569
 2285 0074 1432     		adds	r2, r2, #20
 2286 0076 9342     		cmp	r3, r2
 2287 0078 02D0     		beq	.L294
 617:Drivers/STM32F1xx_HAL_Driver/Src/stm32f1xx_hal_dma.c **** 
 2288              		.loc 1 617 5 view .LVU570
 2289 007a 4FF48022 		mov	r2, #262144
 2290 007e 03E0     		b	.L239
 2291              	.L294:
 2292 0080 4FF48042 		mov	r2, #16384
 2293 0084 00E0     		b	.L239
 2294              	.L249:
 2295 0086 0422     		movs	r2, #4
 2296              	.L239:
 617:Drivers/STM32F1xx_HAL_Driver/Src/stm32f1xx_hal_dma.c **** 
 2297              		.loc 1 617 5 discriminator 46 view .LVU571
 2298 0088 854B     		ldr	r3, .L298+4
 2299 008a 5A60     		str	r2, [r3, #4]
 2300              	.L240:
 622:Drivers/STM32F1xx_HAL_Driver/Src/stm32f1xx_hal_dma.c ****     {
 2301              		.loc 1 622 5 is_stmt 1 view .LVU572
 622:Drivers/STM32F1xx_HAL_Driver/Src/stm32f1xx_hal_dma.c ****     {
 2302              		.loc 1 622 12 is_stmt 0 view .LVU573
 2303 008c C36A     		ldr	r3, [r0, #44]
 622:Drivers/STM32F1xx_HAL_Driver/Src/stm32f1xx_hal_dma.c ****     {
 2304              		.loc 1 622 7 view .LVU574
 2305 008e 03B1     		cbz	r3, .L235
 625:Drivers/STM32F1xx_HAL_Driver/Src/stm32f1xx_hal_dma.c ****     }
 2306              		.loc 1 625 7 is_stmt 1 view .LVU575
 2307 0090 9847     		blx	r3
 2308              	.LVL82:
 2309              	.L235:
 680:Drivers/STM32F1xx_HAL_Driver/Src/stm32f1xx_hal_dma.c **** 
 2310              		.loc 1 680 1 is_stmt 0 view .LVU576
 2311 0092 38BD     		pop	{r3, r4, r5, pc}
 2312              	.LVL83:
 2313              	.L250:
 617:Drivers/STM32F1xx_HAL_Driver/Src/stm32f1xx_hal_dma.c **** 
 2314              		.loc 1 617 5 view .LVU577
 2315 0094 4022     		movs	r2, #64
 2316 0096 F7E7     		b	.L239
 2317              	.L251:
 2318 0098 4FF48062 		mov	r2, #1024
 2319 009c F4E7     		b	.L239
 2320              	.L252:
 2321 009e 4FF48042 		mov	r2, #16384
 2322 00a2 F1E7     		b	.L239
 2323              	.L253:
 2324 00a4 4FF48022 		mov	r2, #262144
 2325 00a8 EEE7     		b	.L239
 2326              	.L254:
 2327 00aa 4FF48002 		mov	r2, #4194304
 2328 00ae EBE7     		b	.L239
 2329              	.L255:
 2330 00b0 4FF08062 		mov	r2, #67108864
 2331 00b4 E8E7     		b	.L239
 2332              	.L256:
ARM GAS  C:\Users\begre\AppData\Local\Temp\ccGpVL6f.s 			page 67


 2333 00b6 0422     		movs	r2, #4
 2334 00b8 E6E7     		b	.L239
 2335              	.L257:
 2336 00ba 4022     		movs	r2, #64
 2337 00bc E4E7     		b	.L239
 2338              	.L258:
 2339 00be 4FF48062 		mov	r2, #1024
 2340 00c2 E1E7     		b	.L239
 2341              	.L238:
 617:Drivers/STM32F1xx_HAL_Driver/Src/stm32f1xx_hal_dma.c **** 
 2342              		.loc 1 617 5 discriminator 2 view .LVU578
 2343 00c4 774A     		ldr	r2, .L298+8
 2344 00c6 9342     		cmp	r3, r2
 2345 00c8 24D0     		beq	.L260
 617:Drivers/STM32F1xx_HAL_Driver/Src/stm32f1xx_hal_dma.c **** 
 2346              		.loc 1 617 5 discriminator 47 view .LVU579
 2347 00ca 1432     		adds	r2, r2, #20
 2348 00cc 9342     		cmp	r3, r2
 2349 00ce 25D0     		beq	.L261
 617:Drivers/STM32F1xx_HAL_Driver/Src/stm32f1xx_hal_dma.c **** 
 2350              		.loc 1 617 5 discriminator 49 view .LVU580
 2351 00d0 1432     		adds	r2, r2, #20
 2352 00d2 9342     		cmp	r3, r2
 2353 00d4 24D0     		beq	.L262
 617:Drivers/STM32F1xx_HAL_Driver/Src/stm32f1xx_hal_dma.c **** 
 2354              		.loc 1 617 5 discriminator 51 view .LVU581
 2355 00d6 1432     		adds	r2, r2, #20
 2356 00d8 9342     		cmp	r3, r2
 2357 00da 24D0     		beq	.L263
 617:Drivers/STM32F1xx_HAL_Driver/Src/stm32f1xx_hal_dma.c **** 
 2358              		.loc 1 617 5 discriminator 53 view .LVU582
 2359 00dc 1432     		adds	r2, r2, #20
 2360 00de 9342     		cmp	r3, r2
 2361 00e0 24D0     		beq	.L264
 617:Drivers/STM32F1xx_HAL_Driver/Src/stm32f1xx_hal_dma.c **** 
 2362              		.loc 1 617 5 discriminator 55 view .LVU583
 2363 00e2 1432     		adds	r2, r2, #20
 2364 00e4 9342     		cmp	r3, r2
 2365 00e6 24D0     		beq	.L265
 617:Drivers/STM32F1xx_HAL_Driver/Src/stm32f1xx_hal_dma.c **** 
 2366              		.loc 1 617 5 discriminator 57 view .LVU584
 2367 00e8 1432     		adds	r2, r2, #20
 2368 00ea 9342     		cmp	r3, r2
 2369 00ec 24D0     		beq	.L266
 617:Drivers/STM32F1xx_HAL_Driver/Src/stm32f1xx_hal_dma.c **** 
 2370              		.loc 1 617 5 discriminator 59 view .LVU585
 2371 00ee 02F56272 		add	r2, r2, #904
 2372 00f2 9342     		cmp	r3, r2
 2373 00f4 23D0     		beq	.L267
 617:Drivers/STM32F1xx_HAL_Driver/Src/stm32f1xx_hal_dma.c **** 
 2374              		.loc 1 617 5 discriminator 61 view .LVU586
 2375 00f6 1432     		adds	r2, r2, #20
 2376 00f8 9342     		cmp	r3, r2
 2377 00fa 22D0     		beq	.L268
 617:Drivers/STM32F1xx_HAL_Driver/Src/stm32f1xx_hal_dma.c **** 
 2378              		.loc 1 617 5 discriminator 63 view .LVU587
 2379 00fc 1432     		adds	r2, r2, #20
ARM GAS  C:\Users\begre\AppData\Local\Temp\ccGpVL6f.s 			page 68


 2380 00fe 9342     		cmp	r3, r2
 2381 0100 21D0     		beq	.L269
 617:Drivers/STM32F1xx_HAL_Driver/Src/stm32f1xx_hal_dma.c **** 
 2382              		.loc 1 617 5 discriminator 65 view .LVU588
 2383 0102 1432     		adds	r2, r2, #20
 2384 0104 9342     		cmp	r3, r2
 2385 0106 02D0     		beq	.L295
 617:Drivers/STM32F1xx_HAL_Driver/Src/stm32f1xx_hal_dma.c **** 
 2386              		.loc 1 617 5 view .LVU589
 2387 0108 4FF48022 		mov	r2, #262144
 2388 010c 03E0     		b	.L241
 2389              	.L295:
 2390 010e 4FF48042 		mov	r2, #16384
 2391 0112 00E0     		b	.L241
 2392              	.L260:
 2393 0114 0422     		movs	r2, #4
 2394              	.L241:
 617:Drivers/STM32F1xx_HAL_Driver/Src/stm32f1xx_hal_dma.c **** 
 2395              		.loc 1 617 5 discriminator 90 view .LVU590
 2396 0116 644B     		ldr	r3, .L298+12
 2397 0118 5A60     		str	r2, [r3, #4]
 2398 011a B7E7     		b	.L240
 2399              	.L261:
 617:Drivers/STM32F1xx_HAL_Driver/Src/stm32f1xx_hal_dma.c **** 
 2400              		.loc 1 617 5 view .LVU591
 2401 011c 4022     		movs	r2, #64
 2402 011e FAE7     		b	.L241
 2403              	.L262:
 2404 0120 4FF48062 		mov	r2, #1024
 2405 0124 F7E7     		b	.L241
 2406              	.L263:
 2407 0126 4FF48042 		mov	r2, #16384
 2408 012a F4E7     		b	.L241
 2409              	.L264:
 2410 012c 4FF48022 		mov	r2, #262144
 2411 0130 F1E7     		b	.L241
 2412              	.L265:
 2413 0132 4FF48002 		mov	r2, #4194304
 2414 0136 EEE7     		b	.L241
 2415              	.L266:
 2416 0138 4FF08062 		mov	r2, #67108864
 2417 013c EBE7     		b	.L241
 2418              	.L267:
 2419 013e 0422     		movs	r2, #4
 2420 0140 E9E7     		b	.L241
 2421              	.L268:
 2422 0142 4022     		movs	r2, #64
 2423 0144 E7E7     		b	.L241
 2424              	.L269:
 2425 0146 4FF48062 		mov	r2, #1024
 2426 014a E4E7     		b	.L241
 2427              	.LVL84:
 2428              	.L236:
 630:Drivers/STM32F1xx_HAL_Driver/Src/stm32f1xx_hal_dma.c ****   {
 2429              		.loc 1 630 8 is_stmt 1 view .LVU592
 630:Drivers/STM32F1xx_HAL_Driver/Src/stm32f1xx_hal_dma.c ****   {
 2430              		.loc 1 630 38 is_stmt 0 view .LVU593
ARM GAS  C:\Users\begre\AppData\Local\Temp\ccGpVL6f.s 			page 69


 2431 014c 0223     		movs	r3, #2
 2432 014e 8B40     		lsls	r3, r3, r1
 630:Drivers/STM32F1xx_HAL_Driver/Src/stm32f1xx_hal_dma.c ****   {
 2433              		.loc 1 630 11 view .LVU594
 2434 0150 1342     		tst	r3, r2
 2435 0152 00F0AB80 		beq	.L243
 630:Drivers/STM32F1xx_HAL_Driver/Src/stm32f1xx_hal_dma.c ****   {
 2436              		.loc 1 630 72 discriminator 1 view .LVU595
 2437 0156 15F0020F 		tst	r5, #2
 2438 015a 00F0A780 		beq	.L243
 632:Drivers/STM32F1xx_HAL_Driver/Src/stm32f1xx_hal_dma.c ****     {
 2439              		.loc 1 632 5 is_stmt 1 view .LVU596
 632:Drivers/STM32F1xx_HAL_Driver/Src/stm32f1xx_hal_dma.c ****     {
 2440              		.loc 1 632 23 is_stmt 0 view .LVU597
 2441 015e 2368     		ldr	r3, [r4]
 632:Drivers/STM32F1xx_HAL_Driver/Src/stm32f1xx_hal_dma.c ****     {
 2442              		.loc 1 632 7 view .LVU598
 2443 0160 13F0200F 		tst	r3, #32
 2444 0164 06D1     		bne	.L244
 635:Drivers/STM32F1xx_HAL_Driver/Src/stm32f1xx_hal_dma.c **** 
 2445              		.loc 1 635 7 is_stmt 1 view .LVU599
 2446 0166 2368     		ldr	r3, [r4]
 2447 0168 23F00A03 		bic	r3, r3, #10
 2448 016c 2360     		str	r3, [r4]
 638:Drivers/STM32F1xx_HAL_Driver/Src/stm32f1xx_hal_dma.c ****     }
 2449              		.loc 1 638 7 view .LVU600
 638:Drivers/STM32F1xx_HAL_Driver/Src/stm32f1xx_hal_dma.c ****     }
 2450              		.loc 1 638 19 is_stmt 0 view .LVU601
 2451 016e 0123     		movs	r3, #1
 2452 0170 80F82130 		strb	r3, [r0, #33]
 2453              	.L244:
 641:Drivers/STM32F1xx_HAL_Driver/Src/stm32f1xx_hal_dma.c **** 
 2454              		.loc 1 641 7 is_stmt 1 view .LVU602
 2455 0174 0368     		ldr	r3, [r0]
 2456 0176 494A     		ldr	r2, .L298
 2457              	.LVL85:
 641:Drivers/STM32F1xx_HAL_Driver/Src/stm32f1xx_hal_dma.c **** 
 2458              		.loc 1 641 7 is_stmt 0 view .LVU603
 2459 0178 9342     		cmp	r3, r2
 2460 017a 4BD9     		bls	.L245
 641:Drivers/STM32F1xx_HAL_Driver/Src/stm32f1xx_hal_dma.c **** 
 2461              		.loc 1 641 7 discriminator 1 view .LVU604
 2462 017c 783A     		subs	r2, r2, #120
 2463 017e 9342     		cmp	r3, r2
 2464 0180 24D0     		beq	.L271
 641:Drivers/STM32F1xx_HAL_Driver/Src/stm32f1xx_hal_dma.c **** 
 2465              		.loc 1 641 7 discriminator 3 view .LVU605
 2466 0182 1432     		adds	r2, r2, #20
 2467 0184 9342     		cmp	r3, r2
 2468 0186 2DD0     		beq	.L272
 641:Drivers/STM32F1xx_HAL_Driver/Src/stm32f1xx_hal_dma.c **** 
 2469              		.loc 1 641 7 discriminator 5 view .LVU606
 2470 0188 1432     		adds	r2, r2, #20
 2471 018a 9342     		cmp	r3, r2
 2472 018c 2CD0     		beq	.L273
 641:Drivers/STM32F1xx_HAL_Driver/Src/stm32f1xx_hal_dma.c **** 
 2473              		.loc 1 641 7 discriminator 7 view .LVU607
ARM GAS  C:\Users\begre\AppData\Local\Temp\ccGpVL6f.s 			page 70


 2474 018e 1432     		adds	r2, r2, #20
 2475 0190 9342     		cmp	r3, r2
 2476 0192 2CD0     		beq	.L274
 641:Drivers/STM32F1xx_HAL_Driver/Src/stm32f1xx_hal_dma.c **** 
 2477              		.loc 1 641 7 discriminator 9 view .LVU608
 2478 0194 1432     		adds	r2, r2, #20
 2479 0196 9342     		cmp	r3, r2
 2480 0198 2CD0     		beq	.L275
 641:Drivers/STM32F1xx_HAL_Driver/Src/stm32f1xx_hal_dma.c **** 
 2481              		.loc 1 641 7 discriminator 11 view .LVU609
 2482 019a 1432     		adds	r2, r2, #20
 2483 019c 9342     		cmp	r3, r2
 2484 019e 2CD0     		beq	.L276
 641:Drivers/STM32F1xx_HAL_Driver/Src/stm32f1xx_hal_dma.c **** 
 2485              		.loc 1 641 7 discriminator 13 view .LVU610
 2486 01a0 1432     		adds	r2, r2, #20
 2487 01a2 9342     		cmp	r3, r2
 2488 01a4 2CD0     		beq	.L277
 641:Drivers/STM32F1xx_HAL_Driver/Src/stm32f1xx_hal_dma.c **** 
 2489              		.loc 1 641 7 discriminator 15 view .LVU611
 2490 01a6 02F56272 		add	r2, r2, #904
 2491 01aa 9342     		cmp	r3, r2
 2492 01ac 2BD0     		beq	.L278
 641:Drivers/STM32F1xx_HAL_Driver/Src/stm32f1xx_hal_dma.c **** 
 2493              		.loc 1 641 7 discriminator 17 view .LVU612
 2494 01ae 1432     		adds	r2, r2, #20
 2495 01b0 9342     		cmp	r3, r2
 2496 01b2 2AD0     		beq	.L279
 641:Drivers/STM32F1xx_HAL_Driver/Src/stm32f1xx_hal_dma.c **** 
 2497              		.loc 1 641 7 discriminator 19 view .LVU613
 2498 01b4 1432     		adds	r2, r2, #20
 2499 01b6 9342     		cmp	r3, r2
 2500 01b8 29D0     		beq	.L280
 641:Drivers/STM32F1xx_HAL_Driver/Src/stm32f1xx_hal_dma.c **** 
 2501              		.loc 1 641 7 discriminator 21 view .LVU614
 2502 01ba 1432     		adds	r2, r2, #20
 2503 01bc 9342     		cmp	r3, r2
 2504 01be 02D0     		beq	.L296
 641:Drivers/STM32F1xx_HAL_Driver/Src/stm32f1xx_hal_dma.c **** 
 2505              		.loc 1 641 7 view .LVU615
 2506 01c0 4FF40032 		mov	r2, #131072
 2507 01c4 03E0     		b	.L246
 2508              	.L296:
 2509 01c6 4FF40052 		mov	r2, #8192
 2510 01ca 00E0     		b	.L246
 2511              	.L271:
 2512 01cc 0222     		movs	r2, #2
 2513              	.L246:
 641:Drivers/STM32F1xx_HAL_Driver/Src/stm32f1xx_hal_dma.c **** 
 2514              		.loc 1 641 7 discriminator 46 view .LVU616
 2515 01ce 344B     		ldr	r3, .L298+4
 2516 01d0 5A60     		str	r2, [r3, #4]
 2517              	.L247:
 644:Drivers/STM32F1xx_HAL_Driver/Src/stm32f1xx_hal_dma.c **** 
 2518              		.loc 1 644 5 is_stmt 1 view .LVU617
 644:Drivers/STM32F1xx_HAL_Driver/Src/stm32f1xx_hal_dma.c **** 
 2519              		.loc 1 644 5 view .LVU618
ARM GAS  C:\Users\begre\AppData\Local\Temp\ccGpVL6f.s 			page 71


 2520 01d2 0023     		movs	r3, #0
 2521 01d4 80F82030 		strb	r3, [r0, #32]
 644:Drivers/STM32F1xx_HAL_Driver/Src/stm32f1xx_hal_dma.c **** 
 2522              		.loc 1 644 5 view .LVU619
 646:Drivers/STM32F1xx_HAL_Driver/Src/stm32f1xx_hal_dma.c ****     {
 2523              		.loc 1 646 5 view .LVU620
 646:Drivers/STM32F1xx_HAL_Driver/Src/stm32f1xx_hal_dma.c ****     {
 2524              		.loc 1 646 12 is_stmt 0 view .LVU621
 2525 01d8 836A     		ldr	r3, [r0, #40]
 646:Drivers/STM32F1xx_HAL_Driver/Src/stm32f1xx_hal_dma.c ****     {
 2526              		.loc 1 646 7 view .LVU622
 2527 01da 002B     		cmp	r3, #0
 2528 01dc 3FF459AF 		beq	.L235
 649:Drivers/STM32F1xx_HAL_Driver/Src/stm32f1xx_hal_dma.c ****     }
 2529              		.loc 1 649 7 is_stmt 1 view .LVU623
 2530 01e0 9847     		blx	r3
 2531              	.LVL86:
 649:Drivers/STM32F1xx_HAL_Driver/Src/stm32f1xx_hal_dma.c ****     }
 2532              		.loc 1 649 7 is_stmt 0 view .LVU624
 2533 01e2 56E7     		b	.L235
 2534              	.LVL87:
 2535              	.L272:
 641:Drivers/STM32F1xx_HAL_Driver/Src/stm32f1xx_hal_dma.c **** 
 2536              		.loc 1 641 7 view .LVU625
 2537 01e4 2022     		movs	r2, #32
 2538 01e6 F2E7     		b	.L246
 2539              	.L273:
 2540 01e8 4FF40072 		mov	r2, #512
 2541 01ec EFE7     		b	.L246
 2542              	.L274:
 2543 01ee 4FF40052 		mov	r2, #8192
 2544 01f2 ECE7     		b	.L246
 2545              	.L275:
 2546 01f4 4FF40032 		mov	r2, #131072
 2547 01f8 E9E7     		b	.L246
 2548              	.L276:
 2549 01fa 4FF40012 		mov	r2, #2097152
 2550 01fe E6E7     		b	.L246
 2551              	.L277:
 2552 0200 4FF00072 		mov	r2, #33554432
 2553 0204 E3E7     		b	.L246
 2554              	.L278:
 2555 0206 0222     		movs	r2, #2
 2556 0208 E1E7     		b	.L246
 2557              	.L279:
 2558 020a 2022     		movs	r2, #32
 2559 020c DFE7     		b	.L246
 2560              	.L280:
 2561 020e 4FF40072 		mov	r2, #512
 2562 0212 DCE7     		b	.L246
 2563              	.L245:
 641:Drivers/STM32F1xx_HAL_Driver/Src/stm32f1xx_hal_dma.c **** 
 2564              		.loc 1 641 7 discriminator 2 view .LVU626
 2565 0214 234A     		ldr	r2, .L298+8
 2566 0216 9342     		cmp	r3, r2
 2567 0218 24D0     		beq	.L282
 641:Drivers/STM32F1xx_HAL_Driver/Src/stm32f1xx_hal_dma.c **** 
ARM GAS  C:\Users\begre\AppData\Local\Temp\ccGpVL6f.s 			page 72


 2568              		.loc 1 641 7 discriminator 47 view .LVU627
 2569 021a 1432     		adds	r2, r2, #20
 2570 021c 9342     		cmp	r3, r2
 2571 021e 25D0     		beq	.L283
 641:Drivers/STM32F1xx_HAL_Driver/Src/stm32f1xx_hal_dma.c **** 
 2572              		.loc 1 641 7 discriminator 49 view .LVU628
 2573 0220 1432     		adds	r2, r2, #20
 2574 0222 9342     		cmp	r3, r2
 2575 0224 24D0     		beq	.L284
 641:Drivers/STM32F1xx_HAL_Driver/Src/stm32f1xx_hal_dma.c **** 
 2576              		.loc 1 641 7 discriminator 51 view .LVU629
 2577 0226 1432     		adds	r2, r2, #20
 2578 0228 9342     		cmp	r3, r2
 2579 022a 24D0     		beq	.L285
 641:Drivers/STM32F1xx_HAL_Driver/Src/stm32f1xx_hal_dma.c **** 
 2580              		.loc 1 641 7 discriminator 53 view .LVU630
 2581 022c 1432     		adds	r2, r2, #20
 2582 022e 9342     		cmp	r3, r2
 2583 0230 24D0     		beq	.L286
 641:Drivers/STM32F1xx_HAL_Driver/Src/stm32f1xx_hal_dma.c **** 
 2584              		.loc 1 641 7 discriminator 55 view .LVU631
 2585 0232 1432     		adds	r2, r2, #20
 2586 0234 9342     		cmp	r3, r2
 2587 0236 24D0     		beq	.L287
 641:Drivers/STM32F1xx_HAL_Driver/Src/stm32f1xx_hal_dma.c **** 
 2588              		.loc 1 641 7 discriminator 57 view .LVU632
 2589 0238 1432     		adds	r2, r2, #20
 2590 023a 9342     		cmp	r3, r2
 2591 023c 24D0     		beq	.L288
 641:Drivers/STM32F1xx_HAL_Driver/Src/stm32f1xx_hal_dma.c **** 
 2592              		.loc 1 641 7 discriminator 59 view .LVU633
 2593 023e 02F56272 		add	r2, r2, #904
 2594 0242 9342     		cmp	r3, r2
 2595 0244 23D0     		beq	.L289
 641:Drivers/STM32F1xx_HAL_Driver/Src/stm32f1xx_hal_dma.c **** 
 2596              		.loc 1 641 7 discriminator 61 view .LVU634
 2597 0246 1432     		adds	r2, r2, #20
 2598 0248 9342     		cmp	r3, r2
 2599 024a 22D0     		beq	.L290
 641:Drivers/STM32F1xx_HAL_Driver/Src/stm32f1xx_hal_dma.c **** 
 2600              		.loc 1 641 7 discriminator 63 view .LVU635
 2601 024c 1432     		adds	r2, r2, #20
 2602 024e 9342     		cmp	r3, r2
 2603 0250 21D0     		beq	.L291
 641:Drivers/STM32F1xx_HAL_Driver/Src/stm32f1xx_hal_dma.c **** 
 2604              		.loc 1 641 7 discriminator 65 view .LVU636
 2605 0252 1432     		adds	r2, r2, #20
 2606 0254 9342     		cmp	r3, r2
 2607 0256 02D0     		beq	.L297
 641:Drivers/STM32F1xx_HAL_Driver/Src/stm32f1xx_hal_dma.c **** 
 2608              		.loc 1 641 7 view .LVU637
 2609 0258 4FF40032 		mov	r2, #131072
 2610 025c 03E0     		b	.L248
 2611              	.L297:
 2612 025e 4FF40052 		mov	r2, #8192
 2613 0262 00E0     		b	.L248
 2614              	.L282:
ARM GAS  C:\Users\begre\AppData\Local\Temp\ccGpVL6f.s 			page 73


 2615 0264 0222     		movs	r2, #2
 2616              	.L248:
 641:Drivers/STM32F1xx_HAL_Driver/Src/stm32f1xx_hal_dma.c **** 
 2617              		.loc 1 641 7 discriminator 90 view .LVU638
 2618 0266 104B     		ldr	r3, .L298+12
 2619 0268 5A60     		str	r2, [r3, #4]
 2620 026a B2E7     		b	.L247
 2621              	.L283:
 641:Drivers/STM32F1xx_HAL_Driver/Src/stm32f1xx_hal_dma.c **** 
 2622              		.loc 1 641 7 view .LVU639
 2623 026c 2022     		movs	r2, #32
 2624 026e FAE7     		b	.L248
 2625              	.L284:
 2626 0270 4FF40072 		mov	r2, #512
 2627 0274 F7E7     		b	.L248
 2628              	.L285:
 2629 0276 4FF40052 		mov	r2, #8192
 2630 027a F4E7     		b	.L248
 2631              	.L286:
 2632 027c 4FF40032 		mov	r2, #131072
 2633 0280 F1E7     		b	.L248
 2634              	.L287:
 2635 0282 4FF40012 		mov	r2, #2097152
 2636 0286 EEE7     		b	.L248
 2637              	.L288:
 2638 0288 4FF00072 		mov	r2, #33554432
 2639 028c EBE7     		b	.L248
 2640              	.L289:
 2641 028e 0222     		movs	r2, #2
 2642 0290 E9E7     		b	.L248
 2643              	.L290:
 2644 0292 2022     		movs	r2, #32
 2645 0294 E7E7     		b	.L248
 2646              	.L291:
 2647 0296 4FF40072 		mov	r2, #512
 2648 029a E4E7     		b	.L248
 2649              	.L299:
 2650              		.align	2
 2651              	.L298:
 2652 029c 80000240 		.word	1073873024
 2653 02a0 00040240 		.word	1073873920
 2654 02a4 08000240 		.word	1073872904
 2655 02a8 00000240 		.word	1073872896
 2656              	.LVL88:
 2657              	.L243:
 654:Drivers/STM32F1xx_HAL_Driver/Src/stm32f1xx_hal_dma.c ****   {
 2658              		.loc 1 654 8 is_stmt 1 view .LVU640
 654:Drivers/STM32F1xx_HAL_Driver/Src/stm32f1xx_hal_dma.c ****   {
 2659              		.loc 1 654 48 is_stmt 0 view .LVU641
 2660 02ac 0823     		movs	r3, #8
 2661 02ae 03FA01F1 		lsl	r1, r3, r1
 654:Drivers/STM32F1xx_HAL_Driver/Src/stm32f1xx_hal_dma.c ****   {
 2662              		.loc 1 654 11 view .LVU642
 2663 02b2 1142     		tst	r1, r2
 2664 02b4 3FF4EDAE 		beq	.L235
 654:Drivers/STM32F1xx_HAL_Driver/Src/stm32f1xx_hal_dma.c ****   {
 2665              		.loc 1 654 73 discriminator 1 view .LVU643
ARM GAS  C:\Users\begre\AppData\Local\Temp\ccGpVL6f.s 			page 74


 2666 02b8 15F0080F 		tst	r5, #8
 2667 02bc 3FF4E9AE 		beq	.L235
 659:Drivers/STM32F1xx_HAL_Driver/Src/stm32f1xx_hal_dma.c **** 
 2668              		.loc 1 659 5 is_stmt 1 view .LVU644
 2669 02c0 2368     		ldr	r3, [r4]
 2670 02c2 23F00E03 		bic	r3, r3, #14
 2671 02c6 2360     		str	r3, [r4]
 662:Drivers/STM32F1xx_HAL_Driver/Src/stm32f1xx_hal_dma.c **** 
 2672              		.loc 1 662 5 view .LVU645
 662:Drivers/STM32F1xx_HAL_Driver/Src/stm32f1xx_hal_dma.c **** 
 2673              		.loc 1 662 55 is_stmt 0 view .LVU646
 2674 02c8 026C     		ldr	r2, [r0, #64]
 2675              	.LVL89:
 662:Drivers/STM32F1xx_HAL_Driver/Src/stm32f1xx_hal_dma.c **** 
 2676              		.loc 1 662 9 view .LVU647
 2677 02ca C16B     		ldr	r1, [r0, #60]
 662:Drivers/STM32F1xx_HAL_Driver/Src/stm32f1xx_hal_dma.c **** 
 2678              		.loc 1 662 48 view .LVU648
 2679 02cc 0123     		movs	r3, #1
 2680 02ce 03FA02F2 		lsl	r2, r3, r2
 662:Drivers/STM32F1xx_HAL_Driver/Src/stm32f1xx_hal_dma.c **** 
 2681              		.loc 1 662 32 view .LVU649
 2682 02d2 4A60     		str	r2, [r1, #4]
 665:Drivers/STM32F1xx_HAL_Driver/Src/stm32f1xx_hal_dma.c **** 
 2683              		.loc 1 665 5 is_stmt 1 view .LVU650
 665:Drivers/STM32F1xx_HAL_Driver/Src/stm32f1xx_hal_dma.c **** 
 2684              		.loc 1 665 21 is_stmt 0 view .LVU651
 2685 02d4 8363     		str	r3, [r0, #56]
 668:Drivers/STM32F1xx_HAL_Driver/Src/stm32f1xx_hal_dma.c **** 
 2686              		.loc 1 668 5 is_stmt 1 view .LVU652
 668:Drivers/STM32F1xx_HAL_Driver/Src/stm32f1xx_hal_dma.c **** 
 2687              		.loc 1 668 17 is_stmt 0 view .LVU653
 2688 02d6 80F82130 		strb	r3, [r0, #33]
 671:Drivers/STM32F1xx_HAL_Driver/Src/stm32f1xx_hal_dma.c **** 
 2689              		.loc 1 671 5 is_stmt 1 view .LVU654
 671:Drivers/STM32F1xx_HAL_Driver/Src/stm32f1xx_hal_dma.c **** 
 2690              		.loc 1 671 5 view .LVU655
 2691 02da 0023     		movs	r3, #0
 2692 02dc 80F82030 		strb	r3, [r0, #32]
 671:Drivers/STM32F1xx_HAL_Driver/Src/stm32f1xx_hal_dma.c **** 
 2693              		.loc 1 671 5 view .LVU656
 673:Drivers/STM32F1xx_HAL_Driver/Src/stm32f1xx_hal_dma.c ****     {
 2694              		.loc 1 673 5 view .LVU657
 673:Drivers/STM32F1xx_HAL_Driver/Src/stm32f1xx_hal_dma.c ****     {
 2695              		.loc 1 673 13 is_stmt 0 view .LVU658
 2696 02e0 036B     		ldr	r3, [r0, #48]
 673:Drivers/STM32F1xx_HAL_Driver/Src/stm32f1xx_hal_dma.c ****     {
 2697              		.loc 1 673 8 view .LVU659
 2698 02e2 002B     		cmp	r3, #0
 2699 02e4 3FF4D5AE 		beq	.L235
 676:Drivers/STM32F1xx_HAL_Driver/Src/stm32f1xx_hal_dma.c ****     }
 2700              		.loc 1 676 7 is_stmt 1 view .LVU660
 2701 02e8 9847     		blx	r3
 2702              	.LVL90:
 679:Drivers/STM32F1xx_HAL_Driver/Src/stm32f1xx_hal_dma.c **** }
 2703              		.loc 1 679 3 view .LVU661
 2704 02ea D2E6     		b	.L235
ARM GAS  C:\Users\begre\AppData\Local\Temp\ccGpVL6f.s 			page 75


 2705              		.cfi_endproc
 2706              	.LFE72:
 2708              		.section	.text.HAL_DMA_RegisterCallback,"ax",%progbits
 2709              		.align	1
 2710              		.global	HAL_DMA_RegisterCallback
 2711              		.syntax unified
 2712              		.thumb
 2713              		.thumb_func
 2715              	HAL_DMA_RegisterCallback:
 2716              	.LVL91:
 2717              	.LFB73:
 693:Drivers/STM32F1xx_HAL_Driver/Src/stm32f1xx_hal_dma.c ****   HAL_StatusTypeDef status = HAL_OK;
 2718              		.loc 1 693 1 view -0
 2719              		.cfi_startproc
 2720              		@ args = 0, pretend = 0, frame = 0
 2721              		@ frame_needed = 0, uses_anonymous_args = 0
 2722              		@ link register save eliminated.
 693:Drivers/STM32F1xx_HAL_Driver/Src/stm32f1xx_hal_dma.c ****   HAL_StatusTypeDef status = HAL_OK;
 2723              		.loc 1 693 1 is_stmt 0 view .LVU663
 2724 0000 0346     		mov	r3, r0
 694:Drivers/STM32F1xx_HAL_Driver/Src/stm32f1xx_hal_dma.c ****   
 2725              		.loc 1 694 3 is_stmt 1 view .LVU664
 2726              	.LVL92:
 697:Drivers/STM32F1xx_HAL_Driver/Src/stm32f1xx_hal_dma.c ****   
 2727              		.loc 1 697 3 view .LVU665
 697:Drivers/STM32F1xx_HAL_Driver/Src/stm32f1xx_hal_dma.c ****   
 2728              		.loc 1 697 3 view .LVU666
 2729 0002 90F82000 		ldrb	r0, [r0, #32]	@ zero_extendqisi2
 2730              	.LVL93:
 697:Drivers/STM32F1xx_HAL_Driver/Src/stm32f1xx_hal_dma.c ****   
 2731              		.loc 1 697 3 is_stmt 0 view .LVU667
 2732 0006 0128     		cmp	r0, #1
 2733 0008 1ED0     		beq	.L308
 697:Drivers/STM32F1xx_HAL_Driver/Src/stm32f1xx_hal_dma.c ****   
 2734              		.loc 1 697 3 is_stmt 1 discriminator 2 view .LVU668
 2735 000a 0120     		movs	r0, #1
 2736 000c 83F82000 		strb	r0, [r3, #32]
 697:Drivers/STM32F1xx_HAL_Driver/Src/stm32f1xx_hal_dma.c ****   
 2737              		.loc 1 697 3 discriminator 2 view .LVU669
 699:Drivers/STM32F1xx_HAL_Driver/Src/stm32f1xx_hal_dma.c ****   {
 2738              		.loc 1 699 3 discriminator 2 view .LVU670
 699:Drivers/STM32F1xx_HAL_Driver/Src/stm32f1xx_hal_dma.c ****   {
 2739              		.loc 1 699 33 is_stmt 0 discriminator 2 view .LVU671
 2740 0010 93F82100 		ldrb	r0, [r3, #33]	@ zero_extendqisi2
 2741 0014 C0B2     		uxtb	r0, r0
 699:Drivers/STM32F1xx_HAL_Driver/Src/stm32f1xx_hal_dma.c ****   {
 2742              		.loc 1 699 5 discriminator 2 view .LVU672
 2743 0016 0128     		cmp	r0, #1
 2744 0018 04D0     		beq	.L310
 726:Drivers/STM32F1xx_HAL_Driver/Src/stm32f1xx_hal_dma.c ****   } 
 2745              		.loc 1 726 12 view .LVU673
 2746 001a 0120     		movs	r0, #1
 2747              	.L302:
 2748              	.LVL94:
 730:Drivers/STM32F1xx_HAL_Driver/Src/stm32f1xx_hal_dma.c ****   
 2749              		.loc 1 730 3 is_stmt 1 view .LVU674
 730:Drivers/STM32F1xx_HAL_Driver/Src/stm32f1xx_hal_dma.c ****   
ARM GAS  C:\Users\begre\AppData\Local\Temp\ccGpVL6f.s 			page 76


 2750              		.loc 1 730 3 view .LVU675
 2751 001c 0022     		movs	r2, #0
 2752              	.LVL95:
 730:Drivers/STM32F1xx_HAL_Driver/Src/stm32f1xx_hal_dma.c ****   
 2753              		.loc 1 730 3 is_stmt 0 view .LVU676
 2754 001e 83F82020 		strb	r2, [r3, #32]
 730:Drivers/STM32F1xx_HAL_Driver/Src/stm32f1xx_hal_dma.c ****   
 2755              		.loc 1 730 3 is_stmt 1 view .LVU677
 732:Drivers/STM32F1xx_HAL_Driver/Src/stm32f1xx_hal_dma.c **** }
 2756              		.loc 1 732 3 view .LVU678
 732:Drivers/STM32F1xx_HAL_Driver/Src/stm32f1xx_hal_dma.c **** }
 2757              		.loc 1 732 10 is_stmt 0 view .LVU679
 2758 0022 7047     		bx	lr
 2759              	.LVL96:
 2760              	.L310:
 701:Drivers/STM32F1xx_HAL_Driver/Src/stm32f1xx_hal_dma.c ****     {
 2761              		.loc 1 701 5 is_stmt 1 view .LVU680
 2762 0024 0329     		cmp	r1, #3
 2763 0026 F9D8     		bhi	.L302
 2764 0028 DFE801F0 		tbb	[pc, r1]
 2765              	.L304:
 2766 002c 02       		.byte	(.L307-.L304)/2
 2767 002d 05       		.byte	(.L306-.L304)/2
 2768 002e 08       		.byte	(.L305-.L304)/2
 2769 002f 0B       		.byte	(.L303-.L304)/2
 2770              		.p2align 1
 2771              	.L307:
 704:Drivers/STM32F1xx_HAL_Driver/Src/stm32f1xx_hal_dma.c ****       break;
 2772              		.loc 1 704 7 view .LVU681
 704:Drivers/STM32F1xx_HAL_Driver/Src/stm32f1xx_hal_dma.c ****       break;
 2773              		.loc 1 704 30 is_stmt 0 view .LVU682
 2774 0030 9A62     		str	r2, [r3, #40]
 705:Drivers/STM32F1xx_HAL_Driver/Src/stm32f1xx_hal_dma.c ****       
 2775              		.loc 1 705 7 is_stmt 1 view .LVU683
 694:Drivers/STM32F1xx_HAL_Driver/Src/stm32f1xx_hal_dma.c ****   
 2776              		.loc 1 694 21 is_stmt 0 view .LVU684
 2777 0032 0846     		mov	r0, r1
 705:Drivers/STM32F1xx_HAL_Driver/Src/stm32f1xx_hal_dma.c ****       
 2778              		.loc 1 705 7 view .LVU685
 2779 0034 F2E7     		b	.L302
 2780              	.L306:
 708:Drivers/STM32F1xx_HAL_Driver/Src/stm32f1xx_hal_dma.c ****       break;         
 2781              		.loc 1 708 7 is_stmt 1 view .LVU686
 708:Drivers/STM32F1xx_HAL_Driver/Src/stm32f1xx_hal_dma.c ****       break;         
 2782              		.loc 1 708 34 is_stmt 0 view .LVU687
 2783 0036 DA62     		str	r2, [r3, #44]
 709:Drivers/STM32F1xx_HAL_Driver/Src/stm32f1xx_hal_dma.c **** 
 2784              		.loc 1 709 7 is_stmt 1 view .LVU688
 694:Drivers/STM32F1xx_HAL_Driver/Src/stm32f1xx_hal_dma.c ****   
 2785              		.loc 1 694 21 is_stmt 0 view .LVU689
 2786 0038 0020     		movs	r0, #0
 709:Drivers/STM32F1xx_HAL_Driver/Src/stm32f1xx_hal_dma.c **** 
 2787              		.loc 1 709 7 view .LVU690
 2788 003a EFE7     		b	.L302
 2789              	.L305:
 712:Drivers/STM32F1xx_HAL_Driver/Src/stm32f1xx_hal_dma.c ****       break;         
 2790              		.loc 1 712 7 is_stmt 1 view .LVU691
ARM GAS  C:\Users\begre\AppData\Local\Temp\ccGpVL6f.s 			page 77


 712:Drivers/STM32F1xx_HAL_Driver/Src/stm32f1xx_hal_dma.c ****       break;         
 2791              		.loc 1 712 31 is_stmt 0 view .LVU692
 2792 003c 1A63     		str	r2, [r3, #48]
 713:Drivers/STM32F1xx_HAL_Driver/Src/stm32f1xx_hal_dma.c ****       
 2793              		.loc 1 713 7 is_stmt 1 view .LVU693
 694:Drivers/STM32F1xx_HAL_Driver/Src/stm32f1xx_hal_dma.c ****   
 2794              		.loc 1 694 21 is_stmt 0 view .LVU694
 2795 003e 0020     		movs	r0, #0
 713:Drivers/STM32F1xx_HAL_Driver/Src/stm32f1xx_hal_dma.c ****       
 2796              		.loc 1 713 7 view .LVU695
 2797 0040 ECE7     		b	.L302
 2798              	.L303:
 716:Drivers/STM32F1xx_HAL_Driver/Src/stm32f1xx_hal_dma.c ****       break; 
 2799              		.loc 1 716 7 is_stmt 1 view .LVU696
 716:Drivers/STM32F1xx_HAL_Driver/Src/stm32f1xx_hal_dma.c ****       break; 
 2800              		.loc 1 716 31 is_stmt 0 view .LVU697
 2801 0042 5A63     		str	r2, [r3, #52]
 717:Drivers/STM32F1xx_HAL_Driver/Src/stm32f1xx_hal_dma.c ****       
 2802              		.loc 1 717 7 is_stmt 1 view .LVU698
 694:Drivers/STM32F1xx_HAL_Driver/Src/stm32f1xx_hal_dma.c ****   
 2803              		.loc 1 694 21 is_stmt 0 view .LVU699
 2804 0044 0020     		movs	r0, #0
 717:Drivers/STM32F1xx_HAL_Driver/Src/stm32f1xx_hal_dma.c ****       
 2805              		.loc 1 717 7 view .LVU700
 2806 0046 E9E7     		b	.L302
 2807              	.L308:
 697:Drivers/STM32F1xx_HAL_Driver/Src/stm32f1xx_hal_dma.c ****   
 2808              		.loc 1 697 3 view .LVU701
 2809 0048 0220     		movs	r0, #2
 733:Drivers/STM32F1xx_HAL_Driver/Src/stm32f1xx_hal_dma.c **** 
 2810              		.loc 1 733 1 view .LVU702
 2811 004a 7047     		bx	lr
 2812              		.cfi_endproc
 2813              	.LFE73:
 2815              		.section	.text.HAL_DMA_UnRegisterCallback,"ax",%progbits
 2816              		.align	1
 2817              		.global	HAL_DMA_UnRegisterCallback
 2818              		.syntax unified
 2819              		.thumb
 2820              		.thumb_func
 2822              	HAL_DMA_UnRegisterCallback:
 2823              	.LVL97:
 2824              	.LFB74:
 744:Drivers/STM32F1xx_HAL_Driver/Src/stm32f1xx_hal_dma.c ****   HAL_StatusTypeDef status = HAL_OK;
 2825              		.loc 1 744 1 is_stmt 1 view -0
 2826              		.cfi_startproc
 2827              		@ args = 0, pretend = 0, frame = 0
 2828              		@ frame_needed = 0, uses_anonymous_args = 0
 2829              		@ link register save eliminated.
 744:Drivers/STM32F1xx_HAL_Driver/Src/stm32f1xx_hal_dma.c ****   HAL_StatusTypeDef status = HAL_OK;
 2830              		.loc 1 744 1 is_stmt 0 view .LVU704
 2831 0000 0346     		mov	r3, r0
 745:Drivers/STM32F1xx_HAL_Driver/Src/stm32f1xx_hal_dma.c **** 
 2832              		.loc 1 745 3 is_stmt 1 view .LVU705
 2833              	.LVL98:
 748:Drivers/STM32F1xx_HAL_Driver/Src/stm32f1xx_hal_dma.c ****   
 2834              		.loc 1 748 3 view .LVU706
ARM GAS  C:\Users\begre\AppData\Local\Temp\ccGpVL6f.s 			page 78


 748:Drivers/STM32F1xx_HAL_Driver/Src/stm32f1xx_hal_dma.c ****   
 2835              		.loc 1 748 3 view .LVU707
 2836 0002 90F82020 		ldrb	r2, [r0, #32]	@ zero_extendqisi2
 2837 0006 012A     		cmp	r2, #1
 2838 0008 26D0     		beq	.L320
 748:Drivers/STM32F1xx_HAL_Driver/Src/stm32f1xx_hal_dma.c ****   
 2839              		.loc 1 748 3 discriminator 2 view .LVU708
